ARM GAS  /tmp/cc7zDYiP.s 			page 1


   1              		.syntax unified
   2              		.cpu cortex-m3
   3              		.fpu softvfp
   4              		.eabi_attribute 20, 1
   5              		.eabi_attribute 21, 1
   6              		.eabi_attribute 23, 3
   7              		.eabi_attribute 24, 1
   8              		.eabi_attribute 25, 1
   9              		.eabi_attribute 26, 1
  10              		.eabi_attribute 30, 2
  11              		.eabi_attribute 34, 1
  12              		.eabi_attribute 18, 4
  13              		.thumb
  14              		.file	"main.c"
  15              		.text
  16              	.Ltext0:
  17              		.cfi_sections	.debug_frame
  18              		.section	.text.Thread1,"ax",%progbits
  19              		.align	2
  20              		.p2align 4,,15
  21              		.thumb
  22              		.thumb_func
  23              		.type	Thread1, %function
  24              	Thread1:
  25              	.LFB36:
  26              		.file 1 "main.c"
  27              		.loc 1 23 0
  28              		.cfi_startproc
  29              		@ Volatile: function does not return.
  30              		@ args = 0, pretend = 0, frame = 0
  31              		@ frame_needed = 0, uses_anonymous_args = 0
  32              	.LVL0:
  33              		.loc 1 26 0
  34 0000 4FF40035 		mov	r5, #131072
  35 0004 2E46     		mov	r6, r5
  36              		.loc 1 23 0
  37 0006 08B5     		push	{r3, lr}
  38              		.cfi_def_cfa_offset 8
  39              		.cfi_offset 3, -8
  40              		.cfi_offset 14, -4
  41              		.loc 1 26 0
  42 0008 044C     		ldr	r4, .L5
  43              	.LVL1:
  44              	.L2:
  45              		.loc 1 26 0 is_stmt 0 discriminator 1
  46 000a 6663     		str	r6, [r4, #52]
  47              		.loc 1 27 0 is_stmt 1 discriminator 1
  48 000c 3220     		movs	r0, #50
  49 000e FFF7FEFF 		bl	chThdSleep
  50              	.LVL2:
  51              		.loc 1 28 0 discriminator 1
  52 0012 2563     		str	r5, [r4, #48]
  53              		.loc 1 29 0 discriminator 1
  54 0014 3220     		movs	r0, #50
  55 0016 FFF7FEFF 		bl	chThdSleep
  56              	.LVL3:
  57              		.loc 1 30 0 discriminator 1
ARM GAS  /tmp/cc7zDYiP.s 			page 2


  58 001a F6E7     		b	.L2
  59              	.L6:
  60              		.align	2
  61              	.L5:
  62 001c 00120E40 		.word	1074663936
  63              		.cfi_endproc
  64              	.LFE36:
  65              		.size	Thread1, .-Thread1
  66              		.section	.text.startup.main,"ax",%progbits
  67              		.align	2
  68              		.p2align 4,,15
  69              		.global	main
  70              		.thumb
  71              		.thumb_func
  72              		.type	main, %function
  73              	main:
  74              	.LFB37:
  75              		.loc 1 37 0
  76              		.cfi_startproc
  77              		@ args = 0, pretend = 0, frame = 0
  78              		@ frame_needed = 0, uses_anonymous_args = 0
  79              	.LVL4:
  80 0000 30B5     		push	{r4, r5, lr}
  81              		.cfi_def_cfa_offset 12
  82              		.cfi_offset 4, -12
  83              		.cfi_offset 5, -8
  84              		.cfi_offset 14, -4
  85 0002 83B0     		sub	sp, sp, #12
  86              		.cfi_def_cfa_offset 24
  87              		.loc 1 41 0
  88 0004 FFF7FEFF 		bl	halInit
  89              	.LVL5:
  90              		.loc 1 42 0
  91 0008 FFF7FEFF 		bl	chSysInit
  92              	.LVL6:
  93              		.loc 1 43 0
  94 000c 2248     		ldr	r0, .L14
  95 000e 0021     		movs	r1, #0
  96 0010 FFF7FEFF 		bl	sdStart
  97              	.LVL7:
  98              		.loc 1 46 0
  99 0014 0121     		movs	r1, #1
 100 0016 2148     		ldr	r0, .L14+4
 101 0018 FFF7FEFF 		bl	PIO_Configure
 102              	.LVL8:
 103              		.loc 1 47 0
 104 001c 0122     		movs	r2, #1
 105 001e 0020     		movs	r0, #0
 106 0020 1F21     		movs	r1, #31
 107 0022 FFF7FEFF 		bl	PmcConfigurePllClock
 108              	.LVL9:
 109              		.loc 1 49 0
 110 0026 0120     		movs	r0, #1
 111 0028 0021     		movs	r1, #0
 112 002a FFF7FEFF 		bl	PmcMasterClockSelection
 113              	.LVL10:
 114              		.loc 1 51 0
ARM GAS  /tmp/cc7zDYiP.s 			page 3


 115 002e 0220     		movs	r0, #2
 116 0030 0021     		movs	r1, #0
 117 0032 FFF7FEFF 		bl	PmcMasterClockSelection
 118              	.LVL11:
 119              		.loc 1 52 0
 120 0036 0220     		movs	r0, #2
 121 0038 0021     		movs	r1, #0
 122 003a FFF7FEFF 		bl	ConfigurePck
 123              	.LVL12:
 124              		.loc 1 55 0
 125 003e 0023     		movs	r3, #0
 126 0040 4022     		movs	r2, #64
 127 0042 0093     		str	r3, [sp]
 128 0044 4FF49871 		mov	r1, #304
 129 0048 154B     		ldr	r3, .L14+8
 130 004a 1648     		ldr	r0, .L14+12
 131 004c FFF7FEFF 		bl	chThdCreateStatic
 132              	.LVL13:
 133              		.loc 1 58 0
 134 0050 0521     		movs	r1, #5
 135 0052 1548     		ldr	r0, .L14+16
 136 0054 FFF7FEFF 		bl	PIO_Configure
 137              	.LVL14:
 138              		.loc 1 60 0
 139 0058 1448     		ldr	r0, .L14+20
 140 005a FFF7FEFF 		bl	BOARD_ConfigurePSRAM
 141              	.LVL15:
 142              		.loc 1 70 0
 143 005e 144D     		ldr	r5, .L14+24
 144              	.L10:
 145              	.LVL16:
 146              		.loc 1 37 0
 147 0060 144A     		ldr	r2, .L14+28
 148              		.loc 1 65 0
 149 0062 0023     		movs	r3, #0
 150              	.LVL17:
 151              	.L8:
 152              		.loc 1 66 0 discriminator 3
 153 0064 42F8043F 		str	r3, [r2, #4]!
 154              		.loc 1 65 0 discriminator 3
 155 0068 0133     		adds	r3, r3, #1
 156              	.LVL18:
 157 006a B3F5807F 		cmp	r3, #256
 158 006e F9D1     		bne	.L8
 159 0070 104C     		ldr	r4, .L14+28
 160              	.LVL19:
 161              	.L9:
 162              		.loc 1 71 0 discriminator 3
 163 0072 54F8042F 		ldr	r2, [r4, #4]!
 164 0076 0848     		ldr	r0, .L14
 165 0078 D2B2     		uxtb	r2, r2
 166 007a 0F49     		ldr	r1, .L14+32
 167 007c FFF7FEFF 		bl	chprintf
 168              	.LVL20:
 169              		.loc 1 70 0 discriminator 3
 170 0080 AC42     		cmp	r4, r5
 171 0082 F6D1     		bne	.L9
ARM GAS  /tmp/cc7zDYiP.s 			page 4


 172              		.loc 1 74 0
 173 0084 0448     		ldr	r0, .L14
 174 0086 0D49     		ldr	r1, .L14+36
 175 0088 FFF7FEFF 		bl	chprintf
 176              	.LVL21:
 177              		.loc 1 75 0
 178 008c 4FF4FA70 		mov	r0, #500
 179 0090 FFF7FEFF 		bl	chThdSleep
 180              	.LVL22:
 181              		.loc 1 77 0
 182 0094 E4E7     		b	.L10
 183              	.L15:
 184 0096 00BF     		.align	2
 185              	.L14:
 186 0098 00000000 		.word	SD2
 187 009c 00000000 		.word	.LANCHOR0
 188 00a0 00000000 		.word	Thread1
 189 00a4 00000000 		.word	.LANCHOR1
 190 00a8 00000000 		.word	.LANCHOR2
 191 00ac 00000E40 		.word	1074659328
 192 00b0 FC030063 		.word	1660945404
 193 00b4 FCFFFF62 		.word	1660944380
 194 00b8 00000000 		.word	.LC0
 195 00bc 08000000 		.word	.LC1
 196              		.cfi_endproc
 197              	.LFE37:
 198              		.size	main, .-main
 199              		.global	pinPCK
 200              		.global	pinPsram
 201              		.section	.rodata.pinPsram,"a",%progbits
 202              		.align	2
 203              		.set	.LANCHOR2,. + 0
 204              		.type	pinPsram, %object
 205              		.size	pinPsram, 60
 206              	pinPsram:
 207 0000 FF000000 		.word	255
 208 0004 00120E40 		.word	1074663936
 209 0008 0D       		.byte	13
 210 0009 00       		.byte	0
 211 000a 01       		.byte	1
 212 000b 00       		.space	1
 213 000c 00080000 		.word	2048
 214 0010 00120E40 		.word	1074663936
 215 0014 0D       		.byte	13
 216 0015 00       		.byte	0
 217 0016 01       		.byte	1
 218 0017 00       		.space	1
 219 0018 00010000 		.word	256
 220 001c 00120E40 		.word	1074663936
 221 0020 0D       		.byte	13
 222 0021 00       		.byte	0
 223 0022 01       		.byte	1
 224 0023 00       		.space	1
 225 0024 00100000 		.word	4096
 226 0028 00120E40 		.word	1074663936
 227 002c 0D       		.byte	13
 228 002d 00       		.byte	0
ARM GAS  /tmp/cc7zDYiP.s 			page 5


 229 002e 01       		.byte	1
 230 002f 00       		.space	1
 231 0030 0000FCFF 		.word	-262144
 232 0034 00120E40 		.word	1074663936
 233 0038 0D       		.byte	13
 234 0039 00       		.byte	0
 235 003a 01       		.byte	1
 236 003b 00       		.space	1
 237              		.section	.bss.waThread1,"aw",%nobits
 238              		.align	3
 239              		.set	.LANCHOR1,. + 0
 240              		.type	waThread1, %object
 241              		.size	waThread1, 304
 242              	waThread1:
 243 0000 00000000 		.space	304
 243      00000000 
 243      00000000 
 243      00000000 
 243      00000000 
 244              		.section	.rodata.pinPCK,"a",%progbits
 245              		.align	2
 246              		.set	.LANCHOR0,. + 0
 247              		.type	pinPCK, %object
 248              		.size	pinPCK, 12
 249              	pinPCK:
 250 0000 00000080 		.word	-2147483648
 251 0004 000E0E40 		.word	1074662912
 252 0008 0B       		.byte	11
 253 0009 01       		.byte	1
 254 000a 00       		.byte	0
 255 000b 00       		.space	1
 256              		.section	.rodata.str1.4,"aMS",%progbits,1
 257              		.align	2
 258              	.LC0:
 259 0000 2C257820 		.ascii	",%x \015\012\000"
 259      0D0A00
 260 0007 00       		.space	1
 261              	.LC1:
 262 0008 3132330A 		.ascii	"123\012\000"
 262      00
 263              		.text
 264              	.Letext0:
 265              		.file 2 "/home/nixtropy/opt/gcc-arm-none-eabi-4_9-2015q3/lib/gcc/arm-none-eabi/4.9.3/include/stdde
 266              		.file 3 "/home/nixtropy/opt/gcc-arm-none-eabi-4_9-2015q3/arm-none-eabi/include/machine/_default_ty
 267              		.file 4 "/home/nixtropy/opt/gcc-arm-none-eabi-4_9-2015q3/arm-none-eabi/include/sys/_stdint.h"
 268              		.file 5 "/home/nixtropy/opt/gcc-arm-none-eabi-4_9-2015q3/arm-none-eabi/include/stdint.h"
 269              		.file 6 "../../../../ext/ChibiOS//os/ports/GCC/ARMCMx/chtypes.h"
 270              		.file 7 "../../../../ext/ChibiOS//os/kernel/include/chlists.h"
 271              		.file 8 "../../../../ext/ChibiOS//os/kernel/include/chthreads.h"
 272              		.file 9 "../../../../ext/ChibiOS//os/ports/GCC/ARMCMx/chcore_v7m.h"
 273              		.file 10 "../../../../ext/ChibiOS//os/kernel/include/chmtx.h"
 274              		.file 11 "../../../../ext/ChibiOS//os/kernel/include/chevents.h"
 275              		.file 12 "../../../../ext/ChibiOS//os/kernel/include/chqueues.h"
 276              		.file 13 "../../../../ext/ChibiOS//os/kernel/include/chioch.h"
 277              		.file 14 "../../../../ext/ChibiOS//os/hal/platforms/AT91SAM3S/at91lib/SAM3S.h"
 278              		.file 15 "../../../../ext/ChibiOS//os/hal/platforms/AT91SAM3S/pal_lld.h"
 279              		.file 16 "../../../../ext/ChibiOS//os/hal/include/serial.h"
ARM GAS  /tmp/cc7zDYiP.s 			page 6


 280              		.file 17 "../../../../ext/ChibiOS//os/hal/platforms/AT91SAM3S/serial_lld.h"
 281              		.file 18 "../../../../ext/ChibiOS//os/hal/platforms/AT91SAM3S/pio.h"
 282              		.file 19 "../../../../ext/ChibiOS//os/hal/platforms/AT91SAM3S/core_cm3.h"
 283              		.file 20 "psram.h"
 284              		.file 21 "../../../../ext/ChibiOS//os/hal/include/hal.h"
 285              		.file 22 "../../../../ext/ChibiOS//os/kernel/include/chsys.h"
 286              		.file 23 "../../../../ext/ChibiOS//os/hal/platforms/AT91SAM3S/pmc.h"
 287              		.file 24 "../../../../ext/ChibiOS//os/various/chprintf.h"
 288              		.section	.debug_info,"",%progbits
 289              	.Ldebug_info0:
 290 0000 C6120000 		.4byte	0x12c6
 291 0004 0400     		.2byte	0x4
 292 0006 00000000 		.4byte	.Ldebug_abbrev0
 293 000a 04       		.byte	0x4
 294 000b 01       		.uleb128 0x1
 295 000c 17040000 		.4byte	.LASF235
 296 0010 01       		.byte	0x1
 297 0011 F5050000 		.4byte	.LASF236
 298 0015 39030000 		.4byte	.LASF237
 299 0019 00000000 		.4byte	.Ldebug_ranges0+0
 300 001d 00000000 		.4byte	0
 301 0021 00000000 		.4byte	.Ldebug_line0
 302 0025 02       		.uleb128 0x2
 303 0026 04       		.byte	0x4
 304 0027 05       		.byte	0x5
 305 0028 696E7400 		.ascii	"int\000"
 306 002c 03       		.uleb128 0x3
 307 002d 14000000 		.4byte	.LASF2
 308 0031 02       		.byte	0x2
 309 0032 D4       		.byte	0xd4
 310 0033 37000000 		.4byte	0x37
 311 0037 04       		.uleb128 0x4
 312 0038 04       		.byte	0x4
 313 0039 07       		.byte	0x7
 314 003a 81060000 		.4byte	.LASF0
 315 003e 04       		.uleb128 0x4
 316 003f 01       		.byte	0x1
 317 0040 06       		.byte	0x6
 318 0041 CB010000 		.4byte	.LASF1
 319 0045 03       		.uleb128 0x3
 320 0046 EC000000 		.4byte	.LASF3
 321 004a 03       		.byte	0x3
 322 004b 1D       		.byte	0x1d
 323 004c 50000000 		.4byte	0x50
 324 0050 04       		.uleb128 0x4
 325 0051 01       		.byte	0x1
 326 0052 08       		.byte	0x8
 327 0053 0C020000 		.4byte	.LASF4
 328 0057 04       		.uleb128 0x4
 329 0058 02       		.byte	0x2
 330 0059 05       		.byte	0x5
 331 005a 7D080000 		.4byte	.LASF5
 332 005e 04       		.uleb128 0x4
 333 005f 02       		.byte	0x2
 334 0060 07       		.byte	0x7
 335 0061 55090000 		.4byte	.LASF6
 336 0065 03       		.uleb128 0x3
ARM GAS  /tmp/cc7zDYiP.s 			page 7


 337 0066 93090000 		.4byte	.LASF7
 338 006a 03       		.byte	0x3
 339 006b 3F       		.byte	0x3f
 340 006c 70000000 		.4byte	0x70
 341 0070 04       		.uleb128 0x4
 342 0071 04       		.byte	0x4
 343 0072 05       		.byte	0x5
 344 0073 4D010000 		.4byte	.LASF8
 345 0077 03       		.uleb128 0x3
 346 0078 8E050000 		.4byte	.LASF9
 347 007c 03       		.byte	0x3
 348 007d 41       		.byte	0x41
 349 007e 82000000 		.4byte	0x82
 350 0082 04       		.uleb128 0x4
 351 0083 04       		.byte	0x4
 352 0084 07       		.byte	0x7
 353 0085 43050000 		.4byte	.LASF10
 354 0089 04       		.uleb128 0x4
 355 008a 08       		.byte	0x8
 356 008b 05       		.byte	0x5
 357 008c AF050000 		.4byte	.LASF11
 358 0090 03       		.uleb128 0x3
 359 0091 38050000 		.4byte	.LASF12
 360 0095 03       		.byte	0x3
 361 0096 5B       		.byte	0x5b
 362 0097 9B000000 		.4byte	0x9b
 363 009b 04       		.uleb128 0x4
 364 009c 08       		.byte	0x8
 365 009d 07       		.byte	0x7
 366 009e 38070000 		.4byte	.LASF13
 367 00a2 03       		.uleb128 0x3
 368 00a3 DE010000 		.4byte	.LASF14
 369 00a7 04       		.byte	0x4
 370 00a8 14       		.byte	0x14
 371 00a9 45000000 		.4byte	0x45
 372 00ad 03       		.uleb128 0x3
 373 00ae 55000000 		.4byte	.LASF15
 374 00b2 04       		.byte	0x4
 375 00b3 1F       		.byte	0x1f
 376 00b4 65000000 		.4byte	0x65
 377 00b8 03       		.uleb128 0x3
 378 00b9 02090000 		.4byte	.LASF16
 379 00bd 04       		.byte	0x4
 380 00be 20       		.byte	0x20
 381 00bf 77000000 		.4byte	0x77
 382 00c3 03       		.uleb128 0x3
 383 00c4 87080000 		.4byte	.LASF17
 384 00c8 04       		.byte	0x4
 385 00c9 26       		.byte	0x26
 386 00ca 90000000 		.4byte	0x90
 387 00ce 03       		.uleb128 0x3
 388 00cf 2B090000 		.4byte	.LASF18
 389 00d3 05       		.byte	0x5
 390 00d4 3E       		.byte	0x3e
 391 00d5 37000000 		.4byte	0x37
 392 00d9 03       		.uleb128 0x3
 393 00da AA080000 		.4byte	.LASF19
ARM GAS  /tmp/cc7zDYiP.s 			page 8


 394 00de 06       		.byte	0x6
 395 00df 2E       		.byte	0x2e
 396 00e0 AD000000 		.4byte	0xad
 397 00e4 03       		.uleb128 0x3
 398 00e5 0D080000 		.4byte	.LASF20
 399 00e9 06       		.byte	0x6
 400 00ea 2F       		.byte	0x2f
 401 00eb A2000000 		.4byte	0xa2
 402 00ef 03       		.uleb128 0x3
 403 00f0 89010000 		.4byte	.LASF21
 404 00f4 06       		.byte	0x6
 405 00f5 30       		.byte	0x30
 406 00f6 A2000000 		.4byte	0xa2
 407 00fa 03       		.uleb128 0x3
 408 00fb D9080000 		.4byte	.LASF22
 409 00ff 06       		.byte	0x6
 410 0100 31       		.byte	0x31
 411 0101 A2000000 		.4byte	0xa2
 412 0105 03       		.uleb128 0x3
 413 0106 42000000 		.4byte	.LASF23
 414 010a 06       		.byte	0x6
 415 010b 32       		.byte	0x32
 416 010c B8000000 		.4byte	0xb8
 417 0110 03       		.uleb128 0x3
 418 0111 71070000 		.4byte	.LASF24
 419 0115 06       		.byte	0x6
 420 0116 33       		.byte	0x33
 421 0117 AD000000 		.4byte	0xad
 422 011b 03       		.uleb128 0x3
 423 011c E6010000 		.4byte	.LASF25
 424 0120 06       		.byte	0x6
 425 0121 35       		.byte	0x35
 426 0122 B8000000 		.4byte	0xb8
 427 0126 03       		.uleb128 0x3
 428 0127 32000000 		.4byte	.LASF26
 429 012b 06       		.byte	0x6
 430 012c 36       		.byte	0x36
 431 012d B8000000 		.4byte	0xb8
 432 0131 03       		.uleb128 0x3
 433 0132 B1080000 		.4byte	.LASF27
 434 0136 07       		.byte	0x7
 435 0137 2A       		.byte	0x2a
 436 0138 3C010000 		.4byte	0x13c
 437 013c 05       		.uleb128 0x5
 438 013d B1080000 		.4byte	.LASF27
 439 0141 48       		.byte	0x48
 440 0142 08       		.byte	0x8
 441 0143 5E       		.byte	0x5e
 442 0144 2D020000 		.4byte	0x22d
 443 0148 06       		.uleb128 0x6
 444 0149 56010000 		.4byte	.LASF28
 445 014d 08       		.byte	0x8
 446 014e 5F       		.byte	0x5f
 447 014f 4E020000 		.4byte	0x24e
 448 0153 00       		.byte	0
 449 0154 06       		.uleb128 0x6
 450 0155 65010000 		.4byte	.LASF29
ARM GAS  /tmp/cc7zDYiP.s 			page 9


 451 0159 08       		.byte	0x8
 452 015a 61       		.byte	0x61
 453 015b 4E020000 		.4byte	0x24e
 454 015f 04       		.byte	0x4
 455 0160 06       		.uleb128 0x6
 456 0161 C8020000 		.4byte	.LASF30
 457 0165 08       		.byte	0x8
 458 0166 63       		.byte	0x63
 459 0167 05010000 		.4byte	0x105
 460 016b 08       		.byte	0x8
 461 016c 06       		.uleb128 0x6
 462 016d 3C000000 		.4byte	.LASF31
 463 0171 08       		.byte	0x8
 464 0172 64       		.byte	0x64
 465 0173 12030000 		.4byte	0x312
 466 0177 0C       		.byte	0xc
 467 0178 06       		.uleb128 0x6
 468 0179 45010000 		.4byte	.LASF32
 469 017d 08       		.byte	0x8
 470 017e 66       		.byte	0x66
 471 017f 4E020000 		.4byte	0x24e
 472 0183 10       		.byte	0x10
 473 0184 06       		.uleb128 0x6
 474 0185 4F070000 		.4byte	.LASF33
 475 0189 08       		.byte	0x8
 476 018a 67       		.byte	0x67
 477 018b 4E020000 		.4byte	0x24e
 478 018f 14       		.byte	0x14
 479 0190 06       		.uleb128 0x6
 480 0191 BC090000 		.4byte	.LASF34
 481 0195 08       		.byte	0x8
 482 0196 6E       		.byte	0x6e
 483 0197 21040000 		.4byte	0x421
 484 019b 18       		.byte	0x18
 485 019c 06       		.uleb128 0x6
 486 019d 160A0000 		.4byte	.LASF35
 487 01a1 08       		.byte	0x8
 488 01a2 79       		.byte	0x79
 489 01a3 EF000000 		.4byte	0xef
 490 01a7 1C       		.byte	0x1c
 491 01a8 06       		.uleb128 0x6
 492 01a9 74060000 		.4byte	.LASF36
 493 01ad 08       		.byte	0x8
 494 01ae 7D       		.byte	0x7d
 495 01af E4000000 		.4byte	0xe4
 496 01b3 1D       		.byte	0x1d
 497 01b4 06       		.uleb128 0x6
 498 01b5 96060000 		.4byte	.LASF37
 499 01b9 08       		.byte	0x8
 500 01ba 82       		.byte	0x82
 501 01bb FA000000 		.4byte	0xfa
 502 01bf 1E       		.byte	0x1e
 503 01c0 06       		.uleb128 0x6
 504 01c1 D5060000 		.4byte	.LASF38
 505 01c5 08       		.byte	0x8
 506 01c6 89       		.byte	0x89
 507 01c7 3F030000 		.4byte	0x33f
ARM GAS  /tmp/cc7zDYiP.s 			page 10


 508 01cb 20       		.byte	0x20
 509 01cc 07       		.uleb128 0x7
 510 01cd 705F7500 		.ascii	"p_u\000"
 511 01d1 08       		.byte	0x8
 512 01d2 AE       		.byte	0xae
 513 01d3 EC030000 		.4byte	0x3ec
 514 01d7 24       		.byte	0x24
 515 01d8 06       		.uleb128 0x6
 516 01d9 64060000 		.4byte	.LASF39
 517 01dd 08       		.byte	0x8
 518 01de B3       		.byte	0xb3
 519 01df 74020000 		.4byte	0x274
 520 01e3 28       		.byte	0x28
 521 01e4 06       		.uleb128 0x6
 522 01e5 4A000000 		.4byte	.LASF40
 523 01e9 08       		.byte	0x8
 524 01ea B9       		.byte	0xb9
 525 01eb 54020000 		.4byte	0x254
 526 01ef 2C       		.byte	0x2c
 527 01f0 06       		.uleb128 0x6
 528 01f1 F1090000 		.4byte	.LASF41
 529 01f5 08       		.byte	0x8
 530 01f6 BD       		.byte	0xbd
 531 01f7 10010000 		.4byte	0x110
 532 01fb 34       		.byte	0x34
 533 01fc 06       		.uleb128 0x6
 534 01fd F8030000 		.4byte	.LASF42
 535 0201 08       		.byte	0x8
 536 0202 C3       		.byte	0xc3
 537 0203 1B010000 		.4byte	0x11b
 538 0207 38       		.byte	0x38
 539 0208 06       		.uleb128 0x6
 540 0209 97010000 		.4byte	.LASF43
 541 020d 08       		.byte	0x8
 542 020e CA       		.byte	0xca
 543 020f 33040000 		.4byte	0x433
 544 0213 3C       		.byte	0x3c
 545 0214 06       		.uleb128 0x6
 546 0215 F9060000 		.4byte	.LASF44
 547 0219 08       		.byte	0x8
 548 021a CE       		.byte	0xce
 549 021b 05010000 		.4byte	0x105
 550 021f 40       		.byte	0x40
 551 0220 06       		.uleb128 0x6
 552 0221 8E060000 		.4byte	.LASF45
 553 0225 08       		.byte	0x8
 554 0226 D4       		.byte	0xd4
 555 0227 8A020000 		.4byte	0x28a
 556 022b 44       		.byte	0x44
 557 022c 00       		.byte	0
 558 022d 08       		.uleb128 0x8
 559 022e 08       		.byte	0x8
 560 022f 07       		.byte	0x7
 561 0230 61       		.byte	0x61
 562 0231 4E020000 		.4byte	0x24e
 563 0235 06       		.uleb128 0x6
 564 0236 56010000 		.4byte	.LASF28
ARM GAS  /tmp/cc7zDYiP.s 			page 11


 565 023a 07       		.byte	0x7
 566 023b 62       		.byte	0x62
 567 023c 4E020000 		.4byte	0x24e
 568 0240 00       		.byte	0
 569 0241 06       		.uleb128 0x6
 570 0242 65010000 		.4byte	.LASF29
 571 0246 07       		.byte	0x7
 572 0247 64       		.byte	0x64
 573 0248 4E020000 		.4byte	0x24e
 574 024c 04       		.byte	0x4
 575 024d 00       		.byte	0
 576 024e 09       		.uleb128 0x9
 577 024f 04       		.byte	0x4
 578 0250 31010000 		.4byte	0x131
 579 0254 03       		.uleb128 0x3
 580 0255 1E090000 		.4byte	.LASF46
 581 0259 07       		.byte	0x7
 582 025a 66       		.byte	0x66
 583 025b 2D020000 		.4byte	0x22d
 584 025f 08       		.uleb128 0x8
 585 0260 04       		.byte	0x4
 586 0261 07       		.byte	0x7
 587 0262 6B       		.byte	0x6b
 588 0263 74020000 		.4byte	0x274
 589 0267 06       		.uleb128 0x6
 590 0268 56010000 		.4byte	.LASF28
 591 026c 07       		.byte	0x7
 592 026d 6D       		.byte	0x6d
 593 026e 4E020000 		.4byte	0x24e
 594 0272 00       		.byte	0
 595 0273 00       		.byte	0
 596 0274 03       		.uleb128 0x3
 597 0275 B8060000 		.4byte	.LASF47
 598 0279 07       		.byte	0x7
 599 027a 70       		.byte	0x70
 600 027b 5F020000 		.4byte	0x25f
 601 027f 03       		.uleb128 0x3
 602 0280 A8010000 		.4byte	.LASF48
 603 0284 09       		.byte	0x9
 604 0285 D7       		.byte	0xd7
 605 0286 8A020000 		.4byte	0x28a
 606 028a 0A       		.uleb128 0xa
 607 028b 04       		.byte	0x4
 608 028c 03       		.uleb128 0x3
 609 028d 06030000 		.4byte	.LASF49
 610 0291 09       		.byte	0x9
 611 0292 DD       		.byte	0xdd
 612 0293 C3000000 		.4byte	0xc3
 613 0297 05       		.uleb128 0x5
 614 0298 F1030000 		.4byte	.LASF50
 615 029c 24       		.byte	0x24
 616 029d 09       		.byte	0x9
 617 029e FE       		.byte	0xfe
 618 029f 12030000 		.4byte	0x312
 619 02a3 0B       		.uleb128 0xb
 620 02a4 723400   		.ascii	"r4\000"
 621 02a7 09       		.byte	0x9
ARM GAS  /tmp/cc7zDYiP.s 			page 12


 622 02a8 1101     		.2byte	0x111
 623 02aa 7F020000 		.4byte	0x27f
 624 02ae 00       		.byte	0
 625 02af 0B       		.uleb128 0xb
 626 02b0 723500   		.ascii	"r5\000"
 627 02b3 09       		.byte	0x9
 628 02b4 1201     		.2byte	0x112
 629 02b6 7F020000 		.4byte	0x27f
 630 02ba 04       		.byte	0x4
 631 02bb 0B       		.uleb128 0xb
 632 02bc 723600   		.ascii	"r6\000"
 633 02bf 09       		.byte	0x9
 634 02c0 1301     		.2byte	0x113
 635 02c2 7F020000 		.4byte	0x27f
 636 02c6 08       		.byte	0x8
 637 02c7 0B       		.uleb128 0xb
 638 02c8 723700   		.ascii	"r7\000"
 639 02cb 09       		.byte	0x9
 640 02cc 1401     		.2byte	0x114
 641 02ce 7F020000 		.4byte	0x27f
 642 02d2 0C       		.byte	0xc
 643 02d3 0B       		.uleb128 0xb
 644 02d4 723800   		.ascii	"r8\000"
 645 02d7 09       		.byte	0x9
 646 02d8 1501     		.2byte	0x115
 647 02da 7F020000 		.4byte	0x27f
 648 02de 10       		.byte	0x10
 649 02df 0B       		.uleb128 0xb
 650 02e0 723900   		.ascii	"r9\000"
 651 02e3 09       		.byte	0x9
 652 02e4 1601     		.2byte	0x116
 653 02e6 7F020000 		.4byte	0x27f
 654 02ea 14       		.byte	0x14
 655 02eb 0B       		.uleb128 0xb
 656 02ec 72313000 		.ascii	"r10\000"
 657 02f0 09       		.byte	0x9
 658 02f1 1701     		.2byte	0x117
 659 02f3 7F020000 		.4byte	0x27f
 660 02f7 18       		.byte	0x18
 661 02f8 0B       		.uleb128 0xb
 662 02f9 72313100 		.ascii	"r11\000"
 663 02fd 09       		.byte	0x9
 664 02fe 1801     		.2byte	0x118
 665 0300 7F020000 		.4byte	0x27f
 666 0304 1C       		.byte	0x1c
 667 0305 0B       		.uleb128 0xb
 668 0306 6C7200   		.ascii	"lr\000"
 669 0309 09       		.byte	0x9
 670 030a 1901     		.2byte	0x119
 671 030c 7F020000 		.4byte	0x27f
 672 0310 20       		.byte	0x20
 673 0311 00       		.byte	0
 674 0312 0C       		.uleb128 0xc
 675 0313 F2010000 		.4byte	.LASF51
 676 0317 04       		.byte	0x4
 677 0318 09       		.byte	0x9
 678 0319 2301     		.2byte	0x123
ARM GAS  /tmp/cc7zDYiP.s 			page 13


 679 031b 2D030000 		.4byte	0x32d
 680 031f 0B       		.uleb128 0xb
 681 0320 72313300 		.ascii	"r13\000"
 682 0324 09       		.byte	0x9
 683 0325 2401     		.2byte	0x124
 684 0327 2D030000 		.4byte	0x32d
 685 032b 00       		.byte	0
 686 032c 00       		.byte	0
 687 032d 09       		.uleb128 0x9
 688 032e 04       		.byte	0x4
 689 032f 97020000 		.4byte	0x297
 690 0333 0D       		.uleb128 0xd
 691 0334 B8000000 		.4byte	0xb8
 692 0338 04       		.uleb128 0x4
 693 0339 04       		.byte	0x4
 694 033a 07       		.byte	0x7
 695 033b 29000000 		.4byte	.LASF52
 696 033f 0D       		.uleb128 0xd
 697 0340 26010000 		.4byte	0x126
 698 0344 05       		.uleb128 0x5
 699 0345 A1050000 		.4byte	.LASF53
 700 0349 10       		.byte	0x10
 701 034a 0A       		.byte	0xa
 702 034b 2C       		.byte	0x2c
 703 034c 75030000 		.4byte	0x375
 704 0350 06       		.uleb128 0x6
 705 0351 BD050000 		.4byte	.LASF54
 706 0355 0A       		.byte	0xa
 707 0356 2D       		.byte	0x2d
 708 0357 54020000 		.4byte	0x254
 709 035b 00       		.byte	0
 710 035c 06       		.uleb128 0x6
 711 035d DB000000 		.4byte	.LASF55
 712 0361 0A       		.byte	0xa
 713 0362 2F       		.byte	0x2f
 714 0363 4E020000 		.4byte	0x24e
 715 0367 08       		.byte	0x8
 716 0368 06       		.uleb128 0x6
 717 0369 C3090000 		.4byte	.LASF56
 718 036d 0A       		.byte	0xa
 719 036e 31       		.byte	0x31
 720 036f 75030000 		.4byte	0x375
 721 0373 0C       		.byte	0xc
 722 0374 00       		.byte	0
 723 0375 09       		.uleb128 0x9
 724 0376 04       		.byte	0x4
 725 0377 44030000 		.4byte	0x344
 726 037b 03       		.uleb128 0x3
 727 037c A1050000 		.4byte	.LASF53
 728 0380 0A       		.byte	0xa
 729 0381 33       		.byte	0x33
 730 0382 44030000 		.4byte	0x344
 731 0386 03       		.uleb128 0x3
 732 0387 E1080000 		.4byte	.LASF57
 733 038b 0B       		.byte	0xb
 734 038c 29       		.byte	0x29
 735 038d 91030000 		.4byte	0x391
ARM GAS  /tmp/cc7zDYiP.s 			page 14


 736 0391 05       		.uleb128 0x5
 737 0392 E1080000 		.4byte	.LASF57
 738 0396 0C       		.byte	0xc
 739 0397 0B       		.byte	0xb
 740 0398 2E       		.byte	0x2e
 741 0399 C2030000 		.4byte	0x3c2
 742 039d 06       		.uleb128 0x6
 743 039e 55050000 		.4byte	.LASF58
 744 03a2 0B       		.byte	0xb
 745 03a3 2F       		.byte	0x2f
 746 03a4 C2030000 		.4byte	0x3c2
 747 03a8 00       		.byte	0
 748 03a9 06       		.uleb128 0x6
 749 03aa F7090000 		.4byte	.LASF59
 750 03ae 0B       		.byte	0xb
 751 03af 32       		.byte	0x32
 752 03b0 4E020000 		.4byte	0x24e
 753 03b4 04       		.byte	0x4
 754 03b5 06       		.uleb128 0x6
 755 03b6 B4090000 		.4byte	.LASF60
 756 03ba 0B       		.byte	0xb
 757 03bb 34       		.byte	0x34
 758 03bc 1B010000 		.4byte	0x11b
 759 03c0 08       		.byte	0x8
 760 03c1 00       		.byte	0
 761 03c2 09       		.uleb128 0x9
 762 03c3 04       		.byte	0x4
 763 03c4 86030000 		.4byte	0x386
 764 03c8 05       		.uleb128 0x5
 765 03c9 2C050000 		.4byte	.LASF61
 766 03cd 04       		.byte	0x4
 767 03ce 0B       		.byte	0xb
 768 03cf 3C       		.byte	0x3c
 769 03d0 E1030000 		.4byte	0x3e1
 770 03d4 06       		.uleb128 0x6
 771 03d5 0D050000 		.4byte	.LASF62
 772 03d9 0B       		.byte	0xb
 773 03da 3D       		.byte	0x3d
 774 03db C2030000 		.4byte	0x3c2
 775 03df 00       		.byte	0
 776 03e0 00       		.byte	0
 777 03e1 03       		.uleb128 0x3
 778 03e2 2C050000 		.4byte	.LASF61
 779 03e6 0B       		.byte	0xb
 780 03e7 40       		.byte	0x40
 781 03e8 C8030000 		.4byte	0x3c8
 782 03ec 0E       		.uleb128 0xe
 783 03ed 04       		.byte	0x4
 784 03ee 08       		.byte	0x8
 785 03ef 90       		.byte	0x90
 786 03f0 21040000 		.4byte	0x421
 787 03f4 0F       		.uleb128 0xf
 788 03f5 4E090000 		.4byte	.LASF63
 789 03f9 08       		.byte	0x8
 790 03fa 97       		.byte	0x97
 791 03fb 10010000 		.4byte	0x110
 792 03ff 0F       		.uleb128 0xf
ARM GAS  /tmp/cc7zDYiP.s 			page 15


 793 0400 E3000000 		.4byte	.LASF64
 794 0404 08       		.byte	0x8
 795 0405 9E       		.byte	0x9e
 796 0406 10010000 		.4byte	0x110
 797 040a 0F       		.uleb128 0xf
 798 040b E5020000 		.4byte	.LASF65
 799 040f 08       		.byte	0x8
 800 0410 A5       		.byte	0xa5
 801 0411 8A020000 		.4byte	0x28a
 802 0415 0F       		.uleb128 0xf
 803 0416 D7010000 		.4byte	.LASF66
 804 041a 08       		.byte	0x8
 805 041b AC       		.byte	0xac
 806 041c 1B010000 		.4byte	0x11b
 807 0420 00       		.byte	0
 808 0421 09       		.uleb128 0x9
 809 0422 04       		.byte	0x4
 810 0423 27040000 		.4byte	0x427
 811 0427 10       		.uleb128 0x10
 812 0428 2C040000 		.4byte	0x42c
 813 042c 04       		.uleb128 0x4
 814 042d 01       		.byte	0x1
 815 042e 08       		.byte	0x8
 816 042f 86020000 		.4byte	.LASF67
 817 0433 09       		.uleb128 0x9
 818 0434 04       		.byte	0x4
 819 0435 7B030000 		.4byte	0x37b
 820 0439 03       		.uleb128 0x3
 821 043a 3E060000 		.4byte	.LASF68
 822 043e 08       		.byte	0x8
 823 043f DF       		.byte	0xdf
 824 0440 44040000 		.4byte	0x444
 825 0444 09       		.uleb128 0x9
 826 0445 04       		.byte	0x4
 827 0446 4A040000 		.4byte	0x44a
 828 044a 11       		.uleb128 0x11
 829 044b 10010000 		.4byte	0x110
 830 044f 59040000 		.4byte	0x459
 831 0453 12       		.uleb128 0x12
 832 0454 8A020000 		.4byte	0x28a
 833 0458 00       		.byte	0
 834 0459 03       		.uleb128 0x3
 835 045a CF020000 		.4byte	.LASF69
 836 045e 0C       		.byte	0xc
 837 045f 37       		.byte	0x37
 838 0460 64040000 		.4byte	0x464
 839 0464 05       		.uleb128 0x5
 840 0465 CF020000 		.4byte	.LASF69
 841 0469 20       		.byte	0x20
 842 046a 0C       		.byte	0xc
 843 046b 45       		.byte	0x45
 844 046c C5040000 		.4byte	0x4c5
 845 0470 06       		.uleb128 0x6
 846 0471 BD070000 		.4byte	.LASF70
 847 0475 0C       		.byte	0xc
 848 0476 46       		.byte	0x46
 849 0477 54020000 		.4byte	0x254
ARM GAS  /tmp/cc7zDYiP.s 			page 16


 850 047b 00       		.byte	0
 851 047c 06       		.uleb128 0x6
 852 047d 15050000 		.4byte	.LASF71
 853 0481 0C       		.byte	0xc
 854 0482 47       		.byte	0x47
 855 0483 2C000000 		.4byte	0x2c
 856 0487 08       		.byte	0x8
 857 0488 06       		.uleb128 0x6
 858 0489 20010000 		.4byte	.LASF72
 859 048d 0C       		.byte	0xc
 860 048e 48       		.byte	0x48
 861 048f E7040000 		.4byte	0x4e7
 862 0493 0C       		.byte	0xc
 863 0494 06       		.uleb128 0x6
 864 0495 F6000000 		.4byte	.LASF73
 865 0499 0C       		.byte	0xc
 866 049a 49       		.byte	0x49
 867 049b E7040000 		.4byte	0x4e7
 868 049f 10       		.byte	0x10
 869 04a0 06       		.uleb128 0x6
 870 04a1 5D050000 		.4byte	.LASF74
 871 04a5 0C       		.byte	0xc
 872 04a6 4B       		.byte	0x4b
 873 04a7 E7040000 		.4byte	0x4e7
 874 04ab 14       		.byte	0x14
 875 04ac 06       		.uleb128 0x6
 876 04ad 5D010000 		.4byte	.LASF75
 877 04b1 0C       		.byte	0xc
 878 04b2 4C       		.byte	0x4c
 879 04b3 E7040000 		.4byte	0x4e7
 880 04b7 18       		.byte	0x18
 881 04b8 06       		.uleb128 0x6
 882 04b9 29010000 		.4byte	.LASF76
 883 04bd 0C       		.byte	0xc
 884 04be 4D       		.byte	0x4d
 885 04bf C5040000 		.4byte	0x4c5
 886 04c3 1C       		.byte	0x1c
 887 04c4 00       		.byte	0
 888 04c5 03       		.uleb128 0x3
 889 04c6 5A060000 		.4byte	.LASF77
 890 04ca 0C       		.byte	0xc
 891 04cb 3A       		.byte	0x3a
 892 04cc D0040000 		.4byte	0x4d0
 893 04d0 09       		.uleb128 0x9
 894 04d1 04       		.byte	0x4
 895 04d2 D6040000 		.4byte	0x4d6
 896 04d6 13       		.uleb128 0x13
 897 04d7 E1040000 		.4byte	0x4e1
 898 04db 12       		.uleb128 0x12
 899 04dc E1040000 		.4byte	0x4e1
 900 04e0 00       		.byte	0
 901 04e1 09       		.uleb128 0x9
 902 04e2 04       		.byte	0x4
 903 04e3 59040000 		.4byte	0x459
 904 04e7 09       		.uleb128 0x9
 905 04e8 04       		.byte	0x4
 906 04e9 A2000000 		.4byte	0xa2
ARM GAS  /tmp/cc7zDYiP.s 			page 17


 907 04ed 03       		.uleb128 0x3
 908 04ee 70090000 		.4byte	.LASF78
 909 04f2 0C       		.byte	0xc
 910 04f3 76       		.byte	0x76
 911 04f4 59040000 		.4byte	0x459
 912 04f8 03       		.uleb128 0x3
 913 04f9 11030000 		.4byte	.LASF79
 914 04fd 0C       		.byte	0xc
 915 04fe E6       		.byte	0xe6
 916 04ff 59040000 		.4byte	0x459
 917 0503 11       		.uleb128 0x11
 918 0504 2C000000 		.4byte	0x2c
 919 0508 1C050000 		.4byte	0x51c
 920 050c 12       		.uleb128 0x12
 921 050d 8A020000 		.4byte	0x28a
 922 0511 12       		.uleb128 0x12
 923 0512 1C050000 		.4byte	0x51c
 924 0516 12       		.uleb128 0x12
 925 0517 2C000000 		.4byte	0x2c
 926 051b 00       		.byte	0
 927 051c 09       		.uleb128 0x9
 928 051d 04       		.byte	0x4
 929 051e 22050000 		.4byte	0x522
 930 0522 10       		.uleb128 0x10
 931 0523 A2000000 		.4byte	0xa2
 932 0527 09       		.uleb128 0x9
 933 0528 04       		.byte	0x4
 934 0529 03050000 		.4byte	0x503
 935 052d 11       		.uleb128 0x11
 936 052e 2C000000 		.4byte	0x2c
 937 0532 46050000 		.4byte	0x546
 938 0536 12       		.uleb128 0x12
 939 0537 8A020000 		.4byte	0x28a
 940 053b 12       		.uleb128 0x12
 941 053c E7040000 		.4byte	0x4e7
 942 0540 12       		.uleb128 0x12
 943 0541 2C000000 		.4byte	0x2c
 944 0545 00       		.byte	0
 945 0546 09       		.uleb128 0x9
 946 0547 04       		.byte	0x4
 947 0548 2D050000 		.4byte	0x52d
 948 054c 05       		.uleb128 0x5
 949 054d A5090000 		.4byte	.LASF80
 950 0551 20       		.byte	0x20
 951 0552 0D       		.byte	0xd
 952 0553 51       		.byte	0x51
 953 0554 B9050000 		.4byte	0x5b9
 954 0558 06       		.uleb128 0x6
 955 0559 93000000 		.4byte	.LASF81
 956 055d 0D       		.byte	0xd
 957 055e 52       		.byte	0x52
 958 055f 27050000 		.4byte	0x527
 959 0563 00       		.byte	0
 960 0564 06       		.uleb128 0x6
 961 0565 7C060000 		.4byte	.LASF82
 962 0569 0D       		.byte	0xd
 963 056a 52       		.byte	0x52
ARM GAS  /tmp/cc7zDYiP.s 			page 18


 964 056b 46050000 		.4byte	0x546
 965 056f 04       		.byte	0x4
 966 0570 06       		.uleb128 0x6
 967 0571 97030000 		.4byte	.LASF83
 968 0575 0D       		.byte	0xd
 969 0576 52       		.byte	0x52
 970 0577 C8050000 		.4byte	0x5c8
 971 057b 08       		.byte	0x8
 972 057c 06       		.uleb128 0x6
 973 057d 04070000 		.4byte	.LASF84
 974 0581 0D       		.byte	0xd
 975 0582 52       		.byte	0x52
 976 0583 C8050000 		.4byte	0x5c8
 977 0587 0C       		.byte	0xc
 978 0588 07       		.uleb128 0x7
 979 0589 70757400 		.ascii	"put\000"
 980 058d 0D       		.byte	0xd
 981 058e 52       		.byte	0x52
 982 058f E7050000 		.4byte	0x5e7
 983 0593 10       		.byte	0x10
 984 0594 07       		.uleb128 0x7
 985 0595 67657400 		.ascii	"get\000"
 986 0599 0D       		.byte	0xd
 987 059a 52       		.byte	0x52
 988 059b 01060000 		.4byte	0x601
 989 059f 14       		.byte	0x14
 990 05a0 06       		.uleb128 0x6
 991 05a1 6A000000 		.4byte	.LASF85
 992 05a5 0D       		.byte	0xd
 993 05a6 52       		.byte	0x52
 994 05a7 25060000 		.4byte	0x625
 995 05ab 18       		.byte	0x18
 996 05ac 06       		.uleb128 0x6
 997 05ad 1A010000 		.4byte	.LASF86
 998 05b1 0D       		.byte	0xd
 999 05b2 52       		.byte	0x52
 1000 05b3 49060000 		.4byte	0x649
 1001 05b7 1C       		.byte	0x1c
 1002 05b8 00       		.byte	0
 1003 05b9 11       		.uleb128 0x11
 1004 05ba D9000000 		.4byte	0xd9
 1005 05be C8050000 		.4byte	0x5c8
 1006 05c2 12       		.uleb128 0x12
 1007 05c3 8A020000 		.4byte	0x28a
 1008 05c7 00       		.byte	0
 1009 05c8 09       		.uleb128 0x9
 1010 05c9 04       		.byte	0x4
 1011 05ca B9050000 		.4byte	0x5b9
 1012 05ce 11       		.uleb128 0x11
 1013 05cf 10010000 		.4byte	0x110
 1014 05d3 E7050000 		.4byte	0x5e7
 1015 05d7 12       		.uleb128 0x12
 1016 05d8 8A020000 		.4byte	0x28a
 1017 05dc 12       		.uleb128 0x12
 1018 05dd A2000000 		.4byte	0xa2
 1019 05e1 12       		.uleb128 0x12
 1020 05e2 26010000 		.4byte	0x126
ARM GAS  /tmp/cc7zDYiP.s 			page 19


 1021 05e6 00       		.byte	0
 1022 05e7 09       		.uleb128 0x9
 1023 05e8 04       		.byte	0x4
 1024 05e9 CE050000 		.4byte	0x5ce
 1025 05ed 11       		.uleb128 0x11
 1026 05ee 10010000 		.4byte	0x110
 1027 05f2 01060000 		.4byte	0x601
 1028 05f6 12       		.uleb128 0x12
 1029 05f7 8A020000 		.4byte	0x28a
 1030 05fb 12       		.uleb128 0x12
 1031 05fc 26010000 		.4byte	0x126
 1032 0600 00       		.byte	0
 1033 0601 09       		.uleb128 0x9
 1034 0602 04       		.byte	0x4
 1035 0603 ED050000 		.4byte	0x5ed
 1036 0607 11       		.uleb128 0x11
 1037 0608 2C000000 		.4byte	0x2c
 1038 060c 25060000 		.4byte	0x625
 1039 0610 12       		.uleb128 0x12
 1040 0611 8A020000 		.4byte	0x28a
 1041 0615 12       		.uleb128 0x12
 1042 0616 1C050000 		.4byte	0x51c
 1043 061a 12       		.uleb128 0x12
 1044 061b 2C000000 		.4byte	0x2c
 1045 061f 12       		.uleb128 0x12
 1046 0620 26010000 		.4byte	0x126
 1047 0624 00       		.byte	0
 1048 0625 09       		.uleb128 0x9
 1049 0626 04       		.byte	0x4
 1050 0627 07060000 		.4byte	0x607
 1051 062b 11       		.uleb128 0x11
 1052 062c 2C000000 		.4byte	0x2c
 1053 0630 49060000 		.4byte	0x649
 1054 0634 12       		.uleb128 0x12
 1055 0635 8A020000 		.4byte	0x28a
 1056 0639 12       		.uleb128 0x12
 1057 063a E7040000 		.4byte	0x4e7
 1058 063e 12       		.uleb128 0x12
 1059 063f 2C000000 		.4byte	0x2c
 1060 0643 12       		.uleb128 0x12
 1061 0644 26010000 		.4byte	0x126
 1062 0648 00       		.byte	0
 1063 0649 09       		.uleb128 0x9
 1064 064a 04       		.byte	0x4
 1065 064b 2B060000 		.4byte	0x62b
 1066 064f 08       		.uleb128 0x8
 1067 0650 04       		.byte	0x4
 1068 0651 0D       		.byte	0xd
 1069 0652 5C       		.byte	0x5c
 1070 0653 64060000 		.4byte	0x664
 1071 0657 07       		.uleb128 0x7
 1072 0658 766D7400 		.ascii	"vmt\000"
 1073 065c 0D       		.byte	0xd
 1074 065d 5E       		.byte	0x5e
 1075 065e 64060000 		.4byte	0x664
 1076 0662 00       		.byte	0
 1077 0663 00       		.byte	0
ARM GAS  /tmp/cc7zDYiP.s 			page 20


 1078 0664 09       		.uleb128 0x9
 1079 0665 04       		.byte	0x4
 1080 0666 6A060000 		.4byte	0x66a
 1081 066a 10       		.uleb128 0x10
 1082 066b 4C050000 		.4byte	0x54c
 1083 066f 03       		.uleb128 0x3
 1084 0670 CA090000 		.4byte	.LASF87
 1085 0674 0D       		.byte	0xd
 1086 0675 60       		.byte	0x60
 1087 0676 4F060000 		.4byte	0x64f
 1088 067a 14       		.uleb128 0x14
 1089 067b C4060000 		.4byte	.LASF88
 1090 067f 0D       		.byte	0xd
 1091 0680 0B01     		.2byte	0x10b
 1092 0682 CE000000 		.4byte	0xce
 1093 0686 11       		.uleb128 0x11
 1094 0687 7A060000 		.4byte	0x67a
 1095 068b 95060000 		.4byte	0x695
 1096 068f 12       		.uleb128 0x12
 1097 0690 8A020000 		.4byte	0x28a
 1098 0694 00       		.byte	0
 1099 0695 09       		.uleb128 0x9
 1100 0696 04       		.byte	0x4
 1101 0697 86060000 		.4byte	0x686
 1102 069b 03       		.uleb128 0x3
 1103 069c 90080000 		.4byte	.LASF89
 1104 06a0 0E       		.byte	0xe
 1105 06a1 35       		.byte	0x35
 1106 06a2 A6060000 		.4byte	0x6a6
 1107 06a6 10       		.uleb128 0x10
 1108 06a7 33030000 		.4byte	0x333
 1109 06ab 03       		.uleb128 0x3
 1110 06ac 84000000 		.4byte	.LASF90
 1111 06b0 0E       		.byte	0xe
 1112 06b1 39       		.byte	0x39
 1113 06b2 33030000 		.4byte	0x333
 1114 06b6 03       		.uleb128 0x3
 1115 06b7 B8080000 		.4byte	.LASF91
 1116 06bb 0E       		.byte	0xe
 1117 06bc 3A       		.byte	0x3a
 1118 06bd 33030000 		.4byte	0x333
 1119 06c1 15       		.uleb128 0x15
 1120 06c2 B6060000 		.4byte	0x6b6
 1121 06c6 D1060000 		.4byte	0x6d1
 1122 06ca 16       		.uleb128 0x16
 1123 06cb 38030000 		.4byte	0x338
 1124 06cf 12       		.byte	0x12
 1125 06d0 00       		.byte	0
 1126 06d1 15       		.uleb128 0x15
 1127 06d2 B6060000 		.4byte	0x6b6
 1128 06d6 E1060000 		.4byte	0x6e1
 1129 06da 16       		.uleb128 0x16
 1130 06db 38030000 		.4byte	0x338
 1131 06df 00       		.byte	0
 1132 06e0 00       		.byte	0
 1133 06e1 15       		.uleb128 0x15
 1134 06e2 B6060000 		.4byte	0x6b6
ARM GAS  /tmp/cc7zDYiP.s 			page 21


 1135 06e6 F1060000 		.4byte	0x6f1
 1136 06ea 16       		.uleb128 0x16
 1137 06eb 38030000 		.4byte	0x338
 1138 06ef 01       		.byte	0x1
 1139 06f0 00       		.byte	0
 1140 06f1 15       		.uleb128 0x15
 1141 06f2 B6060000 		.4byte	0x6b6
 1142 06f6 01070000 		.4byte	0x701
 1143 06fa 16       		.uleb128 0x16
 1144 06fb 38030000 		.4byte	0x338
 1145 06ff 04       		.byte	0x4
 1146 0700 00       		.byte	0
 1147 0701 15       		.uleb128 0x15
 1148 0702 B6060000 		.4byte	0x6b6
 1149 0706 11070000 		.4byte	0x711
 1150 070a 16       		.uleb128 0x16
 1151 070b 38030000 		.4byte	0x338
 1152 070f 0B       		.byte	0xb
 1153 0710 00       		.byte	0
 1154 0711 17       		.uleb128 0x17
 1155 0712 9001     		.2byte	0x190
 1156 0714 0E       		.byte	0xe
 1157 0715 DA06     		.2byte	0x6da
 1158 0717 0A0B0000 		.4byte	0xb0a
 1159 071b 18       		.uleb128 0x18
 1160 071c 68090000 		.4byte	.LASF92
 1161 0720 0E       		.byte	0xe
 1162 0721 DB06     		.2byte	0x6db
 1163 0723 AB060000 		.4byte	0x6ab
 1164 0727 00       		.byte	0
 1165 0728 18       		.uleb128 0x18
 1166 0729 31030000 		.4byte	.LASF93
 1167 072d 0E       		.byte	0xe
 1168 072e DC06     		.2byte	0x6dc
 1169 0730 AB060000 		.4byte	0x6ab
 1170 0734 04       		.byte	0x4
 1171 0735 18       		.uleb128 0x18
 1172 0736 FC040000 		.4byte	.LASF94
 1173 073a 0E       		.byte	0xe
 1174 073b DD06     		.2byte	0x6dd
 1175 073d 9B060000 		.4byte	0x69b
 1176 0741 08       		.byte	0x8
 1177 0742 18       		.uleb128 0x18
 1178 0743 C7070000 		.4byte	.LASF95
 1179 0747 0E       		.byte	0xe
 1180 0748 DE06     		.2byte	0x6de
 1181 074a 0A0B0000 		.4byte	0xb0a
 1182 074e 0C       		.byte	0xc
 1183 074f 18       		.uleb128 0x18
 1184 0750 89070000 		.4byte	.LASF96
 1185 0754 0E       		.byte	0xe
 1186 0755 DF06     		.2byte	0x6df
 1187 0757 AB060000 		.4byte	0x6ab
 1188 075b 10       		.byte	0x10
 1189 075c 18       		.uleb128 0x18
 1190 075d 69070000 		.4byte	.LASF97
 1191 0761 0E       		.byte	0xe
ARM GAS  /tmp/cc7zDYiP.s 			page 22


 1192 0762 E006     		.2byte	0x6e0
 1193 0764 AB060000 		.4byte	0x6ab
 1194 0768 14       		.byte	0x14
 1195 0769 18       		.uleb128 0x18
 1196 076a C3010000 		.4byte	.LASF98
 1197 076e 0E       		.byte	0xe
 1198 076f E106     		.2byte	0x6e1
 1199 0771 9B060000 		.4byte	0x69b
 1200 0775 18       		.byte	0x18
 1201 0776 18       		.uleb128 0x18
 1202 0777 D1070000 		.4byte	.LASF99
 1203 077b 0E       		.byte	0xe
 1204 077c E206     		.2byte	0x6e2
 1205 077e 0F0B0000 		.4byte	0xb0f
 1206 0782 1C       		.byte	0x1c
 1207 0783 18       		.uleb128 0x18
 1208 0784 77070000 		.4byte	.LASF100
 1209 0788 0E       		.byte	0xe
 1210 0789 E306     		.2byte	0x6e3
 1211 078b AB060000 		.4byte	0x6ab
 1212 078f 20       		.byte	0x20
 1213 0790 18       		.uleb128 0x18
 1214 0791 20070000 		.4byte	.LASF101
 1215 0795 0E       		.byte	0xe
 1216 0796 E406     		.2byte	0x6e4
 1217 0798 AB060000 		.4byte	0x6ab
 1218 079c 24       		.byte	0x24
 1219 079d 18       		.uleb128 0x18
 1220 079e 75010000 		.4byte	.LASF102
 1221 07a2 0E       		.byte	0xe
 1222 07a3 E506     		.2byte	0x6e5
 1223 07a5 9B060000 		.4byte	0x69b
 1224 07a9 28       		.byte	0x28
 1225 07aa 18       		.uleb128 0x18
 1226 07ab DB070000 		.4byte	.LASF103
 1227 07af 0E       		.byte	0xe
 1228 07b0 E606     		.2byte	0x6e6
 1229 07b2 140B0000 		.4byte	0xb14
 1230 07b6 2C       		.byte	0x2c
 1231 07b7 18       		.uleb128 0x18
 1232 07b8 46060000 		.4byte	.LASF104
 1233 07bc 0E       		.byte	0xe
 1234 07bd E706     		.2byte	0x6e7
 1235 07bf AB060000 		.4byte	0x6ab
 1236 07c3 30       		.byte	0x30
 1237 07c4 18       		.uleb128 0x18
 1238 07c5 7D050000 		.4byte	.LASF105
 1239 07c9 0E       		.byte	0xe
 1240 07ca E806     		.2byte	0x6e8
 1241 07cc AB060000 		.4byte	0x6ab
 1242 07d0 34       		.byte	0x34
 1243 07d1 18       		.uleb128 0x18
 1244 07d2 4D080000 		.4byte	.LASF106
 1245 07d6 0E       		.byte	0xe
 1246 07d7 E906     		.2byte	0x6e9
 1247 07d9 B6060000 		.4byte	0x6b6
 1248 07dd 38       		.byte	0x38
ARM GAS  /tmp/cc7zDYiP.s 			page 23


 1249 07de 18       		.uleb128 0x18
 1250 07df EC020000 		.4byte	.LASF107
 1251 07e3 0E       		.byte	0xe
 1252 07e4 EA06     		.2byte	0x6ea
 1253 07e6 9B060000 		.4byte	0x69b
 1254 07ea 3C       		.byte	0x3c
 1255 07eb 18       		.uleb128 0x18
 1256 07ec 05060000 		.4byte	.LASF108
 1257 07f0 0E       		.byte	0xe
 1258 07f1 EB06     		.2byte	0x6eb
 1259 07f3 AB060000 		.4byte	0x6ab
 1260 07f7 40       		.byte	0x40
 1261 07f8 18       		.uleb128 0x18
 1262 07f9 99050000 		.4byte	.LASF109
 1263 07fd 0E       		.byte	0xe
 1264 07fe EC06     		.2byte	0x6ec
 1265 0800 AB060000 		.4byte	0x6ab
 1266 0804 44       		.byte	0x44
 1267 0805 18       		.uleb128 0x18
 1268 0806 3C080000 		.4byte	.LASF110
 1269 080a 0E       		.byte	0xe
 1270 080b ED06     		.2byte	0x6ed
 1271 080d 9B060000 		.4byte	0x69b
 1272 0811 48       		.byte	0x48
 1273 0812 18       		.uleb128 0x18
 1274 0813 D6090000 		.4byte	.LASF111
 1275 0817 0E       		.byte	0xe
 1276 0818 EE06     		.2byte	0x6ee
 1277 081a 9B060000 		.4byte	0x69b
 1278 081e 4C       		.byte	0x4c
 1279 081f 18       		.uleb128 0x18
 1280 0820 28030000 		.4byte	.LASF112
 1281 0824 0E       		.byte	0xe
 1282 0825 EF06     		.2byte	0x6ef
 1283 0827 AB060000 		.4byte	0x6ab
 1284 082b 50       		.byte	0x50
 1285 082c 18       		.uleb128 0x18
 1286 082d DC020000 		.4byte	.LASF113
 1287 0831 0E       		.byte	0xe
 1288 0832 F006     		.2byte	0x6f0
 1289 0834 AB060000 		.4byte	0x6ab
 1290 0838 54       		.byte	0x54
 1291 0839 18       		.uleb128 0x18
 1292 083a 33080000 		.4byte	.LASF114
 1293 083e 0E       		.byte	0xe
 1294 083f F106     		.2byte	0x6f1
 1295 0841 9B060000 		.4byte	0x69b
 1296 0845 58       		.byte	0x58
 1297 0846 18       		.uleb128 0x18
 1298 0847 E5070000 		.4byte	.LASF115
 1299 084b 0E       		.byte	0xe
 1300 084c F206     		.2byte	0x6f2
 1301 084e 190B0000 		.4byte	0xb19
 1302 0852 5C       		.byte	0x5c
 1303 0853 18       		.uleb128 0x18
 1304 0854 1A020000 		.4byte	.LASF116
 1305 0858 0E       		.byte	0xe
ARM GAS  /tmp/cc7zDYiP.s 			page 24


 1306 0859 F306     		.2byte	0x6f3
 1307 085b AB060000 		.4byte	0x6ab
 1308 085f 60       		.byte	0x60
 1309 0860 18       		.uleb128 0x18
 1310 0861 7D020000 		.4byte	.LASF117
 1311 0865 0E       		.byte	0xe
 1312 0866 F406     		.2byte	0x6f4
 1313 0868 AB060000 		.4byte	0x6ab
 1314 086c 64       		.byte	0x64
 1315 086d 18       		.uleb128 0x18
 1316 086e 80070000 		.4byte	.LASF118
 1317 0872 0E       		.byte	0xe
 1318 0873 F506     		.2byte	0x6f5
 1319 0875 9B060000 		.4byte	0x69b
 1320 0879 68       		.byte	0x68
 1321 087a 18       		.uleb128 0x18
 1322 087b EF070000 		.4byte	.LASF119
 1323 087f 0E       		.byte	0xe
 1324 0880 F606     		.2byte	0x6f6
 1325 0882 1E0B0000 		.4byte	0xb1e
 1326 0886 6C       		.byte	0x6c
 1327 0887 18       		.uleb128 0x18
 1328 0888 7E010000 		.4byte	.LASF120
 1329 088c 0E       		.byte	0xe
 1330 088d F706     		.2byte	0x6f7
 1331 088f 230B0000 		.4byte	0xb23
 1332 0893 70       		.byte	0x70
 1333 0894 18       		.uleb128 0x18
 1334 0895 F9070000 		.4byte	.LASF121
 1335 0899 0E       		.byte	0xe
 1336 089a F806     		.2byte	0x6f8
 1337 089c 280B0000 		.4byte	0xb28
 1338 08a0 78       		.byte	0x78
 1339 08a1 18       		.uleb128 0x18
 1340 08a2 E0050000 		.4byte	.LASF122
 1341 08a6 0E       		.byte	0xe
 1342 08a7 F906     		.2byte	0x6f9
 1343 08a9 AB060000 		.4byte	0x6ab
 1344 08ad 80       		.byte	0x80
 1345 08ae 18       		.uleb128 0x18
 1346 08af 4F060000 		.4byte	.LASF123
 1347 08b3 0E       		.byte	0xe
 1348 08b4 FA06     		.2byte	0x6fa
 1349 08b6 AB060000 		.4byte	0x6ab
 1350 08ba 84       		.byte	0x84
 1351 08bb 18       		.uleb128 0x18
 1352 08bc 09000000 		.4byte	.LASF124
 1353 08c0 0E       		.byte	0xe
 1354 08c1 FB06     		.2byte	0x6fb
 1355 08c3 9B060000 		.4byte	0x69b
 1356 08c7 88       		.byte	0x88
 1357 08c8 18       		.uleb128 0x18
 1358 08c9 C5050000 		.4byte	.LASF125
 1359 08cd 0E       		.byte	0xe
 1360 08ce FC06     		.2byte	0x6fc
 1361 08d0 B6060000 		.4byte	0x6b6
 1362 08d4 8C       		.byte	0x8c
ARM GAS  /tmp/cc7zDYiP.s 			page 25


 1363 08d5 18       		.uleb128 0x18
 1364 08d6 3B010000 		.4byte	.LASF126
 1365 08da 0E       		.byte	0xe
 1366 08db FD06     		.2byte	0x6fd
 1367 08dd AB060000 		.4byte	0x6ab
 1368 08e1 90       		.byte	0x90
 1369 08e2 18       		.uleb128 0x18
 1370 08e3 B1010000 		.4byte	.LASF127
 1371 08e7 0E       		.byte	0xe
 1372 08e8 FE06     		.2byte	0x6fe
 1373 08ea AB060000 		.4byte	0x6ab
 1374 08ee 94       		.byte	0x94
 1375 08ef 18       		.uleb128 0x18
 1376 08f0 EF060000 		.4byte	.LASF128
 1377 08f4 0E       		.byte	0xe
 1378 08f5 FF06     		.2byte	0x6ff
 1379 08f7 9B060000 		.4byte	0x69b
 1380 08fb 98       		.byte	0x98
 1381 08fc 18       		.uleb128 0x18
 1382 08fd 03080000 		.4byte	.LASF129
 1383 0901 0E       		.byte	0xe
 1384 0902 0007     		.2byte	0x700
 1385 0904 2D0B0000 		.4byte	0xb2d
 1386 0908 9C       		.byte	0x9c
 1387 0909 18       		.uleb128 0x18
 1388 090a 6C010000 		.4byte	.LASF130
 1389 090e 0E       		.byte	0xe
 1390 090f 0107     		.2byte	0x701
 1391 0911 AB060000 		.4byte	0x6ab
 1392 0915 A0       		.byte	0xa0
 1393 0916 18       		.uleb128 0x18
 1394 0917 11010000 		.4byte	.LASF131
 1395 091b 0E       		.byte	0xe
 1396 091c 0207     		.2byte	0x702
 1397 091e AB060000 		.4byte	0x6ab
 1398 0922 A4       		.byte	0xa4
 1399 0923 18       		.uleb128 0x18
 1400 0924 DC060000 		.4byte	.LASF132
 1401 0928 0E       		.byte	0xe
 1402 0929 0307     		.2byte	0x703
 1403 092b 9B060000 		.4byte	0x69b
 1404 092f A8       		.byte	0xa8
 1405 0930 18       		.uleb128 0x18
 1406 0931 BA000000 		.4byte	.LASF133
 1407 0935 0E       		.byte	0xe
 1408 0936 0407     		.2byte	0x704
 1409 0938 320B0000 		.4byte	0xb32
 1410 093c AC       		.byte	0xac
 1411 093d 18       		.uleb128 0x18
 1412 093e 1F080000 		.4byte	.LASF134
 1413 0942 0E       		.byte	0xe
 1414 0943 0507     		.2byte	0x705
 1415 0945 AB060000 		.4byte	0x6ab
 1416 0949 B0       		.byte	0xb0
 1417 094a 18       		.uleb128 0x18
 1418 094b 91070000 		.4byte	.LASF135
 1419 094f 0E       		.byte	0xe
ARM GAS  /tmp/cc7zDYiP.s 			page 26


 1420 0950 0607     		.2byte	0x706
 1421 0952 AB060000 		.4byte	0x6ab
 1422 0956 B4       		.byte	0xb4
 1423 0957 18       		.uleb128 0x18
 1424 0958 71000000 		.4byte	.LASF136
 1425 095c 0E       		.byte	0xe
 1426 095d 0707     		.2byte	0x707
 1427 095f 9B060000 		.4byte	0x69b
 1428 0963 B8       		.byte	0xb8
 1429 0964 18       		.uleb128 0x18
 1430 0965 15080000 		.4byte	.LASF137
 1431 0969 0E       		.byte	0xe
 1432 096a 0807     		.2byte	0x708
 1433 096c 370B0000 		.4byte	0xb37
 1434 0970 BC       		.byte	0xbc
 1435 0971 18       		.uleb128 0x18
 1436 0972 BB010000 		.4byte	.LASF138
 1437 0976 0E       		.byte	0xe
 1438 0977 0907     		.2byte	0x709
 1439 0979 AB060000 		.4byte	0x6ab
 1440 097d C0       		.byte	0xc0
 1441 097e 18       		.uleb128 0x18
 1442 097f A7060000 		.4byte	.LASF139
 1443 0983 0E       		.byte	0xe
 1444 0984 0A07     		.2byte	0x70a
 1445 0986 AB060000 		.4byte	0x6ab
 1446 098a C4       		.byte	0xc4
 1447 098b 18       		.uleb128 0x18
 1448 098c E8030000 		.4byte	.LASF140
 1449 0990 0E       		.byte	0xe
 1450 0991 0B07     		.2byte	0x70b
 1451 0993 9B060000 		.4byte	0x69b
 1452 0997 C8       		.byte	0xc8
 1453 0998 18       		.uleb128 0x18
 1454 0999 9C020000 		.4byte	.LASF141
 1455 099d 0E       		.byte	0xe
 1456 099e 0C07     		.2byte	0x70c
 1457 09a0 3C0B0000 		.4byte	0xb3c
 1458 09a4 CC       		.byte	0xcc
 1459 09a5 18       		.uleb128 0x18
 1460 09a6 1D030000 		.4byte	.LASF142
 1461 09aa 0E       		.byte	0xe
 1462 09ab 0D07     		.2byte	0x70d
 1463 09ad AB060000 		.4byte	0x6ab
 1464 09b1 D0       		.byte	0xd0
 1465 09b2 18       		.uleb128 0x18
 1466 09b3 43090000 		.4byte	.LASF143
 1467 09b7 0E       		.byte	0xe
 1468 09b8 0E07     		.2byte	0x70e
 1469 09ba AB060000 		.4byte	0x6ab
 1470 09be D4       		.byte	0xd4
 1471 09bf 18       		.uleb128 0x18
 1472 09c0 A8070000 		.4byte	.LASF144
 1473 09c4 0E       		.byte	0xe
 1474 09c5 0F07     		.2byte	0x70f
 1475 09c7 9B060000 		.4byte	0x69b
 1476 09cb D8       		.byte	0xd8
ARM GAS  /tmp/cc7zDYiP.s 			page 27


 1477 09cc 18       		.uleb128 0x18
 1478 09cd A7020000 		.4byte	.LASF145
 1479 09d1 0E       		.byte	0xe
 1480 09d2 1007     		.2byte	0x710
 1481 09d4 410B0000 		.4byte	0xb41
 1482 09d8 DC       		.byte	0xdc
 1483 09d9 18       		.uleb128 0x18
 1484 09da FB020000 		.4byte	.LASF146
 1485 09de 0E       		.byte	0xe
 1486 09df 1107     		.2byte	0x711
 1487 09e1 9B060000 		.4byte	0x69b
 1488 09e5 E0       		.byte	0xe0
 1489 09e6 18       		.uleb128 0x18
 1490 09e7 8A000000 		.4byte	.LASF147
 1491 09eb 0E       		.byte	0xe
 1492 09ec 1207     		.2byte	0x712
 1493 09ee B6060000 		.4byte	0x6b6
 1494 09f2 E4       		.byte	0xe4
 1495 09f3 18       		.uleb128 0x18
 1496 09f4 63020000 		.4byte	.LASF148
 1497 09f8 0E       		.byte	0xe
 1498 09f9 1307     		.2byte	0x713
 1499 09fb 9B060000 		.4byte	0x69b
 1500 09ff E8       		.byte	0xe8
 1501 0a00 18       		.uleb128 0x18
 1502 0a01 B2020000 		.4byte	.LASF149
 1503 0a05 0E       		.byte	0xe
 1504 0a06 1407     		.2byte	0x714
 1505 0a08 460B0000 		.4byte	0xb46
 1506 0a0c EC       		.byte	0xec
 1507 0a0d 19       		.uleb128 0x19
 1508 0a0e 71080000 		.4byte	.LASF150
 1509 0a12 0E       		.byte	0xe
 1510 0a13 1507     		.2byte	0x715
 1511 0a15 B6060000 		.4byte	0x6b6
 1512 0a19 0001     		.2byte	0x100
 1513 0a1b 19       		.uleb128 0x19
 1514 0a1c BD020000 		.4byte	.LASF151
 1515 0a20 0E       		.byte	0xe
 1516 0a21 1607     		.2byte	0x716
 1517 0a23 4B0B0000 		.4byte	0xb4b
 1518 0a27 0401     		.2byte	0x104
 1519 0a29 19       		.uleb128 0x19
 1520 0a2a EF080000 		.4byte	.LASF152
 1521 0a2e 0E       		.byte	0xe
 1522 0a2f 1707     		.2byte	0x717
 1523 0a31 B6060000 		.4byte	0x6b6
 1524 0a35 5001     		.2byte	0x150
 1525 0a37 19       		.uleb128 0x19
 1526 0a38 0C0A0000 		.4byte	.LASF153
 1527 0a3c 0E       		.byte	0xe
 1528 0a3d 1807     		.2byte	0x718
 1529 0a3f AB060000 		.4byte	0x6ab
 1530 0a43 5401     		.2byte	0x154
 1531 0a45 19       		.uleb128 0x19
 1532 0a46 9D060000 		.4byte	.LASF154
 1533 0a4a 0E       		.byte	0xe
ARM GAS  /tmp/cc7zDYiP.s 			page 28


 1534 0a4b 1907     		.2byte	0x719
 1535 0a4d AB060000 		.4byte	0x6ab
 1536 0a51 5801     		.2byte	0x158
 1537 0a53 19       		.uleb128 0x19
 1538 0a54 CF080000 		.4byte	.LASF155
 1539 0a58 0E       		.byte	0xe
 1540 0a59 1A07     		.2byte	0x71a
 1541 0a5b 9B060000 		.4byte	0x69b
 1542 0a5f 5C01     		.2byte	0x15c
 1543 0a61 19       		.uleb128 0x19
 1544 0a62 A7000000 		.4byte	.LASF156
 1545 0a66 0E       		.byte	0xe
 1546 0a67 1B07     		.2byte	0x71b
 1547 0a69 9B060000 		.4byte	0x69b
 1548 0a6d 6001     		.2byte	0x160
 1549 0a6f 19       		.uleb128 0x19
 1550 0a70 12060000 		.4byte	.LASF157
 1551 0a74 0E       		.byte	0xe
 1552 0a75 1C07     		.2byte	0x71c
 1553 0a77 9B060000 		.4byte	0x69b
 1554 0a7b 6401     		.2byte	0x164
 1555 0a7d 19       		.uleb128 0x19
 1556 0a7e 61070000 		.4byte	.LASF158
 1557 0a82 0E       		.byte	0xe
 1558 0a83 1D07     		.2byte	0x71d
 1559 0a85 B6060000 		.4byte	0x6b6
 1560 0a89 6801     		.2byte	0x168
 1561 0a8b 19       		.uleb128 0x19
 1562 0a8c 94020000 		.4byte	.LASF159
 1563 0a90 0E       		.byte	0xe
 1564 0a91 1E07     		.2byte	0x71e
 1565 0a93 B6060000 		.4byte	0x6b6
 1566 0a97 6C01     		.2byte	0x16c
 1567 0a99 19       		.uleb128 0x19
 1568 0a9a C9000000 		.4byte	.LASF160
 1569 0a9e 0E       		.byte	0xe
 1570 0a9f 1F07     		.2byte	0x71f
 1571 0aa1 B6060000 		.4byte	0x6b6
 1572 0aa5 7001     		.2byte	0x170
 1573 0aa7 19       		.uleb128 0x19
 1574 0aa8 30070000 		.4byte	.LASF161
 1575 0aac 0E       		.byte	0xe
 1576 0aad 2007     		.2byte	0x720
 1577 0aaf B6060000 		.4byte	0x6b6
 1578 0ab3 7401     		.2byte	0x174
 1579 0ab5 19       		.uleb128 0x19
 1580 0ab6 03020000 		.4byte	.LASF162
 1581 0aba 0E       		.byte	0xe
 1582 0abb 2107     		.2byte	0x721
 1583 0abd B6060000 		.4byte	0x6b6
 1584 0ac1 7801     		.2byte	0x178
 1585 0ac3 19       		.uleb128 0x19
 1586 0ac4 56080000 		.4byte	.LASF163
 1587 0ac8 0E       		.byte	0xe
 1588 0ac9 2207     		.2byte	0x722
 1589 0acb B6060000 		.4byte	0x6b6
 1590 0acf 7C01     		.2byte	0x17c
ARM GAS  /tmp/cc7zDYiP.s 			page 29


 1591 0ad1 19       		.uleb128 0x19
 1592 0ad2 39020000 		.4byte	.LASF164
 1593 0ad6 0E       		.byte	0xe
 1594 0ad7 2307     		.2byte	0x723
 1595 0ad9 B6060000 		.4byte	0x6b6
 1596 0add 8001     		.2byte	0x180
 1597 0adf 19       		.uleb128 0x19
 1598 0ae0 68080000 		.4byte	.LASF165
 1599 0ae4 0E       		.byte	0xe
 1600 0ae5 2407     		.2byte	0x724
 1601 0ae7 B6060000 		.4byte	0x6b6
 1602 0aeb 8401     		.2byte	0x184
 1603 0aed 19       		.uleb128 0x19
 1604 0aee 030A0000 		.4byte	.LASF166
 1605 0af2 0E       		.byte	0xe
 1606 0af3 2507     		.2byte	0x725
 1607 0af5 AB060000 		.4byte	0x6ab
 1608 0af9 8801     		.2byte	0x188
 1609 0afb 19       		.uleb128 0x19
 1610 0afc FC050000 		.4byte	.LASF167
 1611 0b00 0E       		.byte	0xe
 1612 0b01 2607     		.2byte	0x726
 1613 0b03 9B060000 		.4byte	0x69b
 1614 0b07 8C01     		.2byte	0x18c
 1615 0b09 00       		.byte	0
 1616 0b0a 0D       		.uleb128 0xd
 1617 0b0b D1060000 		.4byte	0x6d1
 1618 0b0f 0D       		.uleb128 0xd
 1619 0b10 D1060000 		.4byte	0x6d1
 1620 0b14 0D       		.uleb128 0xd
 1621 0b15 D1060000 		.4byte	0x6d1
 1622 0b19 0D       		.uleb128 0xd
 1623 0b1a D1060000 		.4byte	0x6d1
 1624 0b1e 0D       		.uleb128 0xd
 1625 0b1f D1060000 		.4byte	0x6d1
 1626 0b23 0D       		.uleb128 0xd
 1627 0b24 E1060000 		.4byte	0x6e1
 1628 0b28 0D       		.uleb128 0xd
 1629 0b29 E1060000 		.4byte	0x6e1
 1630 0b2d 0D       		.uleb128 0xd
 1631 0b2e D1060000 		.4byte	0x6d1
 1632 0b32 0D       		.uleb128 0xd
 1633 0b33 D1060000 		.4byte	0x6d1
 1634 0b37 0D       		.uleb128 0xd
 1635 0b38 D1060000 		.4byte	0x6d1
 1636 0b3c 0D       		.uleb128 0xd
 1637 0b3d D1060000 		.4byte	0x6d1
 1638 0b41 0D       		.uleb128 0xd
 1639 0b42 D1060000 		.4byte	0x6d1
 1640 0b46 0D       		.uleb128 0xd
 1641 0b47 F1060000 		.4byte	0x6f1
 1642 0b4b 0D       		.uleb128 0xd
 1643 0b4c C1060000 		.4byte	0x6c1
 1644 0b50 1A       		.uleb128 0x1a
 1645 0b51 50696F00 		.ascii	"Pio\000"
 1646 0b55 0E       		.byte	0xe
 1647 0b56 2707     		.2byte	0x727
ARM GAS  /tmp/cc7zDYiP.s 			page 30


 1648 0b58 11070000 		.4byte	0x711
 1649 0b5c 1B       		.uleb128 0x1b
 1650 0b5d 10       		.byte	0x10
 1651 0b5e 0E       		.byte	0xe
 1652 0b5f E111     		.2byte	0x11e1
 1653 0b61 9A0B0000 		.4byte	0xb9a
 1654 0b65 18       		.uleb128 0x18
 1655 0b66 EB050000 		.4byte	.LASF168
 1656 0b6a 0E       		.byte	0xe
 1657 0b6b E211     		.2byte	0x11e2
 1658 0b6d B6060000 		.4byte	0x6b6
 1659 0b71 00       		.byte	0
 1660 0b72 18       		.uleb128 0x18
 1661 0b73 0D040000 		.4byte	.LASF169
 1662 0b77 0E       		.byte	0xe
 1663 0b78 E311     		.2byte	0x11e3
 1664 0b7a B6060000 		.4byte	0x6b6
 1665 0b7e 04       		.byte	0x4
 1666 0b7f 18       		.uleb128 0x18
 1667 0b80 03040000 		.4byte	.LASF170
 1668 0b84 0E       		.byte	0xe
 1669 0b85 E411     		.2byte	0x11e4
 1670 0b87 B6060000 		.4byte	0x6b6
 1671 0b8b 08       		.byte	0x8
 1672 0b8c 18       		.uleb128 0x18
 1673 0b8d 50020000 		.4byte	.LASF171
 1674 0b91 0E       		.byte	0xe
 1675 0b92 E511     		.2byte	0x11e5
 1676 0b94 B6060000 		.4byte	0x6b6
 1677 0b98 0C       		.byte	0xc
 1678 0b99 00       		.byte	0
 1679 0b9a 14       		.uleb128 0x14
 1680 0b9b 2C020000 		.4byte	.LASF172
 1681 0b9f 0E       		.byte	0xe
 1682 0ba0 E611     		.2byte	0x11e6
 1683 0ba2 5C0B0000 		.4byte	0xb5c
 1684 0ba6 1B       		.uleb128 0x1b
 1685 0ba7 EC       		.byte	0xec
 1686 0ba8 0E       		.byte	0xe
 1687 0ba9 E811     		.2byte	0x11e8
 1688 0bab 180C0000 		.4byte	0xc18
 1689 0baf 18       		.uleb128 0x18
 1690 0bb0 42020000 		.4byte	.LASF173
 1691 0bb4 0E       		.byte	0xe
 1692 0bb5 E911     		.2byte	0x11e9
 1693 0bb7 180C0000 		.4byte	0xc18
 1694 0bbb 00       		.byte	0
 1695 0bbc 18       		.uleb128 0x18
 1696 0bbd C7070000 		.4byte	.LASF95
 1697 0bc1 0E       		.byte	0xe
 1698 0bc2 EA11     		.2byte	0x11ea
 1699 0bc4 280C0000 		.4byte	0xc28
 1700 0bc8 50       		.byte	0x50
 1701 0bc9 18       		.uleb128 0x18
 1702 0bca 32010000 		.4byte	.LASF174
 1703 0bce 0E       		.byte	0xe
 1704 0bcf EB11     		.2byte	0x11eb
ARM GAS  /tmp/cc7zDYiP.s 			page 31


 1705 0bd1 B6060000 		.4byte	0x6b6
 1706 0bd5 80       		.byte	0x80
 1707 0bd6 18       		.uleb128 0x18
 1708 0bd7 FA010000 		.4byte	.LASF175
 1709 0bdb 0E       		.byte	0xe
 1710 0bdc EC11     		.2byte	0x11ec
 1711 0bde AB060000 		.4byte	0x6ab
 1712 0be2 84       		.byte	0x84
 1713 0be3 18       		.uleb128 0x18
 1714 0be4 0B090000 		.4byte	.LASF176
 1715 0be8 0E       		.byte	0xe
 1716 0be9 ED11     		.2byte	0x11ed
 1717 0beb AB060000 		.4byte	0x6ab
 1718 0bef 88       		.byte	0x88
 1719 0bf0 18       		.uleb128 0x18
 1720 0bf1 D1070000 		.4byte	.LASF99
 1721 0bf5 0E       		.byte	0xe
 1722 0bf6 EE11     		.2byte	0x11ee
 1723 0bf8 3D0C0000 		.4byte	0xc3d
 1724 0bfc 8C       		.byte	0x8c
 1725 0bfd 18       		.uleb128 0x18
 1726 0bfe 5F080000 		.4byte	.LASF177
 1727 0c02 0E       		.byte	0xe
 1728 0c03 EF11     		.2byte	0x11ef
 1729 0c05 B6060000 		.4byte	0x6b6
 1730 0c09 E4       		.byte	0xe4
 1731 0c0a 18       		.uleb128 0x18
 1732 0c0b 00000000 		.4byte	.LASF178
 1733 0c0f 0E       		.byte	0xe
 1734 0c10 F011     		.2byte	0x11f0
 1735 0c12 9B060000 		.4byte	0x69b
 1736 0c16 E8       		.byte	0xe8
 1737 0c17 00       		.byte	0
 1738 0c18 15       		.uleb128 0x15
 1739 0c19 9A0B0000 		.4byte	0xb9a
 1740 0c1d 280C0000 		.4byte	0xc28
 1741 0c21 16       		.uleb128 0x16
 1742 0c22 38030000 		.4byte	0x338
 1743 0c26 04       		.byte	0x4
 1744 0c27 00       		.byte	0
 1745 0c28 0D       		.uleb128 0xd
 1746 0c29 01070000 		.4byte	0x701
 1747 0c2d 15       		.uleb128 0x15
 1748 0c2e B6060000 		.4byte	0x6b6
 1749 0c32 3D0C0000 		.4byte	0xc3d
 1750 0c36 16       		.uleb128 0x16
 1751 0c37 38030000 		.4byte	0x338
 1752 0c3b 15       		.byte	0x15
 1753 0c3c 00       		.byte	0
 1754 0c3d 0D       		.uleb128 0xd
 1755 0c3e 2D0C0000 		.4byte	0xc2d
 1756 0c42 1A       		.uleb128 0x1a
 1757 0c43 536D6300 		.ascii	"Smc\000"
 1758 0c47 0E       		.byte	0xe
 1759 0c48 F111     		.2byte	0x11f1
 1760 0c4a A60B0000 		.4byte	0xba6
 1761 0c4e 17       		.uleb128 0x17
ARM GAS  /tmp/cc7zDYiP.s 			page 32


 1762 0c4f 2801     		.2byte	0x128
 1763 0c51 0E       		.byte	0xe
 1764 0c52 0817     		.2byte	0x1708
 1765 0c54 670D0000 		.4byte	0xd67
 1766 0c58 18       		.uleb128 0x18
 1767 0c59 75020000 		.4byte	.LASF179
 1768 0c5d 0E       		.byte	0xe
 1769 0c5e 0917     		.2byte	0x1709
 1770 0c60 AB060000 		.4byte	0x6ab
 1771 0c64 00       		.byte	0
 1772 0c65 18       		.uleb128 0x18
 1773 0c66 C7080000 		.4byte	.LASF180
 1774 0c6a 0E       		.byte	0xe
 1775 0c6b 0A17     		.2byte	0x170a
 1776 0c6d B6060000 		.4byte	0x6b6
 1777 0c71 04       		.byte	0x4
 1778 0c72 18       		.uleb128 0x18
 1779 0c73 B1000000 		.4byte	.LASF181
 1780 0c77 0E       		.byte	0xe
 1781 0c78 0B17     		.2byte	0x170b
 1782 0c7a AB060000 		.4byte	0x6ab
 1783 0c7e 08       		.byte	0x8
 1784 0c7f 18       		.uleb128 0x18
 1785 0c80 7B000000 		.4byte	.LASF182
 1786 0c84 0E       		.byte	0xe
 1787 0c85 0C17     		.2byte	0x170c
 1788 0c87 AB060000 		.4byte	0x6ab
 1789 0c8b 0C       		.byte	0xc
 1790 0c8c 18       		.uleb128 0x18
 1791 0c8d BC030000 		.4byte	.LASF183
 1792 0c91 0E       		.byte	0xe
 1793 0c92 0D17     		.2byte	0x170d
 1794 0c94 9B060000 		.4byte	0x69b
 1795 0c98 10       		.byte	0x10
 1796 0c99 18       		.uleb128 0x18
 1797 0c9a 9F000000 		.4byte	.LASF184
 1798 0c9e 0E       		.byte	0xe
 1799 0c9f 0E17     		.2byte	0x170e
 1800 0ca1 9B060000 		.4byte	0x69b
 1801 0ca5 14       		.byte	0x14
 1802 0ca6 18       		.uleb128 0x18
 1803 0ca7 DE090000 		.4byte	.LASF185
 1804 0cab 0E       		.byte	0xe
 1805 0cac 0F17     		.2byte	0x170f
 1806 0cae 9B060000 		.4byte	0x69b
 1807 0cb2 18       		.byte	0x18
 1808 0cb3 18       		.uleb128 0x18
 1809 0cb4 04050000 		.4byte	.LASF186
 1810 0cb8 0E       		.byte	0xe
 1811 0cb9 1017     		.2byte	0x1710
 1812 0cbb AB060000 		.4byte	0x6ab
 1813 0cbf 1C       		.byte	0x1c
 1814 0cc0 18       		.uleb128 0x18
 1815 0cc1 B3070000 		.4byte	.LASF187
 1816 0cc5 0E       		.byte	0xe
 1817 0cc6 1117     		.2byte	0x1711
 1818 0cc8 B6060000 		.4byte	0x6b6
ARM GAS  /tmp/cc7zDYiP.s 			page 33


 1819 0ccc 20       		.byte	0x20
 1820 0ccd 18       		.uleb128 0x18
 1821 0cce C7070000 		.4byte	.LASF95
 1822 0cd2 0E       		.byte	0xe
 1823 0cd3 1217     		.2byte	0x1712
 1824 0cd5 770D0000 		.4byte	0xd77
 1825 0cd9 24       		.byte	0x24
 1826 0cda 19       		.uleb128 0x19
 1827 0cdb 6C020000 		.4byte	.LASF188
 1828 0cdf 0E       		.byte	0xe
 1829 0ce0 1317     		.2byte	0x1713
 1830 0ce2 B6060000 		.4byte	0x6b6
 1831 0ce6 0001     		.2byte	0x100
 1832 0ce8 19       		.uleb128 0x19
 1833 0ce9 96080000 		.4byte	.LASF189
 1834 0ced 0E       		.byte	0xe
 1835 0cee 1417     		.2byte	0x1714
 1836 0cf0 B6060000 		.4byte	0x6b6
 1837 0cf4 0401     		.2byte	0x104
 1838 0cf6 19       		.uleb128 0x19
 1839 0cf7 12070000 		.4byte	.LASF190
 1840 0cfb 0E       		.byte	0xe
 1841 0cfc 1517     		.2byte	0x1715
 1842 0cfe B6060000 		.4byte	0x6b6
 1843 0d02 0801     		.2byte	0x108
 1844 0d04 19       		.uleb128 0x19
 1845 0d05 23020000 		.4byte	.LASF191
 1846 0d09 0E       		.byte	0xe
 1847 0d0a 1617     		.2byte	0x1716
 1848 0d0c B6060000 		.4byte	0x6b6
 1849 0d10 0C01     		.2byte	0x10c
 1850 0d12 19       		.uleb128 0x19
 1851 0d13 B2030000 		.4byte	.LASF192
 1852 0d17 0E       		.byte	0xe
 1853 0d18 1717     		.2byte	0x1717
 1854 0d1a B6060000 		.4byte	0x6b6
 1855 0d1e 1001     		.2byte	0x110
 1856 0d20 19       		.uleb128 0x19
 1857 0d21 14090000 		.4byte	.LASF193
 1858 0d25 0E       		.byte	0xe
 1859 0d26 1817     		.2byte	0x1718
 1860 0d28 B6060000 		.4byte	0x6b6
 1861 0d2c 1401     		.2byte	0x114
 1862 0d2e 19       		.uleb128 0x19
 1863 0d2f CA030000 		.4byte	.LASF194
 1864 0d33 0E       		.byte	0xe
 1865 0d34 1917     		.2byte	0x1719
 1866 0d36 B6060000 		.4byte	0x6b6
 1867 0d3a 1801     		.2byte	0x118
 1868 0d3c 19       		.uleb128 0x19
 1869 0d3d 39090000 		.4byte	.LASF195
 1870 0d41 0E       		.byte	0xe
 1871 0d42 1A17     		.2byte	0x171a
 1872 0d44 B6060000 		.4byte	0x6b6
 1873 0d48 1C01     		.2byte	0x11c
 1874 0d4a 19       		.uleb128 0x19
 1875 0d4b D1000000 		.4byte	.LASF196
ARM GAS  /tmp/cc7zDYiP.s 			page 34


 1876 0d4f 0E       		.byte	0xe
 1877 0d50 1B17     		.2byte	0x171b
 1878 0d52 AB060000 		.4byte	0x6ab
 1879 0d56 2001     		.2byte	0x120
 1880 0d58 19       		.uleb128 0x19
 1881 0d59 E5060000 		.4byte	.LASF197
 1882 0d5d 0E       		.byte	0xe
 1883 0d5e 1C17     		.2byte	0x171c
 1884 0d60 9B060000 		.4byte	0x69b
 1885 0d64 2401     		.2byte	0x124
 1886 0d66 00       		.byte	0
 1887 0d67 15       		.uleb128 0x15
 1888 0d68 B6060000 		.4byte	0x6b6
 1889 0d6c 770D0000 		.4byte	0xd77
 1890 0d70 16       		.uleb128 0x16
 1891 0d71 38030000 		.4byte	0x338
 1892 0d75 36       		.byte	0x36
 1893 0d76 00       		.byte	0
 1894 0d77 0D       		.uleb128 0xd
 1895 0d78 670D0000 		.4byte	0xd67
 1896 0d7c 14       		.uleb128 0x14
 1897 0d7d C5030000 		.4byte	.LASF198
 1898 0d81 0E       		.byte	0xe
 1899 0d82 1D17     		.2byte	0x171d
 1900 0d84 4E0C0000 		.4byte	0xc4e
 1901 0d88 03       		.uleb128 0x3
 1902 0d89 A5030000 		.4byte	.LASF199
 1903 0d8d 0F       		.byte	0xf
 1904 0d8e 5D       		.byte	0x5d
 1905 0d8f B8000000 		.4byte	0xb8
 1906 0d93 09       		.uleb128 0x9
 1907 0d94 04       		.byte	0x4
 1908 0d95 500B0000 		.4byte	0xb50
 1909 0d99 1C       		.uleb128 0x1c
 1910 0d9a 01       		.byte	0x1
 1911 0d9b 10       		.byte	0x10
 1912 0d9c 64       		.byte	0x64
 1913 0d9d B40D0000 		.4byte	0xdb4
 1914 0da1 1D       		.uleb128 0x1d
 1915 0da2 59020000 		.4byte	.LASF200
 1916 0da6 00       		.sleb128 0
 1917 0da7 1D       		.uleb128 0x1d
 1918 0da8 9D090000 		.4byte	.LASF201
 1919 0dac 01       		.sleb128 1
 1920 0dad 1D       		.uleb128 0x1d
 1921 0dae 44080000 		.4byte	.LASF202
 1922 0db2 02       		.sleb128 2
 1923 0db3 00       		.byte	0
 1924 0db4 03       		.uleb128 0x3
 1925 0db5 29080000 		.4byte	.LASF203
 1926 0db9 10       		.byte	0x10
 1927 0dba 68       		.byte	0x68
 1928 0dbb 990D0000 		.4byte	0xd99
 1929 0dbf 03       		.uleb128 0x3
 1930 0dc0 9B070000 		.4byte	.LASF204
 1931 0dc4 10       		.byte	0x10
 1932 0dc5 6D       		.byte	0x6d
ARM GAS  /tmp/cc7zDYiP.s 			page 35


 1933 0dc6 CA0D0000 		.4byte	0xdca
 1934 0dca 05       		.uleb128 0x5
 1935 0dcb 9B070000 		.4byte	.LASF204
 1936 0dcf 74       		.byte	0x74
 1937 0dd0 10       		.byte	0x10
 1938 0dd1 87       		.byte	0x87
 1939 0dd2 410E0000 		.4byte	0xe41
 1940 0dd6 07       		.uleb128 0x7
 1941 0dd7 766D7400 		.ascii	"vmt\000"
 1942 0ddb 10       		.byte	0x10
 1943 0ddc 89       		.byte	0x89
 1944 0ddd E60E0000 		.4byte	0xee6
 1945 0de1 00       		.byte	0
 1946 0de2 06       		.uleb128 0x6
 1947 0de3 6E060000 		.4byte	.LASF205
 1948 0de7 10       		.byte	0x10
 1949 0de8 8A       		.byte	0x8a
 1950 0de9 E1030000 		.4byte	0x3e1
 1951 0ded 04       		.byte	0x4
 1952 0dee 06       		.uleb128 0x6
 1953 0def F5020000 		.4byte	.LASF206
 1954 0df3 10       		.byte	0x10
 1955 0df4 8A       		.byte	0x8a
 1956 0df5 7A060000 		.4byte	0x67a
 1957 0df9 08       		.byte	0x8
 1958 0dfa 06       		.uleb128 0x6
 1959 0dfb A4080000 		.4byte	.LASF207
 1960 0dff 10       		.byte	0x10
 1961 0e00 8A       		.byte	0x8a
 1962 0e01 B40D0000 		.4byte	0xdb4
 1963 0e05 0C       		.byte	0xc
 1964 0e06 06       		.uleb128 0x6
 1965 0e07 29070000 		.4byte	.LASF208
 1966 0e0b 10       		.byte	0x10
 1967 0e0c 8A       		.byte	0x8a
 1968 0e0d ED040000 		.4byte	0x4ed
 1969 0e11 10       		.byte	0x10
 1970 0e12 06       		.uleb128 0x6
 1971 0e13 A1010000 		.4byte	.LASF209
 1972 0e17 10       		.byte	0x10
 1973 0e18 8A       		.byte	0x8a
 1974 0e19 F8040000 		.4byte	0x4f8
 1975 0e1d 30       		.byte	0x30
 1976 0e1e 07       		.uleb128 0x7
 1977 0e1f 696200   		.ascii	"ib\000"
 1978 0e22 10       		.byte	0x10
 1979 0e23 8A       		.byte	0x8a
 1980 0e24 F10E0000 		.4byte	0xef1
 1981 0e28 50       		.byte	0x50
 1982 0e29 07       		.uleb128 0x7
 1983 0e2a 6F6200   		.ascii	"ob\000"
 1984 0e2d 10       		.byte	0x10
 1985 0e2e 8A       		.byte	0x8a
 1986 0e2f F10E0000 		.4byte	0xef1
 1987 0e33 60       		.byte	0x60
 1988 0e34 06       		.uleb128 0x6
 1989 0e35 9F080000 		.4byte	.LASF210
ARM GAS  /tmp/cc7zDYiP.s 			page 36


 1990 0e39 10       		.byte	0x10
 1991 0e3a 8A       		.byte	0x8a
 1992 0e3b 010F0000 		.4byte	0xf01
 1993 0e3f 70       		.byte	0x70
 1994 0e40 00       		.byte	0
 1995 0e41 08       		.uleb128 0x8
 1996 0e42 08       		.byte	0x8
 1997 0e43 11       		.byte	0x11
 1998 0e44 58       		.byte	0x58
 1999 0e45 620E0000 		.4byte	0xe62
 2000 0e49 06       		.uleb128 0x6
 2001 0e4a AF060000 		.4byte	.LASF211
 2002 0e4e 11       		.byte	0x11
 2003 0e4f 5D       		.byte	0x5d
 2004 0e50 B8000000 		.4byte	0xb8
 2005 0e54 00       		.byte	0
 2006 0e55 06       		.uleb128 0x6
 2007 0e56 99000000 		.4byte	.LASF212
 2008 0e5a 11       		.byte	0x11
 2009 0e5b 62       		.byte	0x62
 2010 0e5c B8000000 		.4byte	0xb8
 2011 0e60 04       		.byte	0x4
 2012 0e61 00       		.byte	0
 2013 0e62 03       		.uleb128 0x3
 2014 0e63 5D000000 		.4byte	.LASF213
 2015 0e67 11       		.byte	0x11
 2016 0e68 63       		.byte	0x63
 2017 0e69 410E0000 		.4byte	0xe41
 2018 0e6d 05       		.uleb128 0x5
 2019 0e6e 65050000 		.4byte	.LASF214
 2020 0e72 24       		.byte	0x24
 2021 0e73 10       		.byte	0x10
 2022 0e74 7C       		.byte	0x7c
 2023 0e75 E60E0000 		.4byte	0xee6
 2024 0e79 06       		.uleb128 0x6
 2025 0e7a 93000000 		.4byte	.LASF81
 2026 0e7e 10       		.byte	0x10
 2027 0e7f 7D       		.byte	0x7d
 2028 0e80 27050000 		.4byte	0x527
 2029 0e84 00       		.byte	0
 2030 0e85 06       		.uleb128 0x6
 2031 0e86 7C060000 		.4byte	.LASF82
 2032 0e8a 10       		.byte	0x10
 2033 0e8b 7D       		.byte	0x7d
 2034 0e8c 46050000 		.4byte	0x546
 2035 0e90 04       		.byte	0x4
 2036 0e91 06       		.uleb128 0x6
 2037 0e92 97030000 		.4byte	.LASF83
 2038 0e96 10       		.byte	0x10
 2039 0e97 7D       		.byte	0x7d
 2040 0e98 C8050000 		.4byte	0x5c8
 2041 0e9c 08       		.byte	0x8
 2042 0e9d 06       		.uleb128 0x6
 2043 0e9e 04070000 		.4byte	.LASF84
 2044 0ea2 10       		.byte	0x10
 2045 0ea3 7D       		.byte	0x7d
 2046 0ea4 C8050000 		.4byte	0x5c8
ARM GAS  /tmp/cc7zDYiP.s 			page 37


 2047 0ea8 0C       		.byte	0xc
 2048 0ea9 07       		.uleb128 0x7
 2049 0eaa 70757400 		.ascii	"put\000"
 2050 0eae 10       		.byte	0x10
 2051 0eaf 7D       		.byte	0x7d
 2052 0eb0 E7050000 		.4byte	0x5e7
 2053 0eb4 10       		.byte	0x10
 2054 0eb5 07       		.uleb128 0x7
 2055 0eb6 67657400 		.ascii	"get\000"
 2056 0eba 10       		.byte	0x10
 2057 0ebb 7D       		.byte	0x7d
 2058 0ebc 01060000 		.4byte	0x601
 2059 0ec0 14       		.byte	0x14
 2060 0ec1 06       		.uleb128 0x6
 2061 0ec2 6A000000 		.4byte	.LASF85
 2062 0ec6 10       		.byte	0x10
 2063 0ec7 7D       		.byte	0x7d
 2064 0ec8 25060000 		.4byte	0x625
 2065 0ecc 18       		.byte	0x18
 2066 0ecd 06       		.uleb128 0x6
 2067 0ece 1A010000 		.4byte	.LASF86
 2068 0ed2 10       		.byte	0x10
 2069 0ed3 7D       		.byte	0x7d
 2070 0ed4 49060000 		.4byte	0x649
 2071 0ed8 1C       		.byte	0x1c
 2072 0ed9 06       		.uleb128 0x6
 2073 0eda BE080000 		.4byte	.LASF215
 2074 0ede 10       		.byte	0x10
 2075 0edf 7D       		.byte	0x7d
 2076 0ee0 95060000 		.4byte	0x695
 2077 0ee4 20       		.byte	0x20
 2078 0ee5 00       		.byte	0
 2079 0ee6 09       		.uleb128 0x9
 2080 0ee7 04       		.byte	0x4
 2081 0ee8 EC0E0000 		.4byte	0xeec
 2082 0eec 10       		.uleb128 0x10
 2083 0eed 6D0E0000 		.4byte	0xe6d
 2084 0ef1 15       		.uleb128 0x15
 2085 0ef2 A2000000 		.4byte	0xa2
 2086 0ef6 010F0000 		.4byte	0xf01
 2087 0efa 16       		.uleb128 0x16
 2088 0efb 38030000 		.4byte	0x338
 2089 0eff 0F       		.byte	0xf
 2090 0f00 00       		.byte	0
 2091 0f01 09       		.uleb128 0x9
 2092 0f02 04       		.byte	0x4
 2093 0f03 7C0D0000 		.4byte	0xd7c
 2094 0f07 15       		.uleb128 0x15
 2095 0f08 8C020000 		.4byte	0x28c
 2096 0f0c 170F0000 		.4byte	0xf17
 2097 0f10 16       		.uleb128 0x16
 2098 0f11 38030000 		.4byte	0x338
 2099 0f15 25       		.byte	0x25
 2100 0f16 00       		.byte	0
 2101 0f17 05       		.uleb128 0x5
 2102 0f18 1B070000 		.4byte	.LASF216
 2103 0f1c 0C       		.byte	0xc
ARM GAS  /tmp/cc7zDYiP.s 			page 38


 2104 0f1d 12       		.byte	0x12
 2105 0f1e C8       		.byte	0xc8
 2106 0f1f 5F0F0000 		.4byte	0xf5f
 2107 0f23 06       		.uleb128 0x6
 2108 0f24 0D060000 		.4byte	.LASF217
 2109 0f28 12       		.byte	0x12
 2110 0f29 CB       		.byte	0xcb
 2111 0f2a B8000000 		.4byte	0xb8
 2112 0f2e 00       		.byte	0
 2113 0f2f 07       		.uleb128 0x7
 2114 0f30 70696F00 		.ascii	"pio\000"
 2115 0f34 12       		.byte	0x12
 2116 0f35 CD       		.byte	0xcd
 2117 0f36 930D0000 		.4byte	0xd93
 2118 0f3a 04       		.byte	0x4
 2119 0f3b 07       		.uleb128 0x7
 2120 0f3c 696400   		.ascii	"id\000"
 2121 0f3f 12       		.byte	0x12
 2122 0f40 CF       		.byte	0xcf
 2123 0f41 A2000000 		.4byte	0xa2
 2124 0f45 08       		.byte	0x8
 2125 0f46 06       		.uleb128 0x6
 2126 0f47 C4000000 		.4byte	.LASF218
 2127 0f4b 12       		.byte	0x12
 2128 0f4c D1       		.byte	0xd1
 2129 0f4d A2000000 		.4byte	0xa2
 2130 0f51 09       		.byte	0x9
 2131 0f52 06       		.uleb128 0x6
 2132 0f53 57070000 		.4byte	.LASF219
 2133 0f57 12       		.byte	0x12
 2134 0f58 D3       		.byte	0xd3
 2135 0f59 A2000000 		.4byte	0xa2
 2136 0f5d 0A       		.byte	0xa
 2137 0f5e 00       		.byte	0
 2138 0f5f 1E       		.uleb128 0x1e
 2139 0f60 50696E00 		.ascii	"Pin\000"
 2140 0f64 12       		.byte	0x12
 2141 0f65 D4       		.byte	0xd4
 2142 0f66 170F0000 		.4byte	0xf17
 2143 0f6a 1F       		.uleb128 0x1f
 2144 0f6b A7050000 		.4byte	.LASF238
 2145 0f6f 01       		.byte	0x1
 2146 0f70 17       		.byte	0x17
 2147 0f71 10010000 		.4byte	0x110
 2148 0f75 00000000 		.4byte	.LFB36
 2149 0f79 20000000 		.4byte	.LFE36-.LFB36
 2150 0f7d 01       		.uleb128 0x1
 2151 0f7e 9C       		.byte	0x9c
 2152 0f7f B70F0000 		.4byte	0xfb7
 2153 0f83 20       		.uleb128 0x20
 2154 0f84 61726700 		.ascii	"arg\000"
 2155 0f88 01       		.byte	0x1
 2156 0f89 17       		.byte	0x17
 2157 0f8a 8A020000 		.4byte	0x28a
 2158 0f8e 00000000 		.4byte	.LLST0
 2159 0f92 21       		.uleb128 0x21
 2160 0f93 12000000 		.4byte	.LVL2
ARM GAS  /tmp/cc7zDYiP.s 			page 39


 2161 0f97 B7110000 		.4byte	0x11b7
 2162 0f9b A60F0000 		.4byte	0xfa6
 2163 0f9f 22       		.uleb128 0x22
 2164 0fa0 01       		.uleb128 0x1
 2165 0fa1 50       		.byte	0x50
 2166 0fa2 02       		.uleb128 0x2
 2167 0fa3 08       		.byte	0x8
 2168 0fa4 32       		.byte	0x32
 2169 0fa5 00       		.byte	0
 2170 0fa6 23       		.uleb128 0x23
 2171 0fa7 1A000000 		.4byte	.LVL3
 2172 0fab B7110000 		.4byte	0x11b7
 2173 0faf 22       		.uleb128 0x22
 2174 0fb0 01       		.uleb128 0x1
 2175 0fb1 50       		.byte	0x50
 2176 0fb2 02       		.uleb128 0x2
 2177 0fb3 08       		.byte	0x8
 2178 0fb4 32       		.byte	0x32
 2179 0fb5 00       		.byte	0
 2180 0fb6 00       		.byte	0
 2181 0fb7 24       		.uleb128 0x24
 2182 0fb8 92010000 		.4byte	.LASF239
 2183 0fbc 01       		.byte	0x1
 2184 0fbd 25       		.byte	0x25
 2185 0fbe 25000000 		.4byte	0x25
 2186 0fc2 00000000 		.4byte	.LFB37
 2187 0fc6 C0000000 		.4byte	.LFE37-.LFB37
 2188 0fca 01       		.uleb128 0x1
 2189 0fcb 9C       		.byte	0x9c
 2190 0fcc 38110000 		.4byte	0x1138
 2191 0fd0 25       		.uleb128 0x25
 2192 0fd1 6900     		.ascii	"i\000"
 2193 0fd3 01       		.byte	0x1
 2194 0fd4 26       		.byte	0x26
 2195 0fd5 B8000000 		.4byte	0xb8
 2196 0fd9 21000000 		.4byte	.LLST1
 2197 0fdd 26       		.uleb128 0x26
 2198 0fde 70747200 		.ascii	"ptr\000"
 2199 0fe2 01       		.byte	0x1
 2200 0fe3 27       		.byte	0x27
 2201 0fe4 38110000 		.4byte	0x1138
 2202 0fe8 00000063 		.4byte	0x63000000
 2203 0fec 27       		.uleb128 0x27
 2204 0fed 08000000 		.4byte	.LVL5
 2205 0ff1 C9110000 		.4byte	0x11c9
 2206 0ff5 27       		.uleb128 0x27
 2207 0ff6 0C000000 		.4byte	.LVL6
 2208 0ffa D0110000 		.4byte	0x11d0
 2209 0ffe 21       		.uleb128 0x21
 2210 0fff 14000000 		.4byte	.LVL7
 2211 1003 D7110000 		.4byte	0x11d7
 2212 1007 11100000 		.4byte	0x1011
 2213 100b 22       		.uleb128 0x22
 2214 100c 01       		.uleb128 0x1
 2215 100d 51       		.byte	0x51
 2216 100e 01       		.uleb128 0x1
 2217 100f 30       		.byte	0x30
ARM GAS  /tmp/cc7zDYiP.s 			page 40


 2218 1010 00       		.byte	0
 2219 1011 21       		.uleb128 0x21
 2220 1012 1C000000 		.4byte	.LVL8
 2221 1016 FF110000 		.4byte	0x11ff
 2222 101a 2D100000 		.4byte	0x102d
 2223 101e 22       		.uleb128 0x22
 2224 101f 01       		.uleb128 0x1
 2225 1020 51       		.byte	0x51
 2226 1021 01       		.uleb128 0x1
 2227 1022 31       		.byte	0x31
 2228 1023 22       		.uleb128 0x22
 2229 1024 01       		.uleb128 0x1
 2230 1025 50       		.byte	0x50
 2231 1026 05       		.uleb128 0x5
 2232 1027 03       		.byte	0x3
 2233 1028 00000000 		.4byte	.LANCHOR0
 2234 102c 00       		.byte	0
 2235 102d 21       		.uleb128 0x21
 2236 102e 26000000 		.4byte	.LVL9
 2237 1032 24120000 		.4byte	0x1224
 2238 1036 4A100000 		.4byte	0x104a
 2239 103a 22       		.uleb128 0x22
 2240 103b 01       		.uleb128 0x1
 2241 103c 52       		.byte	0x52
 2242 103d 01       		.uleb128 0x1
 2243 103e 31       		.byte	0x31
 2244 103f 22       		.uleb128 0x22
 2245 1040 01       		.uleb128 0x1
 2246 1041 51       		.byte	0x51
 2247 1042 01       		.uleb128 0x1
 2248 1043 4F       		.byte	0x4f
 2249 1044 22       		.uleb128 0x22
 2250 1045 01       		.uleb128 0x1
 2251 1046 50       		.byte	0x50
 2252 1047 01       		.uleb128 0x1
 2253 1048 30       		.byte	0x30
 2254 1049 00       		.byte	0
 2255 104a 21       		.uleb128 0x21
 2256 104b 2E000000 		.4byte	.LVL10
 2257 104f 3F120000 		.4byte	0x123f
 2258 1053 62100000 		.4byte	0x1062
 2259 1057 22       		.uleb128 0x22
 2260 1058 01       		.uleb128 0x1
 2261 1059 51       		.byte	0x51
 2262 105a 01       		.uleb128 0x1
 2263 105b 30       		.byte	0x30
 2264 105c 22       		.uleb128 0x22
 2265 105d 01       		.uleb128 0x1
 2266 105e 50       		.byte	0x50
 2267 105f 01       		.uleb128 0x1
 2268 1060 31       		.byte	0x31
 2269 1061 00       		.byte	0
 2270 1062 21       		.uleb128 0x21
 2271 1063 36000000 		.4byte	.LVL11
 2272 1067 3F120000 		.4byte	0x123f
 2273 106b 7A100000 		.4byte	0x107a
 2274 106f 22       		.uleb128 0x22
ARM GAS  /tmp/cc7zDYiP.s 			page 41


 2275 1070 01       		.uleb128 0x1
 2276 1071 51       		.byte	0x51
 2277 1072 01       		.uleb128 0x1
 2278 1073 30       		.byte	0x30
 2279 1074 22       		.uleb128 0x22
 2280 1075 01       		.uleb128 0x1
 2281 1076 50       		.byte	0x50
 2282 1077 01       		.uleb128 0x1
 2283 1078 32       		.byte	0x32
 2284 1079 00       		.byte	0
 2285 107a 21       		.uleb128 0x21
 2286 107b 3E000000 		.4byte	.LVL12
 2287 107f 55120000 		.4byte	0x1255
 2288 1083 92100000 		.4byte	0x1092
 2289 1087 22       		.uleb128 0x22
 2290 1088 01       		.uleb128 0x1
 2291 1089 51       		.byte	0x51
 2292 108a 01       		.uleb128 0x1
 2293 108b 30       		.byte	0x30
 2294 108c 22       		.uleb128 0x22
 2295 108d 01       		.uleb128 0x1
 2296 108e 50       		.byte	0x50
 2297 108f 01       		.uleb128 0x1
 2298 1090 32       		.byte	0x32
 2299 1091 00       		.byte	0
 2300 1092 21       		.uleb128 0x21
 2301 1093 50000000 		.4byte	.LVL13
 2302 1097 6B120000 		.4byte	0x126b
 2303 109b C5100000 		.4byte	0x10c5
 2304 109f 22       		.uleb128 0x22
 2305 10a0 01       		.uleb128 0x1
 2306 10a1 53       		.byte	0x53
 2307 10a2 05       		.uleb128 0x5
 2308 10a3 03       		.byte	0x3
 2309 10a4 00000000 		.4byte	Thread1
 2310 10a8 22       		.uleb128 0x22
 2311 10a9 01       		.uleb128 0x1
 2312 10aa 52       		.byte	0x52
 2313 10ab 02       		.uleb128 0x2
 2314 10ac 08       		.byte	0x8
 2315 10ad 40       		.byte	0x40
 2316 10ae 22       		.uleb128 0x22
 2317 10af 01       		.uleb128 0x1
 2318 10b0 51       		.byte	0x51
 2319 10b1 03       		.uleb128 0x3
 2320 10b2 0A       		.byte	0xa
 2321 10b3 3001     		.2byte	0x130
 2322 10b5 22       		.uleb128 0x22
 2323 10b6 01       		.uleb128 0x1
 2324 10b7 50       		.byte	0x50
 2325 10b8 05       		.uleb128 0x5
 2326 10b9 03       		.byte	0x3
 2327 10ba 00000000 		.4byte	.LANCHOR1
 2328 10be 22       		.uleb128 0x22
 2329 10bf 02       		.uleb128 0x2
 2330 10c0 7D       		.byte	0x7d
 2331 10c1 00       		.sleb128 0
ARM GAS  /tmp/cc7zDYiP.s 			page 42


 2332 10c2 01       		.uleb128 0x1
 2333 10c3 30       		.byte	0x30
 2334 10c4 00       		.byte	0
 2335 10c5 21       		.uleb128 0x21
 2336 10c6 58000000 		.4byte	.LVL14
 2337 10ca FF110000 		.4byte	0x11ff
 2338 10ce E1100000 		.4byte	0x10e1
 2339 10d2 22       		.uleb128 0x22
 2340 10d3 01       		.uleb128 0x1
 2341 10d4 51       		.byte	0x51
 2342 10d5 01       		.uleb128 0x1
 2343 10d6 35       		.byte	0x35
 2344 10d7 22       		.uleb128 0x22
 2345 10d8 01       		.uleb128 0x1
 2346 10d9 50       		.byte	0x50
 2347 10da 05       		.uleb128 0x5
 2348 10db 03       		.byte	0x3
 2349 10dc 00000000 		.4byte	.LANCHOR2
 2350 10e0 00       		.byte	0
 2351 10e1 21       		.uleb128 0x21
 2352 10e2 5E000000 		.4byte	.LVL15
 2353 10e6 95120000 		.4byte	0x1295
 2354 10ea F8100000 		.4byte	0x10f8
 2355 10ee 22       		.uleb128 0x22
 2356 10ef 01       		.uleb128 0x1
 2357 10f0 50       		.byte	0x50
 2358 10f1 05       		.uleb128 0x5
 2359 10f2 0C       		.byte	0xc
 2360 10f3 00000E40 		.4byte	0x400e0000
 2361 10f7 00       		.byte	0
 2362 10f8 21       		.uleb128 0x21
 2363 10f9 80000000 		.4byte	.LVL20
 2364 10fd AC120000 		.4byte	0x12ac
 2365 1101 0F110000 		.4byte	0x110f
 2366 1105 22       		.uleb128 0x22
 2367 1106 01       		.uleb128 0x1
 2368 1107 51       		.byte	0x51
 2369 1108 05       		.uleb128 0x5
 2370 1109 03       		.byte	0x3
 2371 110a 00000000 		.4byte	.LC0
 2372 110e 00       		.byte	0
 2373 110f 21       		.uleb128 0x21
 2374 1110 8C000000 		.4byte	.LVL21
 2375 1114 AC120000 		.4byte	0x12ac
 2376 1118 26110000 		.4byte	0x1126
 2377 111c 22       		.uleb128 0x22
 2378 111d 01       		.uleb128 0x1
 2379 111e 51       		.byte	0x51
 2380 111f 05       		.uleb128 0x5
 2381 1120 03       		.byte	0x3
 2382 1121 08000000 		.4byte	.LC1
 2383 1125 00       		.byte	0
 2384 1126 23       		.uleb128 0x23
 2385 1127 94000000 		.4byte	.LVL22
 2386 112b B7110000 		.4byte	0x11b7
 2387 112f 22       		.uleb128 0x22
 2388 1130 01       		.uleb128 0x1
ARM GAS  /tmp/cc7zDYiP.s 			page 43


 2389 1131 50       		.byte	0x50
 2390 1132 03       		.uleb128 0x3
 2391 1133 0A       		.byte	0xa
 2392 1134 F401     		.2byte	0x1f4
 2393 1136 00       		.byte	0
 2394 1137 00       		.byte	0
 2395 1138 09       		.uleb128 0x9
 2396 1139 04       		.byte	0x4
 2397 113a B8000000 		.4byte	0xb8
 2398 113e 28       		.uleb128 0x28
 2399 113f E7090000 		.4byte	.LASF220
 2400 1143 01       		.byte	0x1
 2401 1144 16       		.byte	0x16
 2402 1145 070F0000 		.4byte	0xf07
 2403 1149 05       		.uleb128 0x5
 2404 114a 03       		.byte	0x3
 2405 114b 00000000 		.4byte	waThread1
 2406 114f 29       		.uleb128 0x29
 2407 1150 31060000 		.4byte	.LASF221
 2408 1154 13       		.byte	0x13
 2409 1155 CE06     		.2byte	0x6ce
 2410 1157 5B110000 		.4byte	0x115b
 2411 115b 0D       		.uleb128 0xd
 2412 115c 25000000 		.4byte	0x25
 2413 1160 2A       		.uleb128 0x2a
 2414 1161 53443200 		.ascii	"SD2\000"
 2415 1165 11       		.byte	0x11
 2416 1166 85       		.byte	0x85
 2417 1167 BF0D0000 		.4byte	0xdbf
 2418 116b 15       		.uleb128 0x15
 2419 116c 5F0F0000 		.4byte	0xf5f
 2420 1170 7B110000 		.4byte	0x117b
 2421 1174 16       		.uleb128 0x16
 2422 1175 38030000 		.4byte	0x338
 2423 1179 04       		.byte	0x4
 2424 117a 00       		.byte	0
 2425 117b 2B       		.uleb128 0x2b
 2426 117c 8B020000 		.4byte	.LASF222
 2427 1180 14       		.byte	0x14
 2428 1181 1A       		.byte	0x1a
 2429 1182 8C110000 		.4byte	0x118c
 2430 1186 05       		.uleb128 0x5
 2431 1187 03       		.byte	0x3
 2432 1188 00000000 		.4byte	pinPsram
 2433 118c 10       		.uleb128 0x10
 2434 118d 6B110000 		.4byte	0x116b
 2435 1191 15       		.uleb128 0x15
 2436 1192 5F0F0000 		.4byte	0xf5f
 2437 1196 A1110000 		.4byte	0x11a1
 2438 119a 16       		.uleb128 0x16
 2439 119b 38030000 		.4byte	0x338
 2440 119f 00       		.byte	0
 2441 11a0 00       		.byte	0
 2442 11a1 2B       		.uleb128 0x2b
 2443 11a2 CE060000 		.4byte	.LASF223
 2444 11a6 01       		.byte	0x1
 2445 11a7 13       		.byte	0x13
ARM GAS  /tmp/cc7zDYiP.s 			page 44


 2446 11a8 B2110000 		.4byte	0x11b2
 2447 11ac 05       		.uleb128 0x5
 2448 11ad 03       		.byte	0x3
 2449 11ae 00000000 		.4byte	pinPCK
 2450 11b2 10       		.uleb128 0x10
 2451 11b3 91110000 		.4byte	0x1191
 2452 11b7 2C       		.uleb128 0x2c
 2453 11b8 DD030000 		.4byte	.LASF226
 2454 11bc 08       		.byte	0x8
 2455 11bd 6901     		.2byte	0x169
 2456 11bf C9110000 		.4byte	0x11c9
 2457 11c3 12       		.uleb128 0x12
 2458 11c4 26010000 		.4byte	0x126
 2459 11c8 00       		.byte	0
 2460 11c9 2D       		.uleb128 0x2d
 2461 11ca 86050000 		.4byte	.LASF224
 2462 11ce 15       		.byte	0x15
 2463 11cf A4       		.byte	0xa4
 2464 11d0 2D       		.uleb128 0x2d
 2465 11d1 F8080000 		.4byte	.LASF225
 2466 11d5 16       		.byte	0x16
 2467 11d6 F6       		.byte	0xf6
 2468 11d7 2C       		.uleb128 0x2c
 2469 11d8 75050000 		.4byte	.LASF227
 2470 11dc 10       		.byte	0x10
 2471 11dd 3901     		.2byte	0x139
 2472 11df EE110000 		.4byte	0x11ee
 2473 11e3 12       		.uleb128 0x12
 2474 11e4 EE110000 		.4byte	0x11ee
 2475 11e8 12       		.uleb128 0x12
 2476 11e9 F4110000 		.4byte	0x11f4
 2477 11ed 00       		.byte	0
 2478 11ee 09       		.uleb128 0x9
 2479 11ef 04       		.byte	0x4
 2480 11f0 BF0D0000 		.4byte	0xdbf
 2481 11f4 09       		.uleb128 0x9
 2482 11f5 04       		.byte	0x4
 2483 11f6 FA110000 		.4byte	0x11fa
 2484 11fa 10       		.uleb128 0x10
 2485 11fb 620E0000 		.4byte	0xe62
 2486 11ff 2E       		.uleb128 0x2e
 2487 1200 1B000000 		.4byte	.LASF231
 2488 1204 12       		.byte	0x12
 2489 1205 DE       		.byte	0xde
 2490 1206 A2000000 		.4byte	0xa2
 2491 120a 19120000 		.4byte	0x1219
 2492 120e 12       		.uleb128 0x12
 2493 120f 19120000 		.4byte	0x1219
 2494 1213 12       		.uleb128 0x12
 2495 1214 B8000000 		.4byte	0xb8
 2496 1218 00       		.byte	0
 2497 1219 09       		.uleb128 0x9
 2498 121a 04       		.byte	0x4
 2499 121b 1F120000 		.4byte	0x121f
 2500 121f 10       		.uleb128 0x10
 2501 1220 5F0F0000 		.4byte	0xf5f
 2502 1224 2F       		.uleb128 0x2f
ARM GAS  /tmp/cc7zDYiP.s 			page 45


 2503 1225 FC000000 		.4byte	.LASF228
 2504 1229 17       		.byte	0x17
 2505 122a 39       		.byte	0x39
 2506 122b 3F120000 		.4byte	0x123f
 2507 122f 12       		.uleb128 0x12
 2508 1230 A2000000 		.4byte	0xa2
 2509 1234 12       		.uleb128 0x12
 2510 1235 B8000000 		.4byte	0xb8
 2511 1239 12       		.uleb128 0x12
 2512 123a B8000000 		.4byte	0xb8
 2513 123e 00       		.byte	0
 2514 123f 2F       		.uleb128 0x2f
 2515 1240 7B090000 		.4byte	.LASF229
 2516 1244 17       		.byte	0x17
 2517 1245 36       		.byte	0x36
 2518 1246 55120000 		.4byte	0x1255
 2519 124a 12       		.uleb128 0x12
 2520 124b B8000000 		.4byte	0xb8
 2521 124f 12       		.uleb128 0x12
 2522 1250 B8000000 		.4byte	0xb8
 2523 1254 00       		.byte	0
 2524 1255 2F       		.uleb128 0x2f
 2525 1256 1F050000 		.4byte	.LASF230
 2526 125a 17       		.byte	0x17
 2527 125b 37       		.byte	0x37
 2528 125c 6B120000 		.4byte	0x126b
 2529 1260 12       		.uleb128 0x12
 2530 1261 B8000000 		.4byte	0xb8
 2531 1265 12       		.uleb128 0x12
 2532 1266 B8000000 		.4byte	0xb8
 2533 126a 00       		.byte	0
 2534 126b 30       		.uleb128 0x30
 2535 126c CE050000 		.4byte	.LASF232
 2536 1270 08       		.byte	0x8
 2537 1271 6401     		.2byte	0x164
 2538 1273 4E020000 		.4byte	0x24e
 2539 1277 95120000 		.4byte	0x1295
 2540 127b 12       		.uleb128 0x12
 2541 127c 8A020000 		.4byte	0x28a
 2542 1280 12       		.uleb128 0x12
 2543 1281 2C000000 		.4byte	0x2c
 2544 1285 12       		.uleb128 0x12
 2545 1286 05010000 		.4byte	0x105
 2546 128a 12       		.uleb128 0x12
 2547 128b 39040000 		.4byte	0x439
 2548 128f 12       		.uleb128 0x12
 2549 1290 8A020000 		.4byte	0x28a
 2550 1294 00       		.byte	0
 2551 1295 2F       		.uleb128 0x2f
 2552 1296 1C060000 		.4byte	.LASF233
 2553 129a 14       		.byte	0x14
 2554 129b 23       		.byte	0x23
 2555 129c A6120000 		.4byte	0x12a6
 2556 12a0 12       		.uleb128 0x12
 2557 12a1 A6120000 		.4byte	0x12a6
 2558 12a5 00       		.byte	0
 2559 12a6 09       		.uleb128 0x9
ARM GAS  /tmp/cc7zDYiP.s 			page 46


 2560 12a7 04       		.byte	0x4
 2561 12a8 420C0000 		.4byte	0xc42
 2562 12ac 2F       		.uleb128 0x2f
 2563 12ad D4030000 		.4byte	.LASF234
 2564 12b1 18       		.byte	0x18
 2565 12b2 2A       		.byte	0x2a
 2566 12b3 C3120000 		.4byte	0x12c3
 2567 12b7 12       		.uleb128 0x12
 2568 12b8 C3120000 		.4byte	0x12c3
 2569 12bc 12       		.uleb128 0x12
 2570 12bd 21040000 		.4byte	0x421
 2571 12c1 31       		.uleb128 0x31
 2572 12c2 00       		.byte	0
 2573 12c3 09       		.uleb128 0x9
 2574 12c4 04       		.byte	0x4
 2575 12c5 6F060000 		.4byte	0x66f
 2576 12c9 00       		.byte	0
 2577              		.section	.debug_abbrev,"",%progbits
 2578              	.Ldebug_abbrev0:
 2579 0000 01       		.uleb128 0x1
 2580 0001 11       		.uleb128 0x11
 2581 0002 01       		.byte	0x1
 2582 0003 25       		.uleb128 0x25
 2583 0004 0E       		.uleb128 0xe
 2584 0005 13       		.uleb128 0x13
 2585 0006 0B       		.uleb128 0xb
 2586 0007 03       		.uleb128 0x3
 2587 0008 0E       		.uleb128 0xe
 2588 0009 1B       		.uleb128 0x1b
 2589 000a 0E       		.uleb128 0xe
 2590 000b 55       		.uleb128 0x55
 2591 000c 17       		.uleb128 0x17
 2592 000d 11       		.uleb128 0x11
 2593 000e 01       		.uleb128 0x1
 2594 000f 10       		.uleb128 0x10
 2595 0010 17       		.uleb128 0x17
 2596 0011 00       		.byte	0
 2597 0012 00       		.byte	0
 2598 0013 02       		.uleb128 0x2
 2599 0014 24       		.uleb128 0x24
 2600 0015 00       		.byte	0
 2601 0016 0B       		.uleb128 0xb
 2602 0017 0B       		.uleb128 0xb
 2603 0018 3E       		.uleb128 0x3e
 2604 0019 0B       		.uleb128 0xb
 2605 001a 03       		.uleb128 0x3
 2606 001b 08       		.uleb128 0x8
 2607 001c 00       		.byte	0
 2608 001d 00       		.byte	0
 2609 001e 03       		.uleb128 0x3
 2610 001f 16       		.uleb128 0x16
 2611 0020 00       		.byte	0
 2612 0021 03       		.uleb128 0x3
 2613 0022 0E       		.uleb128 0xe
 2614 0023 3A       		.uleb128 0x3a
 2615 0024 0B       		.uleb128 0xb
 2616 0025 3B       		.uleb128 0x3b
ARM GAS  /tmp/cc7zDYiP.s 			page 47


 2617 0026 0B       		.uleb128 0xb
 2618 0027 49       		.uleb128 0x49
 2619 0028 13       		.uleb128 0x13
 2620 0029 00       		.byte	0
 2621 002a 00       		.byte	0
 2622 002b 04       		.uleb128 0x4
 2623 002c 24       		.uleb128 0x24
 2624 002d 00       		.byte	0
 2625 002e 0B       		.uleb128 0xb
 2626 002f 0B       		.uleb128 0xb
 2627 0030 3E       		.uleb128 0x3e
 2628 0031 0B       		.uleb128 0xb
 2629 0032 03       		.uleb128 0x3
 2630 0033 0E       		.uleb128 0xe
 2631 0034 00       		.byte	0
 2632 0035 00       		.byte	0
 2633 0036 05       		.uleb128 0x5
 2634 0037 13       		.uleb128 0x13
 2635 0038 01       		.byte	0x1
 2636 0039 03       		.uleb128 0x3
 2637 003a 0E       		.uleb128 0xe
 2638 003b 0B       		.uleb128 0xb
 2639 003c 0B       		.uleb128 0xb
 2640 003d 3A       		.uleb128 0x3a
 2641 003e 0B       		.uleb128 0xb
 2642 003f 3B       		.uleb128 0x3b
 2643 0040 0B       		.uleb128 0xb
 2644 0041 01       		.uleb128 0x1
 2645 0042 13       		.uleb128 0x13
 2646 0043 00       		.byte	0
 2647 0044 00       		.byte	0
 2648 0045 06       		.uleb128 0x6
 2649 0046 0D       		.uleb128 0xd
 2650 0047 00       		.byte	0
 2651 0048 03       		.uleb128 0x3
 2652 0049 0E       		.uleb128 0xe
 2653 004a 3A       		.uleb128 0x3a
 2654 004b 0B       		.uleb128 0xb
 2655 004c 3B       		.uleb128 0x3b
 2656 004d 0B       		.uleb128 0xb
 2657 004e 49       		.uleb128 0x49
 2658 004f 13       		.uleb128 0x13
 2659 0050 38       		.uleb128 0x38
 2660 0051 0B       		.uleb128 0xb
 2661 0052 00       		.byte	0
 2662 0053 00       		.byte	0
 2663 0054 07       		.uleb128 0x7
 2664 0055 0D       		.uleb128 0xd
 2665 0056 00       		.byte	0
 2666 0057 03       		.uleb128 0x3
 2667 0058 08       		.uleb128 0x8
 2668 0059 3A       		.uleb128 0x3a
 2669 005a 0B       		.uleb128 0xb
 2670 005b 3B       		.uleb128 0x3b
 2671 005c 0B       		.uleb128 0xb
 2672 005d 49       		.uleb128 0x49
 2673 005e 13       		.uleb128 0x13
ARM GAS  /tmp/cc7zDYiP.s 			page 48


 2674 005f 38       		.uleb128 0x38
 2675 0060 0B       		.uleb128 0xb
 2676 0061 00       		.byte	0
 2677 0062 00       		.byte	0
 2678 0063 08       		.uleb128 0x8
 2679 0064 13       		.uleb128 0x13
 2680 0065 01       		.byte	0x1
 2681 0066 0B       		.uleb128 0xb
 2682 0067 0B       		.uleb128 0xb
 2683 0068 3A       		.uleb128 0x3a
 2684 0069 0B       		.uleb128 0xb
 2685 006a 3B       		.uleb128 0x3b
 2686 006b 0B       		.uleb128 0xb
 2687 006c 01       		.uleb128 0x1
 2688 006d 13       		.uleb128 0x13
 2689 006e 00       		.byte	0
 2690 006f 00       		.byte	0
 2691 0070 09       		.uleb128 0x9
 2692 0071 0F       		.uleb128 0xf
 2693 0072 00       		.byte	0
 2694 0073 0B       		.uleb128 0xb
 2695 0074 0B       		.uleb128 0xb
 2696 0075 49       		.uleb128 0x49
 2697 0076 13       		.uleb128 0x13
 2698 0077 00       		.byte	0
 2699 0078 00       		.byte	0
 2700 0079 0A       		.uleb128 0xa
 2701 007a 0F       		.uleb128 0xf
 2702 007b 00       		.byte	0
 2703 007c 0B       		.uleb128 0xb
 2704 007d 0B       		.uleb128 0xb
 2705 007e 00       		.byte	0
 2706 007f 00       		.byte	0
 2707 0080 0B       		.uleb128 0xb
 2708 0081 0D       		.uleb128 0xd
 2709 0082 00       		.byte	0
 2710 0083 03       		.uleb128 0x3
 2711 0084 08       		.uleb128 0x8
 2712 0085 3A       		.uleb128 0x3a
 2713 0086 0B       		.uleb128 0xb
 2714 0087 3B       		.uleb128 0x3b
 2715 0088 05       		.uleb128 0x5
 2716 0089 49       		.uleb128 0x49
 2717 008a 13       		.uleb128 0x13
 2718 008b 38       		.uleb128 0x38
 2719 008c 0B       		.uleb128 0xb
 2720 008d 00       		.byte	0
 2721 008e 00       		.byte	0
 2722 008f 0C       		.uleb128 0xc
 2723 0090 13       		.uleb128 0x13
 2724 0091 01       		.byte	0x1
 2725 0092 03       		.uleb128 0x3
 2726 0093 0E       		.uleb128 0xe
 2727 0094 0B       		.uleb128 0xb
 2728 0095 0B       		.uleb128 0xb
 2729 0096 3A       		.uleb128 0x3a
 2730 0097 0B       		.uleb128 0xb
ARM GAS  /tmp/cc7zDYiP.s 			page 49


 2731 0098 3B       		.uleb128 0x3b
 2732 0099 05       		.uleb128 0x5
 2733 009a 01       		.uleb128 0x1
 2734 009b 13       		.uleb128 0x13
 2735 009c 00       		.byte	0
 2736 009d 00       		.byte	0
 2737 009e 0D       		.uleb128 0xd
 2738 009f 35       		.uleb128 0x35
 2739 00a0 00       		.byte	0
 2740 00a1 49       		.uleb128 0x49
 2741 00a2 13       		.uleb128 0x13
 2742 00a3 00       		.byte	0
 2743 00a4 00       		.byte	0
 2744 00a5 0E       		.uleb128 0xe
 2745 00a6 17       		.uleb128 0x17
 2746 00a7 01       		.byte	0x1
 2747 00a8 0B       		.uleb128 0xb
 2748 00a9 0B       		.uleb128 0xb
 2749 00aa 3A       		.uleb128 0x3a
 2750 00ab 0B       		.uleb128 0xb
 2751 00ac 3B       		.uleb128 0x3b
 2752 00ad 0B       		.uleb128 0xb
 2753 00ae 01       		.uleb128 0x1
 2754 00af 13       		.uleb128 0x13
 2755 00b0 00       		.byte	0
 2756 00b1 00       		.byte	0
 2757 00b2 0F       		.uleb128 0xf
 2758 00b3 0D       		.uleb128 0xd
 2759 00b4 00       		.byte	0
 2760 00b5 03       		.uleb128 0x3
 2761 00b6 0E       		.uleb128 0xe
 2762 00b7 3A       		.uleb128 0x3a
 2763 00b8 0B       		.uleb128 0xb
 2764 00b9 3B       		.uleb128 0x3b
 2765 00ba 0B       		.uleb128 0xb
 2766 00bb 49       		.uleb128 0x49
 2767 00bc 13       		.uleb128 0x13
 2768 00bd 00       		.byte	0
 2769 00be 00       		.byte	0
 2770 00bf 10       		.uleb128 0x10
 2771 00c0 26       		.uleb128 0x26
 2772 00c1 00       		.byte	0
 2773 00c2 49       		.uleb128 0x49
 2774 00c3 13       		.uleb128 0x13
 2775 00c4 00       		.byte	0
 2776 00c5 00       		.byte	0
 2777 00c6 11       		.uleb128 0x11
 2778 00c7 15       		.uleb128 0x15
 2779 00c8 01       		.byte	0x1
 2780 00c9 27       		.uleb128 0x27
 2781 00ca 19       		.uleb128 0x19
 2782 00cb 49       		.uleb128 0x49
 2783 00cc 13       		.uleb128 0x13
 2784 00cd 01       		.uleb128 0x1
 2785 00ce 13       		.uleb128 0x13
 2786 00cf 00       		.byte	0
 2787 00d0 00       		.byte	0
ARM GAS  /tmp/cc7zDYiP.s 			page 50


 2788 00d1 12       		.uleb128 0x12
 2789 00d2 05       		.uleb128 0x5
 2790 00d3 00       		.byte	0
 2791 00d4 49       		.uleb128 0x49
 2792 00d5 13       		.uleb128 0x13
 2793 00d6 00       		.byte	0
 2794 00d7 00       		.byte	0
 2795 00d8 13       		.uleb128 0x13
 2796 00d9 15       		.uleb128 0x15
 2797 00da 01       		.byte	0x1
 2798 00db 27       		.uleb128 0x27
 2799 00dc 19       		.uleb128 0x19
 2800 00dd 01       		.uleb128 0x1
 2801 00de 13       		.uleb128 0x13
 2802 00df 00       		.byte	0
 2803 00e0 00       		.byte	0
 2804 00e1 14       		.uleb128 0x14
 2805 00e2 16       		.uleb128 0x16
 2806 00e3 00       		.byte	0
 2807 00e4 03       		.uleb128 0x3
 2808 00e5 0E       		.uleb128 0xe
 2809 00e6 3A       		.uleb128 0x3a
 2810 00e7 0B       		.uleb128 0xb
 2811 00e8 3B       		.uleb128 0x3b
 2812 00e9 05       		.uleb128 0x5
 2813 00ea 49       		.uleb128 0x49
 2814 00eb 13       		.uleb128 0x13
 2815 00ec 00       		.byte	0
 2816 00ed 00       		.byte	0
 2817 00ee 15       		.uleb128 0x15
 2818 00ef 01       		.uleb128 0x1
 2819 00f0 01       		.byte	0x1
 2820 00f1 49       		.uleb128 0x49
 2821 00f2 13       		.uleb128 0x13
 2822 00f3 01       		.uleb128 0x1
 2823 00f4 13       		.uleb128 0x13
 2824 00f5 00       		.byte	0
 2825 00f6 00       		.byte	0
 2826 00f7 16       		.uleb128 0x16
 2827 00f8 21       		.uleb128 0x21
 2828 00f9 00       		.byte	0
 2829 00fa 49       		.uleb128 0x49
 2830 00fb 13       		.uleb128 0x13
 2831 00fc 2F       		.uleb128 0x2f
 2832 00fd 0B       		.uleb128 0xb
 2833 00fe 00       		.byte	0
 2834 00ff 00       		.byte	0
 2835 0100 17       		.uleb128 0x17
 2836 0101 13       		.uleb128 0x13
 2837 0102 01       		.byte	0x1
 2838 0103 0B       		.uleb128 0xb
 2839 0104 05       		.uleb128 0x5
 2840 0105 3A       		.uleb128 0x3a
 2841 0106 0B       		.uleb128 0xb
 2842 0107 3B       		.uleb128 0x3b
 2843 0108 05       		.uleb128 0x5
 2844 0109 01       		.uleb128 0x1
ARM GAS  /tmp/cc7zDYiP.s 			page 51


 2845 010a 13       		.uleb128 0x13
 2846 010b 00       		.byte	0
 2847 010c 00       		.byte	0
 2848 010d 18       		.uleb128 0x18
 2849 010e 0D       		.uleb128 0xd
 2850 010f 00       		.byte	0
 2851 0110 03       		.uleb128 0x3
 2852 0111 0E       		.uleb128 0xe
 2853 0112 3A       		.uleb128 0x3a
 2854 0113 0B       		.uleb128 0xb
 2855 0114 3B       		.uleb128 0x3b
 2856 0115 05       		.uleb128 0x5
 2857 0116 49       		.uleb128 0x49
 2858 0117 13       		.uleb128 0x13
 2859 0118 38       		.uleb128 0x38
 2860 0119 0B       		.uleb128 0xb
 2861 011a 00       		.byte	0
 2862 011b 00       		.byte	0
 2863 011c 19       		.uleb128 0x19
 2864 011d 0D       		.uleb128 0xd
 2865 011e 00       		.byte	0
 2866 011f 03       		.uleb128 0x3
 2867 0120 0E       		.uleb128 0xe
 2868 0121 3A       		.uleb128 0x3a
 2869 0122 0B       		.uleb128 0xb
 2870 0123 3B       		.uleb128 0x3b
 2871 0124 05       		.uleb128 0x5
 2872 0125 49       		.uleb128 0x49
 2873 0126 13       		.uleb128 0x13
 2874 0127 38       		.uleb128 0x38
 2875 0128 05       		.uleb128 0x5
 2876 0129 00       		.byte	0
 2877 012a 00       		.byte	0
 2878 012b 1A       		.uleb128 0x1a
 2879 012c 16       		.uleb128 0x16
 2880 012d 00       		.byte	0
 2881 012e 03       		.uleb128 0x3
 2882 012f 08       		.uleb128 0x8
 2883 0130 3A       		.uleb128 0x3a
 2884 0131 0B       		.uleb128 0xb
 2885 0132 3B       		.uleb128 0x3b
 2886 0133 05       		.uleb128 0x5
 2887 0134 49       		.uleb128 0x49
 2888 0135 13       		.uleb128 0x13
 2889 0136 00       		.byte	0
 2890 0137 00       		.byte	0
 2891 0138 1B       		.uleb128 0x1b
 2892 0139 13       		.uleb128 0x13
 2893 013a 01       		.byte	0x1
 2894 013b 0B       		.uleb128 0xb
 2895 013c 0B       		.uleb128 0xb
 2896 013d 3A       		.uleb128 0x3a
 2897 013e 0B       		.uleb128 0xb
 2898 013f 3B       		.uleb128 0x3b
 2899 0140 05       		.uleb128 0x5
 2900 0141 01       		.uleb128 0x1
 2901 0142 13       		.uleb128 0x13
ARM GAS  /tmp/cc7zDYiP.s 			page 52


 2902 0143 00       		.byte	0
 2903 0144 00       		.byte	0
 2904 0145 1C       		.uleb128 0x1c
 2905 0146 04       		.uleb128 0x4
 2906 0147 01       		.byte	0x1
 2907 0148 0B       		.uleb128 0xb
 2908 0149 0B       		.uleb128 0xb
 2909 014a 3A       		.uleb128 0x3a
 2910 014b 0B       		.uleb128 0xb
 2911 014c 3B       		.uleb128 0x3b
 2912 014d 0B       		.uleb128 0xb
 2913 014e 01       		.uleb128 0x1
 2914 014f 13       		.uleb128 0x13
 2915 0150 00       		.byte	0
 2916 0151 00       		.byte	0
 2917 0152 1D       		.uleb128 0x1d
 2918 0153 28       		.uleb128 0x28
 2919 0154 00       		.byte	0
 2920 0155 03       		.uleb128 0x3
 2921 0156 0E       		.uleb128 0xe
 2922 0157 1C       		.uleb128 0x1c
 2923 0158 0D       		.uleb128 0xd
 2924 0159 00       		.byte	0
 2925 015a 00       		.byte	0
 2926 015b 1E       		.uleb128 0x1e
 2927 015c 16       		.uleb128 0x16
 2928 015d 00       		.byte	0
 2929 015e 03       		.uleb128 0x3
 2930 015f 08       		.uleb128 0x8
 2931 0160 3A       		.uleb128 0x3a
 2932 0161 0B       		.uleb128 0xb
 2933 0162 3B       		.uleb128 0x3b
 2934 0163 0B       		.uleb128 0xb
 2935 0164 49       		.uleb128 0x49
 2936 0165 13       		.uleb128 0x13
 2937 0166 00       		.byte	0
 2938 0167 00       		.byte	0
 2939 0168 1F       		.uleb128 0x1f
 2940 0169 2E       		.uleb128 0x2e
 2941 016a 01       		.byte	0x1
 2942 016b 03       		.uleb128 0x3
 2943 016c 0E       		.uleb128 0xe
 2944 016d 3A       		.uleb128 0x3a
 2945 016e 0B       		.uleb128 0xb
 2946 016f 3B       		.uleb128 0x3b
 2947 0170 0B       		.uleb128 0xb
 2948 0171 27       		.uleb128 0x27
 2949 0172 19       		.uleb128 0x19
 2950 0173 49       		.uleb128 0x49
 2951 0174 13       		.uleb128 0x13
 2952 0175 11       		.uleb128 0x11
 2953 0176 01       		.uleb128 0x1
 2954 0177 12       		.uleb128 0x12
 2955 0178 06       		.uleb128 0x6
 2956 0179 40       		.uleb128 0x40
 2957 017a 18       		.uleb128 0x18
 2958 017b 9742     		.uleb128 0x2117
ARM GAS  /tmp/cc7zDYiP.s 			page 53


 2959 017d 19       		.uleb128 0x19
 2960 017e 01       		.uleb128 0x1
 2961 017f 13       		.uleb128 0x13
 2962 0180 00       		.byte	0
 2963 0181 00       		.byte	0
 2964 0182 20       		.uleb128 0x20
 2965 0183 05       		.uleb128 0x5
 2966 0184 00       		.byte	0
 2967 0185 03       		.uleb128 0x3
 2968 0186 08       		.uleb128 0x8
 2969 0187 3A       		.uleb128 0x3a
 2970 0188 0B       		.uleb128 0xb
 2971 0189 3B       		.uleb128 0x3b
 2972 018a 0B       		.uleb128 0xb
 2973 018b 49       		.uleb128 0x49
 2974 018c 13       		.uleb128 0x13
 2975 018d 02       		.uleb128 0x2
 2976 018e 17       		.uleb128 0x17
 2977 018f 00       		.byte	0
 2978 0190 00       		.byte	0
 2979 0191 21       		.uleb128 0x21
 2980 0192 898201   		.uleb128 0x4109
 2981 0195 01       		.byte	0x1
 2982 0196 11       		.uleb128 0x11
 2983 0197 01       		.uleb128 0x1
 2984 0198 31       		.uleb128 0x31
 2985 0199 13       		.uleb128 0x13
 2986 019a 01       		.uleb128 0x1
 2987 019b 13       		.uleb128 0x13
 2988 019c 00       		.byte	0
 2989 019d 00       		.byte	0
 2990 019e 22       		.uleb128 0x22
 2991 019f 8A8201   		.uleb128 0x410a
 2992 01a2 00       		.byte	0
 2993 01a3 02       		.uleb128 0x2
 2994 01a4 18       		.uleb128 0x18
 2995 01a5 9142     		.uleb128 0x2111
 2996 01a7 18       		.uleb128 0x18
 2997 01a8 00       		.byte	0
 2998 01a9 00       		.byte	0
 2999 01aa 23       		.uleb128 0x23
 3000 01ab 898201   		.uleb128 0x4109
 3001 01ae 01       		.byte	0x1
 3002 01af 11       		.uleb128 0x11
 3003 01b0 01       		.uleb128 0x1
 3004 01b1 31       		.uleb128 0x31
 3005 01b2 13       		.uleb128 0x13
 3006 01b3 00       		.byte	0
 3007 01b4 00       		.byte	0
 3008 01b5 24       		.uleb128 0x24
 3009 01b6 2E       		.uleb128 0x2e
 3010 01b7 01       		.byte	0x1
 3011 01b8 3F       		.uleb128 0x3f
 3012 01b9 19       		.uleb128 0x19
 3013 01ba 03       		.uleb128 0x3
 3014 01bb 0E       		.uleb128 0xe
 3015 01bc 3A       		.uleb128 0x3a
ARM GAS  /tmp/cc7zDYiP.s 			page 54


 3016 01bd 0B       		.uleb128 0xb
 3017 01be 3B       		.uleb128 0x3b
 3018 01bf 0B       		.uleb128 0xb
 3019 01c0 27       		.uleb128 0x27
 3020 01c1 19       		.uleb128 0x19
 3021 01c2 49       		.uleb128 0x49
 3022 01c3 13       		.uleb128 0x13
 3023 01c4 11       		.uleb128 0x11
 3024 01c5 01       		.uleb128 0x1
 3025 01c6 12       		.uleb128 0x12
 3026 01c7 06       		.uleb128 0x6
 3027 01c8 40       		.uleb128 0x40
 3028 01c9 18       		.uleb128 0x18
 3029 01ca 9742     		.uleb128 0x2117
 3030 01cc 19       		.uleb128 0x19
 3031 01cd 01       		.uleb128 0x1
 3032 01ce 13       		.uleb128 0x13
 3033 01cf 00       		.byte	0
 3034 01d0 00       		.byte	0
 3035 01d1 25       		.uleb128 0x25
 3036 01d2 34       		.uleb128 0x34
 3037 01d3 00       		.byte	0
 3038 01d4 03       		.uleb128 0x3
 3039 01d5 08       		.uleb128 0x8
 3040 01d6 3A       		.uleb128 0x3a
 3041 01d7 0B       		.uleb128 0xb
 3042 01d8 3B       		.uleb128 0x3b
 3043 01d9 0B       		.uleb128 0xb
 3044 01da 49       		.uleb128 0x49
 3045 01db 13       		.uleb128 0x13
 3046 01dc 02       		.uleb128 0x2
 3047 01dd 17       		.uleb128 0x17
 3048 01de 00       		.byte	0
 3049 01df 00       		.byte	0
 3050 01e0 26       		.uleb128 0x26
 3051 01e1 34       		.uleb128 0x34
 3052 01e2 00       		.byte	0
 3053 01e3 03       		.uleb128 0x3
 3054 01e4 08       		.uleb128 0x8
 3055 01e5 3A       		.uleb128 0x3a
 3056 01e6 0B       		.uleb128 0xb
 3057 01e7 3B       		.uleb128 0x3b
 3058 01e8 0B       		.uleb128 0xb
 3059 01e9 49       		.uleb128 0x49
 3060 01ea 13       		.uleb128 0x13
 3061 01eb 1C       		.uleb128 0x1c
 3062 01ec 06       		.uleb128 0x6
 3063 01ed 00       		.byte	0
 3064 01ee 00       		.byte	0
 3065 01ef 27       		.uleb128 0x27
 3066 01f0 898201   		.uleb128 0x4109
 3067 01f3 00       		.byte	0
 3068 01f4 11       		.uleb128 0x11
 3069 01f5 01       		.uleb128 0x1
 3070 01f6 31       		.uleb128 0x31
 3071 01f7 13       		.uleb128 0x13
 3072 01f8 00       		.byte	0
ARM GAS  /tmp/cc7zDYiP.s 			page 55


 3073 01f9 00       		.byte	0
 3074 01fa 28       		.uleb128 0x28
 3075 01fb 34       		.uleb128 0x34
 3076 01fc 00       		.byte	0
 3077 01fd 03       		.uleb128 0x3
 3078 01fe 0E       		.uleb128 0xe
 3079 01ff 3A       		.uleb128 0x3a
 3080 0200 0B       		.uleb128 0xb
 3081 0201 3B       		.uleb128 0x3b
 3082 0202 0B       		.uleb128 0xb
 3083 0203 49       		.uleb128 0x49
 3084 0204 13       		.uleb128 0x13
 3085 0205 02       		.uleb128 0x2
 3086 0206 18       		.uleb128 0x18
 3087 0207 00       		.byte	0
 3088 0208 00       		.byte	0
 3089 0209 29       		.uleb128 0x29
 3090 020a 34       		.uleb128 0x34
 3091 020b 00       		.byte	0
 3092 020c 03       		.uleb128 0x3
 3093 020d 0E       		.uleb128 0xe
 3094 020e 3A       		.uleb128 0x3a
 3095 020f 0B       		.uleb128 0xb
 3096 0210 3B       		.uleb128 0x3b
 3097 0211 05       		.uleb128 0x5
 3098 0212 49       		.uleb128 0x49
 3099 0213 13       		.uleb128 0x13
 3100 0214 3F       		.uleb128 0x3f
 3101 0215 19       		.uleb128 0x19
 3102 0216 3C       		.uleb128 0x3c
 3103 0217 19       		.uleb128 0x19
 3104 0218 00       		.byte	0
 3105 0219 00       		.byte	0
 3106 021a 2A       		.uleb128 0x2a
 3107 021b 34       		.uleb128 0x34
 3108 021c 00       		.byte	0
 3109 021d 03       		.uleb128 0x3
 3110 021e 08       		.uleb128 0x8
 3111 021f 3A       		.uleb128 0x3a
 3112 0220 0B       		.uleb128 0xb
 3113 0221 3B       		.uleb128 0x3b
 3114 0222 0B       		.uleb128 0xb
 3115 0223 49       		.uleb128 0x49
 3116 0224 13       		.uleb128 0x13
 3117 0225 3F       		.uleb128 0x3f
 3118 0226 19       		.uleb128 0x19
 3119 0227 3C       		.uleb128 0x3c
 3120 0228 19       		.uleb128 0x19
 3121 0229 00       		.byte	0
 3122 022a 00       		.byte	0
 3123 022b 2B       		.uleb128 0x2b
 3124 022c 34       		.uleb128 0x34
 3125 022d 00       		.byte	0
 3126 022e 03       		.uleb128 0x3
 3127 022f 0E       		.uleb128 0xe
 3128 0230 3A       		.uleb128 0x3a
 3129 0231 0B       		.uleb128 0xb
ARM GAS  /tmp/cc7zDYiP.s 			page 56


 3130 0232 3B       		.uleb128 0x3b
 3131 0233 0B       		.uleb128 0xb
 3132 0234 49       		.uleb128 0x49
 3133 0235 13       		.uleb128 0x13
 3134 0236 3F       		.uleb128 0x3f
 3135 0237 19       		.uleb128 0x19
 3136 0238 02       		.uleb128 0x2
 3137 0239 18       		.uleb128 0x18
 3138 023a 00       		.byte	0
 3139 023b 00       		.byte	0
 3140 023c 2C       		.uleb128 0x2c
 3141 023d 2E       		.uleb128 0x2e
 3142 023e 01       		.byte	0x1
 3143 023f 3F       		.uleb128 0x3f
 3144 0240 19       		.uleb128 0x19
 3145 0241 03       		.uleb128 0x3
 3146 0242 0E       		.uleb128 0xe
 3147 0243 3A       		.uleb128 0x3a
 3148 0244 0B       		.uleb128 0xb
 3149 0245 3B       		.uleb128 0x3b
 3150 0246 05       		.uleb128 0x5
 3151 0247 27       		.uleb128 0x27
 3152 0248 19       		.uleb128 0x19
 3153 0249 3C       		.uleb128 0x3c
 3154 024a 19       		.uleb128 0x19
 3155 024b 01       		.uleb128 0x1
 3156 024c 13       		.uleb128 0x13
 3157 024d 00       		.byte	0
 3158 024e 00       		.byte	0
 3159 024f 2D       		.uleb128 0x2d
 3160 0250 2E       		.uleb128 0x2e
 3161 0251 00       		.byte	0
 3162 0252 3F       		.uleb128 0x3f
 3163 0253 19       		.uleb128 0x19
 3164 0254 03       		.uleb128 0x3
 3165 0255 0E       		.uleb128 0xe
 3166 0256 3A       		.uleb128 0x3a
 3167 0257 0B       		.uleb128 0xb
 3168 0258 3B       		.uleb128 0x3b
 3169 0259 0B       		.uleb128 0xb
 3170 025a 27       		.uleb128 0x27
 3171 025b 19       		.uleb128 0x19
 3172 025c 3C       		.uleb128 0x3c
 3173 025d 19       		.uleb128 0x19
 3174 025e 00       		.byte	0
 3175 025f 00       		.byte	0
 3176 0260 2E       		.uleb128 0x2e
 3177 0261 2E       		.uleb128 0x2e
 3178 0262 01       		.byte	0x1
 3179 0263 3F       		.uleb128 0x3f
 3180 0264 19       		.uleb128 0x19
 3181 0265 03       		.uleb128 0x3
 3182 0266 0E       		.uleb128 0xe
 3183 0267 3A       		.uleb128 0x3a
 3184 0268 0B       		.uleb128 0xb
 3185 0269 3B       		.uleb128 0x3b
 3186 026a 0B       		.uleb128 0xb
ARM GAS  /tmp/cc7zDYiP.s 			page 57


 3187 026b 27       		.uleb128 0x27
 3188 026c 19       		.uleb128 0x19
 3189 026d 49       		.uleb128 0x49
 3190 026e 13       		.uleb128 0x13
 3191 026f 3C       		.uleb128 0x3c
 3192 0270 19       		.uleb128 0x19
 3193 0271 01       		.uleb128 0x1
 3194 0272 13       		.uleb128 0x13
 3195 0273 00       		.byte	0
 3196 0274 00       		.byte	0
 3197 0275 2F       		.uleb128 0x2f
 3198 0276 2E       		.uleb128 0x2e
 3199 0277 01       		.byte	0x1
 3200 0278 3F       		.uleb128 0x3f
 3201 0279 19       		.uleb128 0x19
 3202 027a 03       		.uleb128 0x3
 3203 027b 0E       		.uleb128 0xe
 3204 027c 3A       		.uleb128 0x3a
 3205 027d 0B       		.uleb128 0xb
 3206 027e 3B       		.uleb128 0x3b
 3207 027f 0B       		.uleb128 0xb
 3208 0280 27       		.uleb128 0x27
 3209 0281 19       		.uleb128 0x19
 3210 0282 3C       		.uleb128 0x3c
 3211 0283 19       		.uleb128 0x19
 3212 0284 01       		.uleb128 0x1
 3213 0285 13       		.uleb128 0x13
 3214 0286 00       		.byte	0
 3215 0287 00       		.byte	0
 3216 0288 30       		.uleb128 0x30
 3217 0289 2E       		.uleb128 0x2e
 3218 028a 01       		.byte	0x1
 3219 028b 3F       		.uleb128 0x3f
 3220 028c 19       		.uleb128 0x19
 3221 028d 03       		.uleb128 0x3
 3222 028e 0E       		.uleb128 0xe
 3223 028f 3A       		.uleb128 0x3a
 3224 0290 0B       		.uleb128 0xb
 3225 0291 3B       		.uleb128 0x3b
 3226 0292 05       		.uleb128 0x5
 3227 0293 27       		.uleb128 0x27
 3228 0294 19       		.uleb128 0x19
 3229 0295 49       		.uleb128 0x49
 3230 0296 13       		.uleb128 0x13
 3231 0297 3C       		.uleb128 0x3c
 3232 0298 19       		.uleb128 0x19
 3233 0299 01       		.uleb128 0x1
 3234 029a 13       		.uleb128 0x13
 3235 029b 00       		.byte	0
 3236 029c 00       		.byte	0
 3237 029d 31       		.uleb128 0x31
 3238 029e 18       		.uleb128 0x18
 3239 029f 00       		.byte	0
 3240 02a0 00       		.byte	0
 3241 02a1 00       		.byte	0
 3242 02a2 00       		.byte	0
 3243              		.section	.debug_loc,"",%progbits
ARM GAS  /tmp/cc7zDYiP.s 			page 58


 3244              	.Ldebug_loc0:
 3245              	.LLST0:
 3246 0000 00000000 		.4byte	.LVL0
 3247 0004 0A000000 		.4byte	.LVL1
 3248 0008 0100     		.2byte	0x1
 3249 000a 50       		.byte	0x50
 3250 000b 0A000000 		.4byte	.LVL1
 3251 000f 20000000 		.4byte	.LFE36
 3252 0013 0400     		.2byte	0x4
 3253 0015 F3       		.byte	0xf3
 3254 0016 01       		.uleb128 0x1
 3255 0017 50       		.byte	0x50
 3256 0018 9F       		.byte	0x9f
 3257 0019 00000000 		.4byte	0
 3258 001d 00000000 		.4byte	0
 3259              	.LLST1:
 3260 0021 60000000 		.4byte	.LVL16
 3261 0025 64000000 		.4byte	.LVL17
 3262 0029 0200     		.2byte	0x2
 3263 002b 30       		.byte	0x30
 3264 002c 9F       		.byte	0x9f
 3265 002d 64000000 		.4byte	.LVL17
 3266 0031 72000000 		.4byte	.LVL19
 3267 0035 0100     		.2byte	0x1
 3268 0037 53       		.byte	0x53
 3269 0038 00000000 		.4byte	0
 3270 003c 00000000 		.4byte	0
 3271              		.section	.debug_aranges,"",%progbits
 3272 0000 24000000 		.4byte	0x24
 3273 0004 0200     		.2byte	0x2
 3274 0006 00000000 		.4byte	.Ldebug_info0
 3275 000a 04       		.byte	0x4
 3276 000b 00       		.byte	0
 3277 000c 0000     		.2byte	0
 3278 000e 0000     		.2byte	0
 3279 0010 00000000 		.4byte	.LFB36
 3280 0014 20000000 		.4byte	.LFE36-.LFB36
 3281 0018 00000000 		.4byte	.LFB37
 3282 001c C0000000 		.4byte	.LFE37-.LFB37
 3283 0020 00000000 		.4byte	0
 3284 0024 00000000 		.4byte	0
 3285              		.section	.debug_ranges,"",%progbits
 3286              	.Ldebug_ranges0:
 3287 0000 00000000 		.4byte	.LFB36
 3288 0004 20000000 		.4byte	.LFE36
 3289 0008 00000000 		.4byte	.LFB37
 3290 000c C0000000 		.4byte	.LFE37
 3291 0010 00000000 		.4byte	0
 3292 0014 00000000 		.4byte	0
 3293              		.section	.debug_line,"",%progbits
 3294              	.Ldebug_line0:
 3295 0000 F6030000 		.section	.debug_str,"MS",%progbits,1
 3295      02008903 
 3295      00000201 
 3295      FB0E0D00 
 3295      01010101 
 3296              	.LASF178:
ARM GAS  /tmp/cc7zDYiP.s 			page 59


 3297 0000 534D435F 		.ascii	"SMC_WPSR\000"
 3297      57505352 
 3297      00
 3298              	.LASF124:
 3299 0009 50494F5F 		.ascii	"PIO_IFSCSR\000"
 3299      49465343 
 3299      535200
 3300              	.LASF2:
 3301 0014 73697A65 		.ascii	"size_t\000"
 3301      5F7400
 3302              	.LASF231:
 3303 001b 50494F5F 		.ascii	"PIO_Configure\000"
 3303      436F6E66 
 3303      69677572 
 3303      6500
 3304              	.LASF52:
 3305 0029 73697A65 		.ascii	"sizetype\000"
 3305      74797065 
 3305      00
 3306              	.LASF26:
 3307 0032 73797374 		.ascii	"systime_t\000"
 3307      696D655F 
 3307      7400
 3308              	.LASF31:
 3309 003c 705F6374 		.ascii	"p_ctx\000"
 3309      7800
 3310              	.LASF23:
 3311 0042 74707269 		.ascii	"tprio_t\000"
 3311      6F5F7400 
 3312              	.LASF40:
 3313 004a 705F6D73 		.ascii	"p_msgqueue\000"
 3313      67717565 
 3313      756500
 3314              	.LASF15:
 3315 0055 696E7433 		.ascii	"int32_t\000"
 3315      325F7400 
 3316              	.LASF213:
 3317 005d 53657269 		.ascii	"SerialConfig\000"
 3317      616C436F 
 3317      6E666967 
 3317      00
 3318              	.LASF85:
 3319 006a 77726974 		.ascii	"writet\000"
 3319      657400
 3320              	.LASF136:
 3321 0071 50494F5F 		.ascii	"PIO_AIMMR\000"
 3321      41494D4D 
 3321      5200
 3322              	.LASF182:
 3323 007b 55415254 		.ascii	"UART_IDR\000"
 3323      5F494452 
 3323      00
 3324              	.LASF90:
 3325 0084 576F5265 		.ascii	"WoReg\000"
 3325      6700
 3326              	.LASF147:
 3327 008a 50494F5F 		.ascii	"PIO_WPMR\000"
ARM GAS  /tmp/cc7zDYiP.s 			page 60


 3327      57504D52 
 3327      00
 3328              	.LASF81:
 3329 0093 77726974 		.ascii	"write\000"
 3329      6500
 3330              	.LASF212:
 3331 0099 73635F6D 		.ascii	"sc_mr\000"
 3331      7200
 3332              	.LASF184:
 3333 009f 55415254 		.ascii	"UART_SR\000"
 3333      5F535200 
 3334              	.LASF156:
 3335 00a7 50494F5F 		.ascii	"PIO_PCISR\000"
 3335      50434953 
 3335      5200
 3336              	.LASF181:
 3337 00b1 55415254 		.ascii	"UART_IER\000"
 3337      5F494552 
 3337      00
 3338              	.LASF133:
 3339 00ba 52657365 		.ascii	"Reserved8\000"
 3339      72766564 
 3339      3800
 3340              	.LASF218:
 3341 00c4 74797065 		.ascii	"type\000"
 3341      00
 3342              	.LASF160:
 3343 00c9 50494F5F 		.ascii	"PIO_TPR\000"
 3343      54505200 
 3344              	.LASF196:
 3345 00d1 55415254 		.ascii	"UART_PTCR\000"
 3345      5F505443 
 3345      5200
 3346              	.LASF55:
 3347 00db 6D5F6F77 		.ascii	"m_owner\000"
 3347      6E657200 
 3348              	.LASF64:
 3349 00e3 65786974 		.ascii	"exitcode\000"
 3349      636F6465 
 3349      00
 3350              	.LASF3:
 3351 00ec 5F5F7569 		.ascii	"__uint8_t\000"
 3351      6E74385F 
 3351      7400
 3352              	.LASF73:
 3353 00f6 715F746F 		.ascii	"q_top\000"
 3353      7000
 3354              	.LASF228:
 3355 00fc 506D6343 		.ascii	"PmcConfigurePllClock\000"
 3355      6F6E6669 
 3355      67757265 
 3355      506C6C43 
 3355      6C6F636B 
 3356              	.LASF131:
 3357 0111 50494F5F 		.ascii	"PIO_OWDR\000"
 3357      4F574452 
 3357      00
ARM GAS  /tmp/cc7zDYiP.s 			page 61


 3358              	.LASF86:
 3359 011a 72656164 		.ascii	"readt\000"
 3359      7400
 3360              	.LASF72:
 3361 0120 715F6275 		.ascii	"q_buffer\000"
 3361      66666572 
 3361      00
 3362              	.LASF76:
 3363 0129 715F6E6F 		.ascii	"q_notify\000"
 3363      74696679 
 3363      00
 3364              	.LASF174:
 3365 0132 534D435F 		.ascii	"SMC_OCMS\000"
 3365      4F434D53 
 3365      00
 3366              	.LASF126:
 3367 013b 50494F5F 		.ascii	"PIO_PPDDR\000"
 3367      50504444 
 3367      5200
 3368              	.LASF32:
 3369 0145 705F6E65 		.ascii	"p_newer\000"
 3369      77657200 
 3370              	.LASF8:
 3371 014d 6C6F6E67 		.ascii	"long int\000"
 3371      20696E74 
 3371      00
 3372              	.LASF28:
 3373 0156 705F6E65 		.ascii	"p_next\000"
 3373      787400
 3374              	.LASF75:
 3375 015d 715F7264 		.ascii	"q_rdptr\000"
 3375      70747200 
 3376              	.LASF29:
 3377 0165 705F7072 		.ascii	"p_prev\000"
 3377      657600
 3378              	.LASF130:
 3379 016c 50494F5F 		.ascii	"PIO_OWER\000"
 3379      4F574552 
 3379      00
 3380              	.LASF102:
 3381 0175 50494F5F 		.ascii	"PIO_IFSR\000"
 3381      49465352 
 3381      00
 3382              	.LASF120:
 3383 017e 50494F5F 		.ascii	"PIO_ABCDSR\000"
 3383      41424344 
 3383      535200
 3384              	.LASF21:
 3385 0189 74737461 		.ascii	"tstate_t\000"
 3385      74655F74 
 3385      00
 3386              	.LASF239:
 3387 0192 6D61696E 		.ascii	"main\000"
 3387      00
 3388              	.LASF43:
 3389 0197 705F6D74 		.ascii	"p_mtxlist\000"
 3389      786C6973 
ARM GAS  /tmp/cc7zDYiP.s 			page 62


 3389      7400
 3390              	.LASF209:
 3391 01a1 6F717565 		.ascii	"oqueue\000"
 3391      756500
 3392              	.LASF48:
 3393 01a8 72656761 		.ascii	"regarm_t\000"
 3393      726D5F74 
 3393      00
 3394              	.LASF127:
 3395 01b1 50494F5F 		.ascii	"PIO_PPDER\000"
 3395      50504445 
 3395      5200
 3396              	.LASF138:
 3397 01bb 50494F5F 		.ascii	"PIO_ESR\000"
 3397      45535200 
 3398              	.LASF98:
 3399 01c3 50494F5F 		.ascii	"PIO_OSR\000"
 3399      4F535200 
 3400              	.LASF1:
 3401 01cb 7369676E 		.ascii	"signed char\000"
 3401      65642063 
 3401      68617200 
 3402              	.LASF66:
 3403 01d7 65776D61 		.ascii	"ewmask\000"
 3403      736B00
 3404              	.LASF14:
 3405 01de 75696E74 		.ascii	"uint8_t\000"
 3405      385F7400 
 3406              	.LASF25:
 3407 01e6 6576656E 		.ascii	"eventmask_t\000"
 3407      746D6173 
 3407      6B5F7400 
 3408              	.LASF51:
 3409 01f2 636F6E74 		.ascii	"context\000"
 3409      65787400 
 3410              	.LASF175:
 3411 01fa 534D435F 		.ascii	"SMC_KEY1\000"
 3411      4B455931 
 3411      00
 3412              	.LASF162:
 3413 0203 50494F5F 		.ascii	"PIO_RNPR\000"
 3413      524E5052 
 3413      00
 3414              	.LASF4:
 3415 020c 756E7369 		.ascii	"unsigned char\000"
 3415      676E6564 
 3415      20636861 
 3415      7200
 3416              	.LASF116:
 3417 021a 50494F5F 		.ascii	"PIO_PUDR\000"
 3417      50554452 
 3417      00
 3418              	.LASF191:
 3419 0223 55415254 		.ascii	"UART_TCR\000"
 3419      5F544352 
 3419      00
 3420              	.LASF172:
ARM GAS  /tmp/cc7zDYiP.s 			page 63


 3421 022c 536D6343 		.ascii	"SmcCs_number\000"
 3421      735F6E75 
 3421      6D626572 
 3421      00
 3422              	.LASF164:
 3423 0239 50494F5F 		.ascii	"PIO_TNPR\000"
 3423      544E5052 
 3423      00
 3424              	.LASF173:
 3425 0242 534D435F 		.ascii	"SMC_CS_NUMBER\000"
 3425      43535F4E 
 3425      554D4245 
 3425      5200
 3426              	.LASF171:
 3427 0250 534D435F 		.ascii	"SMC_MODE\000"
 3427      4D4F4445 
 3427      00
 3428              	.LASF200:
 3429 0259 53445F55 		.ascii	"SD_UNINIT\000"
 3429      4E494E49 
 3429      5400
 3430              	.LASF148:
 3431 0263 50494F5F 		.ascii	"PIO_WPSR\000"
 3431      57505352 
 3431      00
 3432              	.LASF188:
 3433 026c 55415254 		.ascii	"UART_RPR\000"
 3433      5F525052 
 3433      00
 3434              	.LASF179:
 3435 0275 55415254 		.ascii	"UART_CR\000"
 3435      5F435200 
 3436              	.LASF117:
 3437 027d 50494F5F 		.ascii	"PIO_PUER\000"
 3437      50554552 
 3437      00
 3438              	.LASF67:
 3439 0286 63686172 		.ascii	"char\000"
 3439      00
 3440              	.LASF222:
 3441 028b 70696E50 		.ascii	"pinPsram\000"
 3441      7372616D 
 3441      00
 3442              	.LASF159:
 3443 0294 50494F5F 		.ascii	"PIO_RCR\000"
 3443      52435200 
 3444              	.LASF141:
 3445 029c 52657365 		.ascii	"Reserved10\000"
 3445      72766564 
 3445      313000
 3446              	.LASF145:
 3447 02a7 52657365 		.ascii	"Reserved11\000"
 3447      72766564 
 3447      313100
 3448              	.LASF149:
 3449 02b2 52657365 		.ascii	"Reserved12\000"
 3449      72766564 
ARM GAS  /tmp/cc7zDYiP.s 			page 64


 3449      313200
 3450              	.LASF151:
 3451 02bd 52657365 		.ascii	"Reserved13\000"
 3451      72766564 
 3451      313300
 3452              	.LASF30:
 3453 02c8 705F7072 		.ascii	"p_prio\000"
 3453      696F00
 3454              	.LASF69:
 3455 02cf 47656E65 		.ascii	"GenericQueue\000"
 3455      72696351 
 3455      75657565 
 3455      00
 3456              	.LASF113:
 3457 02dc 50494F5F 		.ascii	"PIO_MDDR\000"
 3457      4D444452 
 3457      00
 3458              	.LASF65:
 3459 02e5 77746F62 		.ascii	"wtobjp\000"
 3459      6A7000
 3460              	.LASF107:
 3461 02ec 50494F5F 		.ascii	"PIO_PDSR\000"
 3461      50445352 
 3461      00
 3462              	.LASF206:
 3463 02f5 666C6167 		.ascii	"flags\000"
 3463      7300
 3464              	.LASF146:
 3465 02fb 50494F5F 		.ascii	"PIO_LOCKSR\000"
 3465      4C4F434B 
 3465      535200
 3466              	.LASF49:
 3467 0306 73746B61 		.ascii	"stkalign_t\000"
 3467      6C69676E 
 3467      5F7400
 3468              	.LASF79:
 3469 0311 4F757470 		.ascii	"OutputQueue\000"
 3469      75745175 
 3469      65756500 
 3470              	.LASF142:
 3471 031d 50494F5F 		.ascii	"PIO_FELLSR\000"
 3471      46454C4C 
 3471      535200
 3472              	.LASF112:
 3473 0328 50494F5F 		.ascii	"PIO_MDER\000"
 3473      4D444552 
 3473      00
 3474              	.LASF93:
 3475 0331 50494F5F 		.ascii	"PIO_PDR\000"
 3475      50445200 
 3476              	.LASF237:
 3477 0339 2F686F6D 		.ascii	"/home/nixtropy/Documents/Embebidos/stamp_repo/files"
 3477      652F6E69 
 3477      7874726F 
 3477      70792F44 
 3477      6F63756D 
 3478 036c 2F636F64 		.ascii	"/code/src/cain_examples/rf_board/psram_pck\000"
ARM GAS  /tmp/cc7zDYiP.s 			page 65


 3478      652F7372 
 3478      632F6361 
 3478      696E5F65 
 3478      78616D70 
 3479              	.LASF83:
 3480 0397 70757477 		.ascii	"putwouldblock\000"
 3480      6F756C64 
 3480      626C6F63 
 3480      6B00
 3481              	.LASF199:
 3482 03a5 696F706F 		.ascii	"ioportmask_t\000"
 3482      72746D61 
 3482      736B5F74 
 3482      00
 3483              	.LASF192:
 3484 03b2 55415254 		.ascii	"UART_RNPR\000"
 3484      5F524E50 
 3484      5200
 3485              	.LASF183:
 3486 03bc 55415254 		.ascii	"UART_IMR\000"
 3486      5F494D52 
 3486      00
 3487              	.LASF198:
 3488 03c5 55617274 		.ascii	"Uart\000"
 3488      00
 3489              	.LASF194:
 3490 03ca 55415254 		.ascii	"UART_TNPR\000"
 3490      5F544E50 
 3490      5200
 3491              	.LASF234:
 3492 03d4 63687072 		.ascii	"chprintf\000"
 3492      696E7466 
 3492      00
 3493              	.LASF226:
 3494 03dd 63685468 		.ascii	"chThdSleep\000"
 3494      64536C65 
 3494      657000
 3495              	.LASF140:
 3496 03e8 50494F5F 		.ascii	"PIO_ELSR\000"
 3496      454C5352 
 3496      00
 3497              	.LASF50:
 3498 03f1 696E7463 		.ascii	"intctx\000"
 3498      747800
 3499              	.LASF42:
 3500 03f8 705F6570 		.ascii	"p_epending\000"
 3500      656E6469 
 3500      6E6700
 3501              	.LASF170:
 3502 0403 534D435F 		.ascii	"SMC_CYCLE\000"
 3502      4359434C 
 3502      4500
 3503              	.LASF169:
 3504 040d 534D435F 		.ascii	"SMC_PULSE\000"
 3504      50554C53 
 3504      4500
 3505              	.LASF235:
ARM GAS  /tmp/cc7zDYiP.s 			page 66


 3506 0417 474E5520 		.ascii	"GNU C 4.9.3 20150529 (release) [ARM/embedded-4_9-br"
 3506      4320342E 
 3506      392E3320 
 3506      32303135 
 3506      30353239 
 3507 044a 616E6368 		.ascii	"anch revision 227977] -mcpu=cortex-m3 -mno-thumb-in"
 3507      20726576 
 3507      6973696F 
 3507      6E203232 
 3507      37393737 
 3508 047d 74657277 		.ascii	"terwork -mthumb -ggdb -O2 -std=gnu99 -fomit-frame-p"
 3508      6F726B20 
 3508      2D6D7468 
 3508      756D6220 
 3508      2D676764 
 3509 04b0 6F696E74 		.ascii	"ointer -falign-functions=16 -ffunction-sections -fd"
 3509      6572202D 
 3509      66616C69 
 3509      676E2D66 
 3509      756E6374 
 3510 04e3 6174612D 		.ascii	"ata-sections -fno-common\000"
 3510      73656374 
 3510      696F6E73 
 3510      202D666E 
 3510      6F2D636F 
 3511              	.LASF94:
 3512 04fc 50494F5F 		.ascii	"PIO_PSR\000"
 3512      50535200 
 3513              	.LASF186:
 3514 0504 55415254 		.ascii	"UART_THR\000"
 3514      5F544852 
 3514      00
 3515              	.LASF62:
 3516 050d 65735F6E 		.ascii	"es_next\000"
 3516      65787400 
 3517              	.LASF71:
 3518 0515 715F636F 		.ascii	"q_counter\000"
 3518      756E7465 
 3518      7200
 3519              	.LASF230:
 3520 051f 436F6E66 		.ascii	"ConfigurePck\000"
 3520      69677572 
 3520      6550636B 
 3520      00
 3521              	.LASF61:
 3522 052c 4576656E 		.ascii	"EventSource\000"
 3522      74536F75 
 3522      72636500 
 3523              	.LASF12:
 3524 0538 5F5F7569 		.ascii	"__uint64_t\000"
 3524      6E743634 
 3524      5F7400
 3525              	.LASF10:
 3526 0543 6C6F6E67 		.ascii	"long unsigned int\000"
 3526      20756E73 
 3526      69676E65 
 3526      6420696E 
ARM GAS  /tmp/cc7zDYiP.s 			page 67


 3526      7400
 3527              	.LASF58:
 3528 0555 656C5F6E 		.ascii	"el_next\000"
 3528      65787400 
 3529              	.LASF74:
 3530 055d 715F7772 		.ascii	"q_wrptr\000"
 3530      70747200 
 3531              	.LASF214:
 3532 0565 53657269 		.ascii	"SerialDriverVMT\000"
 3532      616C4472 
 3532      69766572 
 3532      564D5400 
 3533              	.LASF227:
 3534 0575 73645374 		.ascii	"sdStart\000"
 3534      61727400 
 3535              	.LASF105:
 3536 057d 50494F5F 		.ascii	"PIO_CODR\000"
 3536      434F4452 
 3536      00
 3537              	.LASF224:
 3538 0586 68616C49 		.ascii	"halInit\000"
 3538      6E697400 
 3539              	.LASF9:
 3540 058e 5F5F7569 		.ascii	"__uint32_t\000"
 3540      6E743332 
 3540      5F7400
 3541              	.LASF109:
 3542 0599 50494F5F 		.ascii	"PIO_IDR\000"
 3542      49445200 
 3543              	.LASF53:
 3544 05a1 4D757465 		.ascii	"Mutex\000"
 3544      7800
 3545              	.LASF238:
 3546 05a7 54687265 		.ascii	"Thread1\000"
 3546      61643100 
 3547              	.LASF11:
 3548 05af 6C6F6E67 		.ascii	"long long int\000"
 3548      206C6F6E 
 3548      6720696E 
 3548      7400
 3549              	.LASF54:
 3550 05bd 6D5F7175 		.ascii	"m_queue\000"
 3550      65756500 
 3551              	.LASF125:
 3552 05c5 50494F5F 		.ascii	"PIO_SCDR\000"
 3552      53434452 
 3552      00
 3553              	.LASF232:
 3554 05ce 63685468 		.ascii	"chThdCreateStatic\000"
 3554      64437265 
 3554      61746553 
 3554      74617469 
 3554      6300
 3555              	.LASF122:
 3556 05e0 50494F5F 		.ascii	"PIO_IFSCDR\000"
 3556      49465343 
 3556      445200
ARM GAS  /tmp/cc7zDYiP.s 			page 68


 3557              	.LASF168:
 3558 05eb 534D435F 		.ascii	"SMC_SETUP\000"
 3558      53455455 
 3558      5000
 3559              	.LASF236:
 3560 05f5 6D61696E 		.ascii	"main.c\000"
 3560      2E6300
 3561              	.LASF167:
 3562 05fc 50494F5F 		.ascii	"PIO_PTSR\000"
 3562      50545352 
 3562      00
 3563              	.LASF108:
 3564 0605 50494F5F 		.ascii	"PIO_IER\000"
 3564      49455200 
 3565              	.LASF217:
 3566 060d 6D61736B 		.ascii	"mask\000"
 3566      00
 3567              	.LASF157:
 3568 0612 50494F5F 		.ascii	"PIO_PCRHR\000"
 3568      50435248 
 3568      5200
 3569              	.LASF233:
 3570 061c 424F4152 		.ascii	"BOARD_ConfigurePSRAM\000"
 3570      445F436F 
 3570      6E666967 
 3570      75726550 
 3570      5352414D 
 3571              	.LASF221:
 3572 0631 49544D5F 		.ascii	"ITM_RxBuffer\000"
 3572      52784275 
 3572      66666572 
 3572      00
 3573              	.LASF68:
 3574 063e 7466756E 		.ascii	"tfunc_t\000"
 3574      635F7400 
 3575              	.LASF104:
 3576 0646 50494F5F 		.ascii	"PIO_SODR\000"
 3576      534F4452 
 3576      00
 3577              	.LASF123:
 3578 064f 50494F5F 		.ascii	"PIO_IFSCER\000"
 3578      49465343 
 3578      455200
 3579              	.LASF77:
 3580 065a 716E6F74 		.ascii	"qnotify_t\000"
 3580      6966795F 
 3580      7400
 3581              	.LASF39:
 3582 0664 705F7761 		.ascii	"p_waiting\000"
 3582      6974696E 
 3582      6700
 3583              	.LASF205:
 3584 066e 6576656E 		.ascii	"event\000"
 3584      7400
 3585              	.LASF36:
 3586 0674 705F666C 		.ascii	"p_flags\000"
 3586      61677300 
ARM GAS  /tmp/cc7zDYiP.s 			page 69


 3587              	.LASF82:
 3588 067c 72656164 		.ascii	"read\000"
 3588      00
 3589              	.LASF0:
 3590 0681 756E7369 		.ascii	"unsigned int\000"
 3590      676E6564 
 3590      20696E74 
 3590      00
 3591              	.LASF45:
 3592 068e 705F6D70 		.ascii	"p_mpool\000"
 3592      6F6F6C00 
 3593              	.LASF37:
 3594 0696 705F7265 		.ascii	"p_refs\000"
 3594      667300
 3595              	.LASF154:
 3596 069d 50494F5F 		.ascii	"PIO_PCIDR\000"
 3596      50434944 
 3596      5200
 3597              	.LASF139:
 3598 06a7 50494F5F 		.ascii	"PIO_LSR\000"
 3598      4C535200 
 3599              	.LASF211:
 3600 06af 73635F73 		.ascii	"sc_speed\000"
 3600      70656564 
 3600      00
 3601              	.LASF47:
 3602 06b8 54687265 		.ascii	"ThreadsList\000"
 3602      6164734C 
 3602      69737400 
 3603              	.LASF88:
 3604 06c4 696F666C 		.ascii	"ioflags_t\000"
 3604      6167735F 
 3604      7400
 3605              	.LASF223:
 3606 06ce 70696E50 		.ascii	"pinPCK\000"
 3606      434B00
 3607              	.LASF38:
 3608 06d5 705F7469 		.ascii	"p_time\000"
 3608      6D6500
 3609              	.LASF132:
 3610 06dc 50494F5F 		.ascii	"PIO_OWSR\000"
 3610      4F575352 
 3610      00
 3611              	.LASF197:
 3612 06e5 55415254 		.ascii	"UART_PTSR\000"
 3612      5F505453 
 3612      5200
 3613              	.LASF128:
 3614 06ef 50494F5F 		.ascii	"PIO_PPDSR\000"
 3614      50504453 
 3614      5200
 3615              	.LASF44:
 3616 06f9 705F7265 		.ascii	"p_realprio\000"
 3616      616C7072 
 3616      696F00
 3617              	.LASF84:
 3618 0704 67657477 		.ascii	"getwouldblock\000"
ARM GAS  /tmp/cc7zDYiP.s 			page 70


 3618      6F756C64 
 3618      626C6F63 
 3618      6B00
 3619              	.LASF190:
 3620 0712 55415254 		.ascii	"UART_TPR\000"
 3620      5F545052 
 3620      00
 3621              	.LASF216:
 3622 071b 5F50696E 		.ascii	"_Pin\000"
 3622      00
 3623              	.LASF101:
 3624 0720 50494F5F 		.ascii	"PIO_IFDR\000"
 3624      49464452 
 3624      00
 3625              	.LASF208:
 3626 0729 69717565 		.ascii	"iqueue\000"
 3626      756500
 3627              	.LASF161:
 3628 0730 50494F5F 		.ascii	"PIO_TCR\000"
 3628      54435200 
 3629              	.LASF13:
 3630 0738 6C6F6E67 		.ascii	"long long unsigned int\000"
 3630      206C6F6E 
 3630      6720756E 
 3630      7369676E 
 3630      65642069 
 3631              	.LASF33:
 3632 074f 705F6F6C 		.ascii	"p_older\000"
 3632      64657200 
 3633              	.LASF219:
 3634 0757 61747472 		.ascii	"attribute\000"
 3634      69627574 
 3634      6500
 3635              	.LASF158:
 3636 0761 50494F5F 		.ascii	"PIO_RPR\000"
 3636      52505200 
 3637              	.LASF97:
 3638 0769 50494F5F 		.ascii	"PIO_ODR\000"
 3638      4F445200 
 3639              	.LASF24:
 3640 0771 6D73675F 		.ascii	"msg_t\000"
 3640      7400
 3641              	.LASF100:
 3642 0777 50494F5F 		.ascii	"PIO_IFER\000"
 3642      49464552 
 3642      00
 3643              	.LASF118:
 3644 0780 50494F5F 		.ascii	"PIO_PUSR\000"
 3644      50555352 
 3644      00
 3645              	.LASF96:
 3646 0789 50494F5F 		.ascii	"PIO_OER\000"
 3646      4F455200 
 3647              	.LASF135:
 3648 0791 50494F5F 		.ascii	"PIO_AIMDR\000"
 3648      41494D44 
 3648      5200
ARM GAS  /tmp/cc7zDYiP.s 			page 71


 3649              	.LASF204:
 3650 079b 53657269 		.ascii	"SerialDriver\000"
 3650      616C4472 
 3650      69766572 
 3650      00
 3651              	.LASF144:
 3652 07a8 50494F5F 		.ascii	"PIO_FRLHSR\000"
 3652      46524C48 
 3652      535200
 3653              	.LASF187:
 3654 07b3 55415254 		.ascii	"UART_BRGR\000"
 3654      5F425247 
 3654      5200
 3655              	.LASF70:
 3656 07bd 715F7761 		.ascii	"q_waiting\000"
 3656      6974696E 
 3656      6700
 3657              	.LASF95:
 3658 07c7 52657365 		.ascii	"Reserved1\000"
 3658      72766564 
 3658      3100
 3659              	.LASF99:
 3660 07d1 52657365 		.ascii	"Reserved2\000"
 3660      72766564 
 3660      3200
 3661              	.LASF103:
 3662 07db 52657365 		.ascii	"Reserved3\000"
 3662      72766564 
 3662      3300
 3663              	.LASF115:
 3664 07e5 52657365 		.ascii	"Reserved4\000"
 3664      72766564 
 3664      3400
 3665              	.LASF119:
 3666 07ef 52657365 		.ascii	"Reserved5\000"
 3666      72766564 
 3666      3500
 3667              	.LASF121:
 3668 07f9 52657365 		.ascii	"Reserved6\000"
 3668      72766564 
 3668      3600
 3669              	.LASF129:
 3670 0803 52657365 		.ascii	"Reserved7\000"
 3670      72766564 
 3670      3700
 3671              	.LASF20:
 3672 080d 746D6F64 		.ascii	"tmode_t\000"
 3672      655F7400 
 3673              	.LASF137:
 3674 0815 52657365 		.ascii	"Reserved9\000"
 3674      72766564 
 3674      3900
 3675              	.LASF134:
 3676 081f 50494F5F 		.ascii	"PIO_AIMER\000"
 3676      41494D45 
 3676      5200
 3677              	.LASF203:
ARM GAS  /tmp/cc7zDYiP.s 			page 72


 3678 0829 73647374 		.ascii	"sdstate_t\000"
 3678      6174655F 
 3678      7400
 3679              	.LASF114:
 3680 0833 50494F5F 		.ascii	"PIO_MDSR\000"
 3680      4D445352 
 3680      00
 3681              	.LASF110:
 3682 083c 50494F5F 		.ascii	"PIO_IMR\000"
 3682      494D5200 
 3683              	.LASF202:
 3684 0844 53445F52 		.ascii	"SD_READY\000"
 3684      45414459 
 3684      00
 3685              	.LASF106:
 3686 084d 50494F5F 		.ascii	"PIO_ODSR\000"
 3686      4F445352 
 3686      00
 3687              	.LASF163:
 3688 0856 50494F5F 		.ascii	"PIO_RNCR\000"
 3688      524E4352 
 3688      00
 3689              	.LASF177:
 3690 085f 534D435F 		.ascii	"SMC_WPMR\000"
 3690      57504D52 
 3690      00
 3691              	.LASF165:
 3692 0868 50494F5F 		.ascii	"PIO_TNCR\000"
 3692      544E4352 
 3692      00
 3693              	.LASF150:
 3694 0871 50494F5F 		.ascii	"PIO_SCHMITT\000"
 3694      5343484D 
 3694      49545400 
 3695              	.LASF5:
 3696 087d 73686F72 		.ascii	"short int\000"
 3696      7420696E 
 3696      7400
 3697              	.LASF17:
 3698 0887 75696E74 		.ascii	"uint64_t\000"
 3698      36345F74 
 3698      00
 3699              	.LASF89:
 3700 0890 526F5265 		.ascii	"RoReg\000"
 3700      6700
 3701              	.LASF189:
 3702 0896 55415254 		.ascii	"UART_RCR\000"
 3702      5F524352 
 3702      00
 3703              	.LASF210:
 3704 089f 75617274 		.ascii	"uart\000"
 3704      00
 3705              	.LASF207:
 3706 08a4 73746174 		.ascii	"state\000"
 3706      6500
 3707              	.LASF19:
 3708 08aa 626F6F6C 		.ascii	"bool_t\000"
ARM GAS  /tmp/cc7zDYiP.s 			page 73


 3708      5F7400
 3709              	.LASF27:
 3710 08b1 54687265 		.ascii	"Thread\000"
 3710      616400
 3711              	.LASF91:
 3712 08b8 52775265 		.ascii	"RwReg\000"
 3712      6700
 3713              	.LASF215:
 3714 08be 67657466 		.ascii	"getflags\000"
 3714      6C616773 
 3714      00
 3715              	.LASF180:
 3716 08c7 55415254 		.ascii	"UART_MR\000"
 3716      5F4D5200 
 3717              	.LASF155:
 3718 08cf 50494F5F 		.ascii	"PIO_PCIMR\000"
 3718      5043494D 
 3718      5200
 3719              	.LASF22:
 3720 08d9 74726566 		.ascii	"trefs_t\000"
 3720      735F7400 
 3721              	.LASF57:
 3722 08e1 4576656E 		.ascii	"EventListener\000"
 3722      744C6973 
 3722      74656E65 
 3722      7200
 3723              	.LASF152:
 3724 08ef 50494F5F 		.ascii	"PIO_PCMR\000"
 3724      50434D52 
 3724      00
 3725              	.LASF225:
 3726 08f8 63685379 		.ascii	"chSysInit\000"
 3726      73496E69 
 3726      7400
 3727              	.LASF16:
 3728 0902 75696E74 		.ascii	"uint32_t\000"
 3728      33325F74 
 3728      00
 3729              	.LASF176:
 3730 090b 534D435F 		.ascii	"SMC_KEY2\000"
 3730      4B455932 
 3730      00
 3731              	.LASF193:
 3732 0914 55415254 		.ascii	"UART_RNCR\000"
 3732      5F524E43 
 3732      5200
 3733              	.LASF46:
 3734 091e 54687265 		.ascii	"ThreadsQueue\000"
 3734      61647351 
 3734      75657565 
 3734      00
 3735              	.LASF18:
 3736 092b 75696E74 		.ascii	"uint_fast16_t\000"
 3736      5F666173 
 3736      7431365F 
 3736      7400
 3737              	.LASF195:
ARM GAS  /tmp/cc7zDYiP.s 			page 74


 3738 0939 55415254 		.ascii	"UART_TNCR\000"
 3738      5F544E43 
 3738      5200
 3739              	.LASF143:
 3740 0943 50494F5F 		.ascii	"PIO_REHLSR\000"
 3740      5245484C 
 3740      535200
 3741              	.LASF63:
 3742 094e 7264796D 		.ascii	"rdymsg\000"
 3742      736700
 3743              	.LASF6:
 3744 0955 73686F72 		.ascii	"short unsigned int\000"
 3744      7420756E 
 3744      7369676E 
 3744      65642069 
 3744      6E7400
 3745              	.LASF92:
 3746 0968 50494F5F 		.ascii	"PIO_PER\000"
 3746      50455200 
 3747              	.LASF78:
 3748 0970 496E7075 		.ascii	"InputQueue\000"
 3748      74517565 
 3748      756500
 3749              	.LASF229:
 3750 097b 506D634D 		.ascii	"PmcMasterClockSelection\000"
 3750      61737465 
 3750      72436C6F 
 3750      636B5365 
 3750      6C656374 
 3751              	.LASF7:
 3752 0993 5F5F696E 		.ascii	"__int32_t\000"
 3752      7433325F 
 3752      7400
 3753              	.LASF201:
 3754 099d 53445F53 		.ascii	"SD_STOP\000"
 3754      544F5000 
 3755              	.LASF80:
 3756 09a5 42617365 		.ascii	"BaseChannelVMT\000"
 3756      4368616E 
 3756      6E656C56 
 3756      4D5400
 3757              	.LASF60:
 3758 09b4 656C5F6D 		.ascii	"el_mask\000"
 3758      61736B00 
 3759              	.LASF34:
 3760 09bc 705F6E61 		.ascii	"p_name\000"
 3760      6D6500
 3761              	.LASF56:
 3762 09c3 6D5F6E65 		.ascii	"m_next\000"
 3762      787400
 3763              	.LASF87:
 3764 09ca 42617365 		.ascii	"BaseChannel\000"
 3764      4368616E 
 3764      6E656C00 
 3765              	.LASF111:
 3766 09d6 50494F5F 		.ascii	"PIO_ISR\000"
 3766      49535200 
ARM GAS  /tmp/cc7zDYiP.s 			page 75


 3767              	.LASF185:
 3768 09de 55415254 		.ascii	"UART_RHR\000"
 3768      5F524852 
 3768      00
 3769              	.LASF220:
 3770 09e7 77615468 		.ascii	"waThread1\000"
 3770      72656164 
 3770      3100
 3771              	.LASF41:
 3772 09f1 705F6D73 		.ascii	"p_msg\000"
 3772      6700
 3773              	.LASF59:
 3774 09f7 656C5F6C 		.ascii	"el_listener\000"
 3774      69737465 
 3774      6E657200 
 3775              	.LASF166:
 3776 0a03 50494F5F 		.ascii	"PIO_PTCR\000"
 3776      50544352 
 3776      00
 3777              	.LASF153:
 3778 0a0c 50494F5F 		.ascii	"PIO_PCIER\000"
 3778      50434945 
 3778      5200
 3779              	.LASF35:
 3780 0a16 705F7374 		.ascii	"p_state\000"
 3780      61746500 
 3781              		.ident	"GCC: (GNU Tools for ARM Embedded Processors) 4.9.3 20150529 (release) [ARM/embedded-4_9-br
ARM GAS  /tmp/cc7zDYiP.s 			page 76


DEFINED SYMBOLS
                            *ABS*:00000000 main.c
     /tmp/cc7zDYiP.s:19     .text.Thread1:00000000 $t
     /tmp/cc7zDYiP.s:24     .text.Thread1:00000000 Thread1
     /tmp/cc7zDYiP.s:62     .text.Thread1:0000001c $d
     /tmp/cc7zDYiP.s:67     .text.startup.main:00000000 $t
     /tmp/cc7zDYiP.s:73     .text.startup.main:00000000 main
     /tmp/cc7zDYiP.s:186    .text.startup.main:00000098 $d
     /tmp/cc7zDYiP.s:249    .rodata.pinPCK:00000000 pinPCK
     /tmp/cc7zDYiP.s:206    .rodata.pinPsram:00000000 pinPsram
     /tmp/cc7zDYiP.s:202    .rodata.pinPsram:00000000 $d
     /tmp/cc7zDYiP.s:238    .bss.waThread1:00000000 $d
     /tmp/cc7zDYiP.s:242    .bss.waThread1:00000000 waThread1
     /tmp/cc7zDYiP.s:245    .rodata.pinPCK:00000000 $d
     /tmp/cc7zDYiP.s:257    .rodata.str1.4:00000000 $d
                     .debug_frame:00000010 $d

UNDEFINED SYMBOLS
chThdSleep
halInit
chSysInit
sdStart
PIO_Configure
PmcConfigurePllClock
PmcMasterClockSelection
ConfigurePck
chThdCreateStatic
BOARD_ConfigurePSRAM
chprintf
SD2
