ARM GAS  /tmp/cc7zDYiP.s 			page 1


   1              		.syntax unified
   2              		.cpu cortex-m3
   3              		.fpu softvfp
   4              		.eabi_attribute 20, 1
   5              		.eabi_attribute 21, 1
   6              		.eabi_attribute 23, 3
   7              		.eabi_attribute 24, 1
   8              		.eabi_attribute 25, 1
   9              		.eabi_attribute 26, 1
  10              		.eabi_attribute 30, 2
  11              		.eabi_attribute 34, 1
  12              		.eabi_attribute 18, 4
  13              		.thumb
  14              		.file	"main.c"
  15              		.text
  16              	.Ltext0:
  17              		.cfi_sections	.debug_frame
  18              		.section	.text.Thread1,"ax",%progbits
  19              		.align	2
  20              		.p2align 4,,15
  21              		.thumb
  22              		.thumb_func
  23              		.type	Thread1, %function
  24              	Thread1:
  25              	.LFB36:
  26              		.file 1 "main.c"
  27              		.loc 1 23 0
  28              		.cfi_startproc
  29              		@ Volatile: function does not return.
  30              		@ args = 0, pretend = 0, frame = 0
  31              		@ frame_needed = 0, uses_anonymous_args = 0
  32              	.LVL0:
  33              		.loc 1 26 0
  34 0000 4FF40035 		mov	r5, #131072
  35 0004 2E46     		mov	r6, r5
  36              		.loc 1 23 0
  37 0006 08B5     		push	{r3, lr}
  38              		.cfi_def_cfa_offset 8
  39              		.cfi_offset 3, -8
  40              		.cfi_offset 14, -4
  41              		.loc 1 26 0
  42 0008 044C     		ldr	r4, .L5
  43              	.LVL1:
  44              	.L2:
  45              		.loc 1 26 0 is_stmt 0 discriminator 1
  46 000a 6663     		str	r6, [r4, #52]
  47              		.loc 1 27 0 is_stmt 1 discriminator 1
  48 000c 3220     		movs	r0, #50
  49 000e FFF7FEFF 		bl	chThdSleep
  50              	.LVL2:
  51              		.loc 1 28 0 discriminator 1
  52 0012 2563     		str	r5, [r4, #48]
  53              		.loc 1 29 0 discriminator 1
  54 0014 3220     		movs	r0, #50
  55 0016 FFF7FEFF 		bl	chThdSleep
  56              	.LVL3:
  57              		.loc 1 30 0 discriminator 1
ARM GAS  /tmp/cc7zDYiP.s 			page 2


  58 001a F6E7     		b	.L2
  59              	.L6:
  60              		.align	2
  61              	.L5:
  62 001c 00120E40 		.word	1074663936
  63              		.cfi_endproc
  64              	.LFE36:
  65              		.size	Thread1, .-Thread1
  66              		.section	.text.startup.main,"ax",%progbits
  67              		.align	2
  68              		.p2align 4,,15
  69              		.global	main
  70              		.thumb
  71              		.thumb_func
  72              		.type	main, %function
  73              	main:
  74              	.LFB37:
  75              		.loc 1 37 0
  76              		.cfi_startproc
  77              		@ args = 0, pretend = 0, frame = 0
  78              		@ frame_needed = 0, uses_anonymous_args = 0
  79              	.LVL4:
  80 0000 30B5     		push	{r4, r5, lr}
  81              		.cfi_def_cfa_offset 12
  82              		.cfi_offset 4, -12
  83              		.cfi_offset 5, -8
  84              		.cfi_offset 14, -4
  85 0002 83B0     		sub	sp, sp, #12
  86              		.cfi_def_cfa_offset 24
  87              		.loc 1 41 0
  88 0004 FFF7FEFF 		bl	halInit
  89              	.LVL5:
  90              		.loc 1 42 0
  91 0008 FFF7FEFF 		bl	chSysInit
  92              	.LVL6:
  93              		.loc 1 43 0
  94 000c 2248     		ldr	r0, .L14
  95 000e 0021     		movs	r1, #0
  96 0010 FFF7FEFF 		bl	sdStart
  97              	.LVL7:
  98              		.loc 1 46 0
  99 0014 0121     		movs	r1, #1
 100 0016 2148     		ldr	r0, .L14+4
 101 0018 FFF7FEFF 		bl	PIO_Configure
 102              	.LVL8:
 103              		.loc 1 47 0
 104 001c 0122     		movs	r2, #1
 105 001e 0020     		movs	r0, #0
 106 0020 1F21     		movs	r1, #31
 107 0022 FFF7FEFF 		bl	PmcConfigurePllClock
 108              	.LVL9:
 109              		.loc 1 49 0
 110 0026 0120     		movs	r0, #1
 111 0028 0021     		movs	r1, #0
 112 002a FFF7FEFF 		bl	PmcMasterClockSelection
 113              	.LVL10:
 114              		.loc 1 51 0
ARM GAS  /tmp/cc7zDYiP.s 			page 3


 115 002e 0220     		movs	r0, #2
 116 0030 0021     		movs	r1, #0
 117 0032 FFF7FEFF 		bl	PmcMasterClockSelection
 118              	.LVL11:
 119              		.loc 1 52 0
 120 0036 0220     		movs	r0, #2
 121 0038 0021     		movs	r1, #0
 122 003a FFF7FEFF 		bl	ConfigurePck
 123              	.LVL12:
 124              		.loc 1 55 0
 125 003e 0023     		movs	r3, #0
 126 0040 4022     		movs	r2, #64
 127 0042 0093     		str	r3, [sp]
 128 0044 4FF49871 		mov	r1, #304
 129 0048 154B     		ldr	r3, .L14+8
 130 004a 1648     		ldr	r0, .L14+12
 131 004c FFF7FEFF 		bl	chThdCreateStatic
 132              	.LVL13:
 133              		.loc 1 58 0
 134 0050 0521     		movs	r1, #5
 135 0052 1548     		ldr	r0, .L14+16
 136 0054 FFF7FEFF 		bl	PIO_Configure
 137              	.LVL14:
 138              		.loc 1 60 0
 139 0058 1448     		ldr	r0, .L14+20
 140 005a FFF7FEFF 		bl	BOARD_ConfigurePSRAM
 141              	.LVL15:
 142              		.loc 1 70 0
 143 005e 144D     		ldr	r5, .L14+24
 144              	.L10:
 145              	.LVL16:
 146              		.loc 1 37 0
 147 0060 144A     		ldr	r2, .L14+28
 148              		.loc 1 65 0
 149 0062 0023     		movs	r3, #0
 150              	.LVL17:
 151              	.L8:
 152              		.loc 1 66 0 discriminator 3
 153 0064 42F8043F 		str	r3, [r2, #4]!
 154              		.loc 1 65 0 discriminator 3
 155 0068 0133     		adds	r3, r3, #1
 156              	.LVL18:
 157 006a B3F5807F 		cmp	r3, #256
 158 006e F9D1     		bne	.L8
 159 0070 104C     		ldr	r4, .L14+28
 160              	.LVL19:
 161              	.L9:
 162              		.loc 1 71 0 discriminator 3
 163 0072 54F8042F 		ldr	r2, [r4, #4]!
 164 0076 0848     		ldr	r0, .L14
 165 0078 D2B2     		uxtb	r2, r2
 166 007a 0F49     		ldr	r1, .L14+32
 167 007c FFF7FEFF 		bl	chprintf
 168              	.LVL20:
 169              		.loc 1 70 0 discriminator 3
 170 0080 AC42     		cmp	r4, r5
 171 0082 F6D1     		bne	.L9
ARM GAS  /tmp/cc7zDYiP.s 			page 4


 172              		.loc 1 74 0
 173 0084 0448     		ldr	r0, .L14
 174 0086 0D49     		ldr	r1, .L14+36
 175 0088 FFF7FEFF 		bl	chprintf
 176              	.LVL21:
 177              		.loc 1 75 0
 178 008c 4FF4FA70 		mov	r0, #500
 179 0090 FFF7FEFF 		bl	chThdSleep
 180              	.LVL22:
 181              		.loc 1 77 0
 182 0094 E4E7     		b	.L10
 183              	.L15:
 184 0096 00BF     		.align	2
 185              	.L14:
 186 0098 00000000 		.word	SD2
 187 009c 00000000 		.word	.LANCHOR0
 188 00a0 00000000 		.word	Thread1
 189 00a4 00000000 		.word	.LANCHOR1
 190 00a8 00000000 		.word	.LANCHOR2
 191 00ac 00000E40 		.word	1074659328
 192 00b0 FC030063 		.word	1660945404
 193 00b4 FCFFFF62 		.word	1660944380
 194 00b8 00000000 		.word	.LC0
 195 00bc 08000000 		.word	.LC1
 196              		.cfi_endproc
 197              	.LFE37:
 198              		.size	main, .-main
 199              		.global	pinPCK
 200              		.global	pinPsram
 201              		.section	.rodata.pinPsram,"a",%progbits
 202              		.align	2
 203              		.set	.LANCHOR2,. + 0
 204              		.type	pinPsram, %object
 205              		.size	pinPsram, 60
 206              	pinPsram:
 207 0000 FF000000 		.word	255
 208 0004 00120E40 		.word	1074663936
 209 0008 0D       		.byte	13
 210 0009 00       		.byte	0
 211 000a 01       		.byte	1
 212 000b 00       		.space	1
 213 000c 00080000 		.word	2048
 214 0010 00120E40 		.word	1074663936
 215 0014 0D       		.byte	13
 216 0015 00       		.byte	0
 217 0016 01       		.byte	1
 218 0017 00       		.space	1
 219 0018 00010000 		.word	256
 220 001c 00120E40 		.word	1074663936
 221 0020 0D       		.byte	13
 222 0021 00       		.byte	0
 223 0022 01       		.byte	1
 224 0023 00       		.space	1
 225 0024 00100000 		.word	4096
 226 0028 00120E40 		.word	1074663936
 227 002c 0D       		.byte	13
 228 002d 00       		.byte	0
ARM GAS  /tmp/cc7zDYiP.s 			page 5


 229 002e 01       		.byte	1
 230 002f 00       		.space	1
 231 0030 0000FCFF 		.word	-262144
 232 0034 00120E40 		.word	1074663936
 233 0038 0D       		.byte	13
 234 0039 00       		.byte	0
 235 003a 01       		.byte	1
 236 003b 00       		.space	1
 237              		.section	.bss.waThread1,"aw",%nobits
 238              		.align	3
 239              		.set	.LANCHOR1,. + 0
 240              		.type	waThread1, %object
 241              		.size	waThread1, 304
 242              	waThread1:
 243 0000 00000000 		.space	304
 243      00000000 
 243      00000000 
 243      00000000 
 243      00000000 
 244              		.section	.rodata.pinPCK,"a",%progbits
 245              		.align	2
 246              		.set	.LANCHOR0,. + 0
 247              		.type	pinPCK, %object
 248              		.size	pinPCK, 12
 249              	pinPCK:
 250 0000 00000080 		.word	-2147483648
 251 0004 000E0E40 		.word	1074662912
 252 0008 0B       		.byte	11
 253 0009 01       		.byte	1
 254 000a 00       		.byte	0
 255 000b 00       		.space	1
 256              		.section	.rodata.str1.4,"aMS",%progbits,1
 257              		.align	2
 258              	.LC0:
 259 0000 2C257820 		.ascii	",%x \015\012\000"
 259      0D0A00
 260 0007 00       		.space	1
 261              	.LC1:
 262 0008 3132330A 		.ascii	"123\012\000"
 262      00
 263              		.text
 264              	.Letext0:
 265              		.file 2 "/home/nixtropy/opt/gcc-arm-none-eabi-4_9-2015q3/lib/gcc/arm-none-eabi/4.9.3/include/stdde
 266              		.file 3 "/home/nixtropy/opt/gcc-arm-none-eabi-4_9-2015q3/arm-none-eabi/include/machine/_default_ty
 267              		.file 4 "/home/nixtropy/opt/gcc-arm-none-eabi-4_9-2015q3/arm-none-eabi/include/sys/_stdint.h"
 268              		.file 5 "/home/nixtropy/opt/gcc-arm-none-eabi-4_9-2015q3/arm-none-eabi/include/stdint.h"
 269              		.file 6 "../../../../ext/ChibiOS//os/ports/GCC/ARMCMx/chtypes.h"
 270              		.file 7 "../../../../ext/ChibiOS//os/kernel/include/chlists.h"
 271              		.file 8 "../../../../ext/ChibiOS//os/kernel/include/chthreads.h"
 272              		.file 9 "../../../../ext/ChibiOS//os/ports/GCC/ARMCMx/chcore_v7m.h"
 273              		.file 10 "../../../../ext/ChibiOS//os/kernel/include/chmtx.h"
 274              		.file 11 "../../../../ext/ChibiOS//os/kernel/include/chevents.h"
 275              		.file 12 "../../../../ext/ChibiOS//os/kernel/include/chqueues.h"
 276              		.file 13 "../../../../ext/ChibiOS//os/kernel/include/chioch.h"
 277              		.file 14 "../../../../ext/ChibiOS//os/hal/platforms/AT91SAM3S/at91lib/SAM3S.h"
 278              		.file 15 "../../../../ext/ChibiOS//os/hal/platforms/AT91SAM3S/pal_lld.h"
 279              		.file 16 "../../../../ext/ChibiOS//os/hal/include/serial.h"
ARM GAS  /tmp/cc7zDYiP.s 			page 6


 280              		.file 17 "../../../../ext/ChibiOS//os/hal/platforms/AT91SAM3S/serial_lld.h"
 281              		.file 18 "../../../../ext/ChibiOS//os/hal/platforms/AT91SAM3S/pio.h"
 282              		.file 19 "../../../../ext/ChibiOS//os/hal/platforms/AT91SAM3S/core_cm3.h"
 283              		.file 20 "psram.h"
 284              		.file 21 "../../../../ext/ChibiOS//os/hal/include/hal.h"
 285              		.file 22 "../../../../ext/ChibiOS//os/kernel/include/chsys.h"
 286              		.file 23 "../../../../ext/ChibiOS//os/hal/platforms/AT91SAM3S/pmc.h"
 287              		.file 24 "../../../../ext/ChibiOS//os/various/chprintf.h"