ARM GAS  /tmp/ccjRtbDD.s 			page 1


   1              		.syntax unified
   2              		.cpu cortex-m3
   3              		.fpu softvfp
   4              		.eabi_attribute 20, 1
   5              		.eabi_attribute 21, 1
   6              		.eabi_attribute 23, 3
   7              		.eabi_attribute 24, 1
   8              		.eabi_attribute 25, 1
   9              		.eabi_attribute 26, 1
  10              		.eabi_attribute 30, 2
  11              		.eabi_attribute 34, 1
  12              		.eabi_attribute 18, 4
  13              		.thumb
  14              		.file	"main.cpp"
  15              		.text
  16              	.Ltext0:
  17              		.cfi_sections	.debug_frame
  18              		.section	.text._Z3absi,"ax",%progbits
  19              		.align	2
  20              		.p2align 4,,15
  21              		.global	_Z3absi
  22              		.thumb
  23              		.thumb_func
  24              		.type	_Z3absi, %function
  25              	_Z3absi:
  26              		.fnstart
  27              	.LFB36:
  28              		.file 1 "main.cpp"
  29              		.loc 1 79 0
  30              		.cfi_startproc
  31              		@ args = 0, pretend = 0, frame = 0
  32              		@ frame_needed = 0, uses_anonymous_args = 0
  33              		@ link register save eliminated.
  34              	.LVL0:
  35              		.loc 1 84 0
  36 0000 0028     		cmp	r0, #0
  37 0002 B8BF     		it	lt
  38 0004 4042     		rsblt	r0, r0, #0
  39              	.LVL1:
  40 0006 7047     		bx	lr
  41              		.cfi_endproc
  42              	.LFE36:
  43              		.cantunwind
  44              		.fnend
  45              		.size	_Z3absi, .-_Z3absi
  46              		.section	.text._Z7I2CInitv,"ax",%progbits
  47              		.align	2
  48              		.p2align 4,,15
  49              		.global	_Z7I2CInitv
  50              		.thumb
  51              		.thumb_func
  52              		.type	_Z7I2CInitv, %function
  53              	_Z7I2CInitv:
  54              		.fnstart
  55              	.LFB37:
  56              		.loc 1 87 0
  57              		.cfi_startproc
ARM GAS  /tmp/ccjRtbDD.s 			page 2


  58              		@ args = 0, pretend = 0, frame = 0
  59              		@ frame_needed = 0, uses_anonymous_args = 0
  60 0000 10B5     		push	{r4, lr}
  61              		.save {r4, lr}
  62              		.cfi_def_cfa_offset 8
  63              		.cfi_offset 4, -8
  64              		.cfi_offset 14, -4
  65              	.LBB16:
  66              	.LBB17:
  67              		.loc 1 89 0
  68 0002 2023     		movs	r3, #32
  69              	@ 89 "main.cpp" 1
  70 0004 83F31188 		msr     BASEPRI, r3
  71              	@ 0 "" 2
  72              		.thumb
  73              	.LBE17:
  74              		.loc 1 90 0
  75 0008 0221     		movs	r1, #2
  76 000a 0D48     		ldr	r0, .L4
  77 000c FFF7FEFF 		bl	PIO_Configure
  78              	.LVL2:
  79              		.loc 1 94 0
  80 0010 0C4C     		ldr	r4, .L4+4
  81              		.loc 1 91 0
  82 0012 0D4B     		ldr	r3, .L4+8
  83 0014 0D48     		ldr	r0, .L4+12
  84              		.loc 1 93 0
  85 0016 0E4A     		ldr	r2, .L4+16
  86              		.loc 1 92 0
  87 0018 4FF40021 		mov	r1, #524288
  88              		.loc 1 91 0
  89 001c C3F8E400 		str	r0, [r3, #228]
  90              		.loc 1 92 0
  91 0020 1961     		str	r1, [r3, #16]
  92              		.loc 1 94 0
  93 0022 2046     		mov	r0, r4
  94              		.loc 1 93 0
  95 0024 C3F8E420 		str	r2, [r3, #228]
  96              		.loc 1 94 0
  97 0028 0A49     		ldr	r1, .L4+20
  98 002a 0B4A     		ldr	r2, .L4+24
  99 002c FFF7FEFF 		bl	TWI_ConfigureMaster
 100              	.LVL3:
 101              		.loc 1 95 0
 102 0030 2146     		mov	r1, r4
 103 0032 0A48     		ldr	r0, .L4+28
 104 0034 FFF7FEFF 		bl	TWID_Initialize
 105              	.LVL4:
 106              	.LBB18:
 107              		.loc 1 96 0
 108 0038 0023     		movs	r3, #0
 109              	@ 96 "main.cpp" 1
 110 003a 83F31188 		msr     BASEPRI, r3
 111              	@ 0 "" 2
 112              		.thumb
 113 003e 10BD     		pop	{r4, pc}
 114              	.L5:
ARM GAS  /tmp/ccjRtbDD.s 			page 3


 115              		.align	2
 116              	.L4:
 117 0040 00000000 		.word	.LANCHOR0
 118 0044 00800140 		.word	1073840128
 119 0048 00040E40 		.word	1074660352
 120 004c 00434D50 		.word	1347240704
 121 0050 01434D50 		.word	1347240705
 122 0054 801A0600 		.word	400000
 123 0058 0090D003 		.word	64000000
 124 005c 00000000 		.word	.LANCHOR1
 125              	.LBE18:
 126              	.LBE16:
 127              		.cfi_endproc
 128              	.LFE37:
 129              		.fnend
 130              		.size	_Z7I2CInitv, .-_Z7I2CInitv
 131              		.section	.text._Z15I2CReadByte_subhh,"ax",%progbits
 132              		.align	2
 133              		.p2align 4,,15
 134              		.global	_Z15I2CReadByte_subhh
 135              		.thumb
 136              		.thumb_func
 137              		.type	_Z15I2CReadByte_subhh, %function
 138              	_Z15I2CReadByte_subhh:
 139              		.fnstart
 140              	.LFB38:
 141              		.loc 1 99 0
 142              		.cfi_startproc
 143              		@ args = 0, pretend = 0, frame = 8
 144              		@ frame_needed = 0, uses_anonymous_args = 0
 145              	.LVL5:
 146 0000 70B5     		push	{r4, r5, r6, lr}
 147              		.save {r4, r5, r6, lr}
 148              		.cfi_def_cfa_offset 16
 149              		.cfi_offset 4, -16
 150              		.cfi_offset 5, -12
 151              		.cfi_offset 6, -8
 152              		.cfi_offset 14, -4
 153 0002 0A46     		mov	r2, r1
 154              		.pad #24
 155 0004 86B0     		sub	sp, sp, #24
 156              		.cfi_def_cfa_offset 40
 157              	.LBB19:
 158              	.LBB20:
 159              		.loc 1 101 0
 160 0006 2023     		movs	r3, #32
 161              	@ 101 "main.cpp" 1
 162 0008 83F31188 		msr     BASEPRI, r3
 163              	@ 0 "" 2
 164              		.thumb
 165              	.LBE20:
 166              		.loc 1 105 0
 167 000c 0024     		movs	r4, #0
 168 000e 0DF11705 		add	r5, sp, #23
 169 0012 0123     		movs	r3, #1
 170 0014 0146     		mov	r1, r0
 171              	.LVL6:
ARM GAS  /tmp/ccjRtbDD.s 			page 4


 172 0016 0095     		str	r5, [sp]
 173 0018 0294     		str	r4, [sp, #8]
 174 001a 0193     		str	r3, [sp, #4]
 175 001c 0548     		ldr	r0, .L10
 176              	.LVL7:
 177 001e FFF7FEFF 		bl	TWID_Read
 178              	.LVL8:
 179 0022 08B9     		cbnz	r0, .L7
 180              		.loc 1 105 0 is_stmt 0 discriminator 2
 181 0024 9DF81760 		ldrb	r6, [sp, #23]	@ zero_extendqisi2
 182              	.LVL9:
 183              	.L7:
 184              	.LBB21:
 185              		.loc 1 106 0 is_stmt 1
 186 0028 0023     		movs	r3, #0
 187              	@ 106 "main.cpp" 1
 188 002a 83F31188 		msr     BASEPRI, r3
 189              	@ 0 "" 2
 190              		.thumb
 191              	.LBE21:
 192              	.LBE19:
 193              		.loc 1 108 0
 194 002e 3046     		mov	r0, r6
 195 0030 06B0     		add	sp, sp, #24
 196              		.cfi_def_cfa_offset 16
 197              		@ sp needed
 198 0032 70BD     		pop	{r4, r5, r6, pc}
 199              	.LVL10:
 200              	.L11:
 201              		.align	2
 202              	.L10:
 203 0034 00000000 		.word	.LANCHOR1
 204              		.cfi_endproc
 205              	.LFE38:
 206              		.fnend
 207              		.size	_Z15I2CReadByte_subhh, .-_Z15I2CReadByte_subhh
 208              		.section	.text._Z12I2CWriteBytehh,"ax",%progbits
 209              		.align	2
 210              		.p2align 4,,15
 211              		.global	_Z12I2CWriteBytehh
 212              		.thumb
 213              		.thumb_func
 214              		.type	_Z12I2CWriteBytehh, %function
 215              	_Z12I2CWriteBytehh:
 216              		.fnstart
 217              	.LFB39:
 218              		.loc 1 110 0
 219              		.cfi_startproc
 220              		@ args = 0, pretend = 0, frame = 8
 221              		@ frame_needed = 0, uses_anonymous_args = 0
 222              	.LVL11:
 223 0000 10B5     		push	{r4, lr}
 224              		.save {r4, lr}
 225              		.cfi_def_cfa_offset 8
 226              		.cfi_offset 4, -8
 227              		.cfi_offset 14, -4
 228              		.pad #24
ARM GAS  /tmp/ccjRtbDD.s 			page 5


 229 0002 86B0     		sub	sp, sp, #24
 230              		.cfi_def_cfa_offset 32
 231              		.loc 1 110 0
 232 0004 06AA     		add	r2, sp, #24
 233 0006 02F8011D 		strb	r1, [r2, #-1]!
 234              	.LBB22:
 235              	.LBB23:
 236              		.loc 1 112 0
 237 000a 2023     		movs	r3, #32
 238              	@ 112 "main.cpp" 1
 239 000c 83F31188 		msr     BASEPRI, r3
 240              	@ 0 "" 2
 241              		.thumb
 242              	.LBE23:
 243              		.loc 1 113 0
 244 0010 0024     		movs	r4, #0
 245 0012 0123     		movs	r3, #1
 246 0014 0092     		str	r2, [sp]
 247 0016 0146     		mov	r1, r0
 248              	.LVL12:
 249 0018 0193     		str	r3, [sp, #4]
 250 001a 0294     		str	r4, [sp, #8]
 251 001c 2346     		mov	r3, r4
 252 001e 2246     		mov	r2, r4
 253              	.LVL13:
 254 0020 0348     		ldr	r0, .L14
 255              	.LVL14:
 256 0022 FFF7FEFF 		bl	TWID_Write
 257              	.LVL15:
 258              	.LBB24:
 259              		.loc 1 114 0
 260 0026 2346     		mov	r3, r4
 261              	@ 114 "main.cpp" 1
 262 0028 83F31188 		msr     BASEPRI, r3
 263              	@ 0 "" 2
 264              		.thumb
 265              	.LBE24:
 266              	.LBE22:
 267              		.loc 1 115 0
 268 002c 06B0     		add	sp, sp, #24
 269              		.cfi_def_cfa_offset 8
 270              	.LVL16:
 271              		@ sp needed
 272 002e 10BD     		pop	{r4, pc}
 273              	.LVL17:
 274              	.L15:
 275              		.align	2
 276              	.L14:
 277 0030 00000000 		.word	.LANCHOR1
 278              		.cfi_endproc
 279              	.LFE39:
 280              		.fnend
 281              		.size	_Z12I2CWriteBytehh, .-_Z12I2CWriteBytehh
 282              		.section	.text._Z11I2CReadByteh,"ax",%progbits
 283              		.align	2
 284              		.p2align 4,,15
 285              		.global	_Z11I2CReadByteh
ARM GAS  /tmp/ccjRtbDD.s 			page 6


 286              		.thumb
 287              		.thumb_func
 288              		.type	_Z11I2CReadByteh, %function
 289              	_Z11I2CReadByteh:
 290              		.fnstart
 291              	.LFB40:
 292              		.loc 1 117 0
 293              		.cfi_startproc
 294              		@ args = 0, pretend = 0, frame = 8
 295              		@ frame_needed = 0, uses_anonymous_args = 0
 296              	.LVL18:
 297 0000 30B5     		push	{r4, r5, lr}
 298              		.save {r4, r5, lr}
 299              		.cfi_def_cfa_offset 12
 300              		.cfi_offset 4, -12
 301              		.cfi_offset 5, -8
 302              		.cfi_offset 14, -4
 303 0002 0146     		mov	r1, r0
 304              		.pad #28
 305 0004 87B0     		sub	sp, sp, #28
 306              		.cfi_def_cfa_offset 40
 307              	.LBB25:
 308              	.LBB26:
 309              		.loc 1 119 0
 310 0006 2023     		movs	r3, #32
 311              	@ 119 "main.cpp" 1
 312 0008 83F31188 		msr     BASEPRI, r3
 313              	@ 0 "" 2
 314              		.thumb
 315              	.LBE26:
 316              		.loc 1 123 0
 317 000c 0123     		movs	r3, #1
 318 000e 0022     		movs	r2, #0
 319 0010 0DF11704 		add	r4, sp, #23
 320 0014 0193     		str	r3, [sp, #4]
 321 0016 0094     		str	r4, [sp]
 322 0018 0292     		str	r2, [sp, #8]
 323 001a 1346     		mov	r3, r2
 324 001c 0548     		ldr	r0, .L19
 325              	.LVL19:
 326 001e FFF7FEFF 		bl	TWID_Read
 327              	.LVL20:
 328 0022 08B9     		cbnz	r0, .L17
 329              		.loc 1 123 0 is_stmt 0 discriminator 2
 330 0024 9DF81750 		ldrb	r5, [sp, #23]	@ zero_extendqisi2
 331              	.LVL21:
 332              	.L17:
 333              	.LBB27:
 334              		.loc 1 124 0 is_stmt 1
 335 0028 0023     		movs	r3, #0
 336              	@ 124 "main.cpp" 1
 337 002a 83F31188 		msr     BASEPRI, r3
 338              	@ 0 "" 2
 339              		.thumb
 340              	.LBE27:
 341              	.LBE25:
 342              		.loc 1 126 0
ARM GAS  /tmp/ccjRtbDD.s 			page 7


 343 002e 2846     		mov	r0, r5
 344 0030 07B0     		add	sp, sp, #28
 345              		.cfi_def_cfa_offset 12
 346              		@ sp needed
 347 0032 30BD     		pop	{r4, r5, pc}
 348              	.LVL22:
 349              	.L20:
 350              		.align	2
 351              	.L19:
 352 0034 00000000 		.word	.LANCHOR1
 353              		.cfi_endproc
 354              	.LFE40:
 355              		.fnend
 356              		.size	_Z11I2CReadByteh, .-_Z11I2CReadByteh
 357              		.section	.text._Z13I2CWriteByteshhh,"ax",%progbits
 358              		.align	2
 359              		.p2align 4,,15
 360              		.global	_Z13I2CWriteByteshhh
 361              		.thumb
 362              		.thumb_func
 363              		.type	_Z13I2CWriteByteshhh, %function
 364              	_Z13I2CWriteByteshhh:
 365              		.fnstart
 366              	.LFB41:
 367              		.loc 1 128 0
 368              		.cfi_startproc
 369              		@ args = 0, pretend = 0, frame = 8
 370              		@ frame_needed = 0, uses_anonymous_args = 0
 371              	.LVL23:
 372 0000 70B5     		push	{r4, r5, r6, lr}
 373              		.save {r4, r5, r6, lr}
 374              		.cfi_def_cfa_offset 16
 375              		.cfi_offset 4, -16
 376              		.cfi_offset 5, -12
 377              		.cfi_offset 6, -8
 378              		.cfi_offset 14, -4
 379              		.pad #24
 380 0002 86B0     		sub	sp, sp, #24
 381              		.cfi_def_cfa_offset 40
 382              		.loc 1 128 0
 383 0004 06AC     		add	r4, sp, #24
 384 0006 0E46     		mov	r6, r1
 385 0008 04F8012D 		strb	r2, [r4, #-1]!
 386              	.LBB28:
 387              	.LBB29:
 388              		.loc 1 130 0
 389 000c 2023     		movs	r3, #32
 390              	@ 130 "main.cpp" 1
 391 000e 83F31188 		msr     BASEPRI, r3
 392              	@ 0 "" 2
 393              		.thumb
 394              	.LBE29:
 395              		.loc 1 131 0
 396 0012 0123     		movs	r3, #1
 397 0014 0025     		movs	r5, #0
 398 0016 0146     		mov	r1, r0
 399              	.LVL24:
ARM GAS  /tmp/ccjRtbDD.s 			page 8


 400 0018 0193     		str	r3, [sp, #4]
 401 001a 0094     		str	r4, [sp]
 402 001c 3246     		mov	r2, r6
 403              	.LVL25:
 404 001e 0295     		str	r5, [sp, #8]
 405 0020 0348     		ldr	r0, .L23
 406              	.LVL26:
 407 0022 FFF7FEFF 		bl	TWID_Write
 408              	.LVL27:
 409              	.LBB30:
 410              		.loc 1 132 0
 411 0026 2B46     		mov	r3, r5
 412              	@ 132 "main.cpp" 1
 413 0028 83F31188 		msr     BASEPRI, r3
 414              	@ 0 "" 2
 415              		.thumb
 416              	.LBE30:
 417              	.LBE28:
 418              		.loc 1 133 0
 419 002c 06B0     		add	sp, sp, #24
 420              		.cfi_def_cfa_offset 16
 421              		@ sp needed
 422 002e 70BD     		pop	{r4, r5, r6, pc}
 423              	.LVL28:
 424              	.L24:
 425              		.align	2
 426              	.L23:
 427 0030 00000000 		.word	.LANCHOR1
 428              		.cfi_endproc
 429              	.LFE41:
 430              		.fnend
 431              		.size	_Z13I2CWriteByteshhh, .-_Z13I2CWriteByteshhh
 432              		.section	.text._Z16I2CdevwriteWordshhtm,"ax",%progbits
 433              		.align	2
 434              		.p2align 4,,15
 435              		.global	_Z16I2CdevwriteWordshhtm
 436              		.thumb
 437              		.thumb_func
 438              		.type	_Z16I2CdevwriteWordshhtm, %function
 439              	_Z16I2CdevwriteWordshhtm:
 440              		.fnstart
 441              	.LFB42:
 442              		.loc 1 153 0
 443              		.cfi_startproc
 444              		@ args = 0, pretend = 0, frame = 0
 445              		@ frame_needed = 1, uses_anonymous_args = 0
 446              	.LVL29:
 447 0000 F0B5     		push	{r4, r5, r6, r7, lr}
 448              		.save {r4, r5, r6, r7, lr}
 449              		.cfi_def_cfa_offset 20
 450              		.cfi_offset 4, -20
 451              		.cfi_offset 5, -16
 452              		.cfi_offset 6, -12
 453              		.cfi_offset 7, -8
 454              		.cfi_offset 14, -4
 455 0002 1E46     		mov	r6, r3
 456              	.LVL30:
ARM GAS  /tmp/ccjRtbDD.s 			page 9


 457              	.LBB31:
 458              		.loc 1 156 0
 459 0004 0733     		adds	r3, r3, #7
 460              	.LVL31:
 461              	.LBE31:
 462              		.loc 1 153 0
 463              		.pad #20
 464 0006 85B0     		sub	sp, sp, #20
 465              		.cfi_def_cfa_offset 40
 466              	.LBB34:
 467              		.loc 1 156 0
 468 0008 23F00703 		bic	r3, r3, #7
 469              	.LBE34:
 470              		.loc 1 153 0
 471              		.setfp r7, sp, #16
 472 000c 04AF     		add	r7, sp, #16
 473              		.cfi_def_cfa 7, 24
 474              	.LBB35:
 475              		.loc 1 156 0
 476 000e ADEB030D 		sub	sp, sp, r3
 477              	.LBE35:
 478              		.loc 1 153 0
 479 0012 8C46     		mov	ip, r1
 480              	.LBB36:
 481              		.loc 1 156 0
 482 0014 04A9     		add	r1, sp, #16
 483              	.LVL32:
 484              		.loc 1 157 0
 485 0016 5EB1     		cbz	r6, .L28
 486 0018 4FEA122E 		lsr	lr, r2, #8
 487 001c 0023     		movs	r3, #0
 488 001e D2B2     		uxtb	r2, r2
 489              	.LVL33:
 490              	.L27:
 491              		.loc 1 157 0 is_stmt 0 discriminator 3
 492 0020 9D1C     		adds	r5, r3, #2
 493              		.loc 1 159 0 is_stmt 1 discriminator 3
 494 0022 01F803E0 		strb	lr, [r1, r3]
 495              		.loc 1 161 0 discriminator 3
 496 0026 CC18     		adds	r4, r1, r3
 497              		.loc 1 157 0 discriminator 3
 498 0028 EBB2     		uxtb	r3, r5
 499              	.LVL34:
 500 002a 9E42     		cmp	r6, r3
 501              		.loc 1 161 0 discriminator 3
 502 002c 6270     		strb	r2, [r4, #1]
 503              		.loc 1 157 0 discriminator 3
 504 002e F7D8     		bhi	.L27
 505              	.LVL35:
 506              	.L28:
 507              	.LBB32:
 508              		.loc 1 165 0
 509 0030 2023     		movs	r3, #32
 510              	@ 165 "main.cpp" 1
 511 0032 83F31188 		msr     BASEPRI, r3
 512              	@ 0 "" 2
 513              		.thumb
ARM GAS  /tmp/ccjRtbDD.s 			page 10


 514              	.LBE32:
 515              		.loc 1 167 0
 516 0036 0024     		movs	r4, #0
 517 0038 8DE84200 		stmia	sp, {r1, r6}
 518 003c 6246     		mov	r2, ip
 519 003e 0146     		mov	r1, r0
 520              	.LVL36:
 521 0040 0294     		str	r4, [sp, #8]
 522 0042 0123     		movs	r3, #1
 523 0044 0448     		ldr	r0, .L32
 524              	.LVL37:
 525 0046 FFF7FEFF 		bl	TWID_Write
 526              	.LVL38:
 527              	.LBB33:
 528              		.loc 1 168 0
 529 004a 2346     		mov	r3, r4
 530              	@ 168 "main.cpp" 1
 531 004c 83F31188 		msr     BASEPRI, r3
 532              	@ 0 "" 2
 533              		.thumb
 534              	.LBE33:
 535              	.LBE36:
 536              		.loc 1 169 0
 537 0050 0437     		adds	r7, r7, #4
 538              		.cfi_def_cfa_offset 20
 539 0052 BD46     		mov	sp, r7
 540              		.cfi_def_cfa_register 13
 541              	.LVL39:
 542              		@ sp needed
 543 0054 F0BD     		pop	{r4, r5, r6, r7, pc}
 544              	.LVL40:
 545              	.L33:
 546 0056 00BF     		.align	2
 547              	.L32:
 548 0058 00000000 		.word	.LANCHOR1
 549              		.cfi_endproc
 550              	.LFE42:
 551              		.fnend
 552              		.size	_Z16I2CdevwriteWordshhtm, .-_Z16I2CdevwriteWordshhtm
 553              		.section	.text._Z12I2CReadByteshhPhh,"ax",%progbits
 554              		.align	2
 555              		.p2align 4,,15
 556              		.global	_Z12I2CReadByteshhPhh
 557              		.thumb
 558              		.thumb_func
 559              		.type	_Z12I2CReadByteshhPhh, %function
 560              	_Z12I2CReadByteshhPhh:
 561              		.fnstart
 562              	.LFB43:
 563              		.loc 1 174 0
 564              		.cfi_startproc
 565              		@ args = 0, pretend = 0, frame = 0
 566              		@ frame_needed = 0, uses_anonymous_args = 0
 567              	.LVL41:
 568 0000 70B5     		push	{r4, r5, r6, lr}
 569              		.save {r4, r5, r6, lr}
 570              		.cfi_def_cfa_offset 16
ARM GAS  /tmp/ccjRtbDD.s 			page 11


 571              		.cfi_offset 4, -16
 572              		.cfi_offset 5, -12
 573              		.cfi_offset 6, -8
 574              		.cfi_offset 14, -4
 575 0002 1C46     		mov	r4, r3
 576              		.pad #16
 577 0004 84B0     		sub	sp, sp, #16
 578              		.cfi_def_cfa_offset 32
 579              		.loc 1 174 0
 580 0006 0E46     		mov	r6, r1
 581              	.LBB37:
 582              	.LBB38:
 583              		.loc 1 175 0
 584 0008 2023     		movs	r3, #32
 585              	.LVL42:
 586              	@ 175 "main.cpp" 1
 587 000a 83F31188 		msr     BASEPRI, r3
 588              	@ 0 "" 2
 589              	.LVL43:
 590              		.thumb
 591              	.LBE38:
 592              		.loc 1 178 0
 593 000e 0025     		movs	r5, #0
 594 0010 8DE81400 		stmia	sp, {r2, r4}
 595 0014 0146     		mov	r1, r0
 596              	.LVL44:
 597 0016 3246     		mov	r2, r6
 598              	.LVL45:
 599 0018 0295     		str	r5, [sp, #8]
 600 001a 0123     		movs	r3, #1
 601 001c 0548     		ldr	r0, .L38
 602              	.LVL46:
 603 001e FFF7FEFF 		bl	TWID_Read
 604              	.LVL47:
 605 0022 A842     		cmp	r0, r5
 606              		.loc 1 176 0
 607 0024 18BF     		it	ne
 608 0026 2C46     		movne	r4, r5
 609              	.LVL48:
 610              	.LBB39:
 611              		.loc 1 181 0
 612 0028 2B46     		mov	r3, r5
 613              	@ 181 "main.cpp" 1
 614 002a 83F31188 		msr     BASEPRI, r3
 615              	@ 0 "" 2
 616              		.thumb
 617              	.LBE39:
 618              	.LBE37:
 619              		.loc 1 183 0
 620 002e 2046     		mov	r0, r4
 621 0030 04B0     		add	sp, sp, #16
 622              		.cfi_def_cfa_offset 16
 623              		@ sp needed
 624 0032 70BD     		pop	{r4, r5, r6, pc}
 625              	.LVL49:
 626              	.L39:
 627              		.align	2
ARM GAS  /tmp/ccjRtbDD.s 			page 12


 628              	.L38:
 629 0034 00000000 		.word	.LANCHOR1
 630              		.cfi_endproc
 631              	.LFE43:
 632              		.fnend
 633              		.size	_Z12I2CReadByteshhPhh, .-_Z12I2CReadByteshhPhh
 634              		.section	.text._Z13MPUinitializev,"ax",%progbits
 635              		.align	2
 636              		.p2align 4,,15
 637              		.global	_Z13MPUinitializev
 638              		.thumb
 639              		.thumb_func
 640              		.type	_Z13MPUinitializev, %function
 641              	_Z13MPUinitializev:
 642              		.fnstart
 643              	.LFB44:
 644              		.loc 1 238 0
 645              		.cfi_startproc
 646              		@ args = 0, pretend = 0, frame = 0
 647              		@ frame_needed = 0, uses_anonymous_args = 0
 648 0000 08B5     		push	{r3, lr}
 649              		.save {r3, lr}
 650              		.cfi_def_cfa_offset 8
 651              		.cfi_offset 3, -8
 652              		.cfi_offset 14, -4
 653              		.loc 1 247 0
 654 0002 6820     		movs	r0, #104
 655 0004 6B21     		movs	r1, #107
 656 0006 0122     		movs	r2, #1
 657 0008 FFF7FEFF 		bl	_Z13I2CWriteByteshhh
 658              	.LVL50:
 659              		.loc 1 248 0
 660 000c 6820     		movs	r0, #104
 661 000e 1B21     		movs	r1, #27
 662 0010 0022     		movs	r2, #0
 663 0012 FFF7FEFF 		bl	_Z13I2CWriteByteshhh
 664              	.LVL51:
 665              		.loc 1 249 0
 666 0016 6820     		movs	r0, #104
 667 0018 1C21     		movs	r1, #28
 668 001a 0022     		movs	r2, #0
 669 001c FFF7FEFF 		bl	_Z13I2CWriteByteshhh
 670              	.LVL52:
 671              		.loc 1 251 0
 672 0020 BDE80840 		pop	{r3, lr}
 673              		.cfi_restore 14
 674              		.cfi_restore 3
 675              		.cfi_def_cfa_offset 0
 676              		.loc 1 250 0
 677 0024 6820     		movs	r0, #104
 678 0026 6B21     		movs	r1, #107
 679 0028 0022     		movs	r2, #0
 680 002a FFF7FEBF 		b	_Z13I2CWriteByteshhh
 681              	.LVL53:
 682              		.cfi_endproc
 683              	.LFE44:
 684              		.fnend
ARM GAS  /tmp/ccjRtbDD.s 			page 13


 685              		.size	_Z13MPUinitializev, .-_Z13MPUinitializev
 686 002e 00BF     		.section	.text._Z8datosmpuv,"ax",%progbits
 687              		.align	2
 688              		.p2align 4,,15
 689              		.global	_Z8datosmpuv
 690              		.thumb
 691              		.thumb_func
 692              		.type	_Z8datosmpuv, %function
 693              	_Z8datosmpuv:
 694              		.fnstart
 695              	.LFB46:
 696              		.loc 1 272 0
 697              		.cfi_startproc
 698              		@ args = 0, pretend = 0, frame = 8
 699              		@ frame_needed = 0, uses_anonymous_args = 0
 700 0000 F0B5     		push	{r4, r5, r6, r7, lr}
 701              		.save {r4, r5, r6, r7, lr}
 702              		.cfi_def_cfa_offset 20
 703              		.cfi_offset 4, -20
 704              		.cfi_offset 5, -16
 705              		.cfi_offset 6, -12
 706              		.cfi_offset 7, -8
 707              		.cfi_offset 14, -4
 708              		.pad #12
 709 0002 83B0     		sub	sp, sp, #12
 710              		.cfi_def_cfa_offset 32
 711              	.LBB40:
 712              		.loc 1 283 0
 713 0004 6A46     		mov	r2, sp
 714 0006 3B21     		movs	r1, #59
 715 0008 0623     		movs	r3, #6
 716 000a 6820     		movs	r0, #104
 717 000c FFF7FEFF 		bl	_Z12I2CReadByteshhPhh
 718              	.LVL54:
 719              		.loc 1 284 0
 720 0010 9DF80110 		ldrb	r1, [sp, #1]	@ zero_extendqisi2
 721              		.loc 1 285 0
 722 0014 9DF80320 		ldrb	r2, [sp, #3]	@ zero_extendqisi2
 723              		.loc 1 286 0
 724 0018 9DF80400 		ldrb	r0, [sp, #4]	@ zero_extendqisi2
 725              		.loc 1 284 0
 726 001c 9DF80060 		ldrb	r6, [sp]	@ zero_extendqisi2
 727              		.loc 1 285 0
 728 0020 9DF80240 		ldrb	r4, [sp, #2]	@ zero_extendqisi2
 729              		.loc 1 286 0
 730 0024 9DF80530 		ldrb	r3, [sp, #5]	@ zero_extendqisi2
 731              		.loc 1 284 0
 732 0028 DFF87CE0 		ldr	lr, .L45+20
 733              		.loc 1 285 0
 734 002c 194F     		ldr	r7, .L45
 735              		.loc 1 286 0
 736 002e 1A4D     		ldr	r5, .L45+4
 737 0030 43EA0023 		orr	r3, r3, r0, lsl #8
 738              		.loc 1 284 0
 739 0034 41EA0626 		orr	r6, r1, r6, lsl #8
 740              		.loc 1 285 0
 741 0038 42EA0424 		orr	r4, r2, r4, lsl #8
ARM GAS  /tmp/ccjRtbDD.s 			page 14


 742              		.loc 1 289 0
 743 003c 6820     		movs	r0, #104
 744 003e 6B21     		movs	r1, #107
 745 0040 0022     		movs	r2, #0
 746              		.loc 1 284 0
 747 0042 AEF80060 		strh	r6, [lr]	@ movhi
 748              		.loc 1 285 0
 749 0046 3C80     		strh	r4, [r7]	@ movhi
 750              		.loc 1 286 0
 751 0048 2B80     		strh	r3, [r5]	@ movhi
 752              		.loc 1 289 0
 753 004a FFF7FEFF 		bl	_Z13I2CWriteByteshhh
 754              	.LVL55:
 755              		.loc 1 290 0
 756 004e 6A46     		mov	r2, sp
 757 0050 4321     		movs	r1, #67
 758 0052 0423     		movs	r3, #4
 759 0054 6820     		movs	r0, #104
 760 0056 FFF7FEFF 		bl	_Z12I2CReadByteshhPhh
 761              	.LVL56:
 762              		.loc 1 295 0
 763 005a 1049     		ldr	r1, .L45+8
 764              		.loc 1 291 0
 765 005c 9DF80070 		ldrb	r7, [sp]	@ zero_extendqisi2
 766 0060 9DF80120 		ldrb	r2, [sp, #1]	@ zero_extendqisi2
 767              		.loc 1 292 0
 768 0064 9DF80260 		ldrb	r6, [sp, #2]	@ zero_extendqisi2
 769 0068 9DF80330 		ldrb	r3, [sp, #3]	@ zero_extendqisi2
 770              		.loc 1 295 0
 771 006c 0978     		ldrb	r1, [r1]	@ zero_extendqisi2
 772              		.loc 1 291 0
 773 006e 0C4C     		ldr	r4, .L45+12
 774              		.loc 1 292 0
 775 0070 0C48     		ldr	r0, .L45+16
 776              		.loc 1 291 0
 777 0072 42EA0722 		orr	r2, r2, r7, lsl #8
 778              		.loc 1 292 0
 779 0076 43EA0623 		orr	r3, r3, r6, lsl #8
 780              		.loc 1 295 0
 781 007a 0129     		cmp	r1, #1
 782              		.loc 1 291 0
 783 007c 2280     		strh	r2, [r4]	@ movhi
 784              		.loc 1 292 0
 785 007e 0380     		strh	r3, [r0]	@ movhi
 786              		.loc 1 295 0
 787 0080 03D1     		bne	.L43
 788              		.loc 1 295 0 is_stmt 0 discriminator 1
 789 0082 2B88     		ldrh	r3, [r5]
 790 0084 A3F50053 		sub	r3, r3, #8192
 791 0088 2B80     		strh	r3, [r5]	@ movhi
 792              	.L43:
 793              		.loc 1 299 0 is_stmt 1
 794 008a 0220     		movs	r0, #2
 795 008c FFF7FEFF 		bl	chThdSleep
 796              	.LVL57:
 797              	.LBE40:
 798              		.loc 1 301 0
ARM GAS  /tmp/ccjRtbDD.s 			page 15


 799 0090 03B0     		add	sp, sp, #12
 800              		.cfi_def_cfa_offset 20
 801              		@ sp needed
 802 0092 F0BD     		pop	{r4, r5, r6, r7, pc}
 803              	.L46:
 804              		.align	2
 805              	.L45:
 806 0094 00000000 		.word	.LANCHOR3
 807 0098 00000000 		.word	.LANCHOR4
 808 009c 00000000 		.word	.LANCHOR7
 809 00a0 00000000 		.word	.LANCHOR5
 810 00a4 00000000 		.word	.LANCHOR6
 811 00a8 00000000 		.word	.LANCHOR2
 812              		.cfi_endproc
 813              	.LFE46:
 814              		.fnend
 815              		.size	_Z8datosmpuv, .-_Z8datosmpuv
 816              		.section	.text._ZL14Acelero_ThreadPv,"ax",%progbits
 817              		.align	2
 818              		.p2align 4,,15
 819              		.thumb
 820              		.thumb_func
 821              		.type	_ZL14Acelero_ThreadPv, %function
 822              	_ZL14Acelero_ThreadPv:
 823              		.fnstart
 824              	.LFB51:
 825              		.loc 1 454 0
 826              		.cfi_startproc
 827              		@ args = 0, pretend = 0, frame = 8
 828              		@ frame_needed = 0, uses_anonymous_args = 0
 829              	.LVL58:
 830 0000 2DE9F04F 		push	{r4, r5, r6, r7, r8, r9, r10, fp, lr}
 831              		.save {r4, r5, r6, r7, r8, r9, r10, fp, lr}
 832              		.cfi_def_cfa_offset 36
 833              		.cfi_offset 4, -36
 834              		.cfi_offset 5, -32
 835              		.cfi_offset 6, -28
 836              		.cfi_offset 7, -24
 837              		.cfi_offset 8, -20
 838              		.cfi_offset 9, -16
 839              		.cfi_offset 10, -12
 840              		.cfi_offset 11, -8
 841              		.cfi_offset 14, -4
 842              		.loc 1 471 0
 843 0004 2A4B     		ldr	r3, .L54
 844              		.loc 1 454 0
 845              		.pad #28
 846 0006 87B0     		sub	sp, sp, #28
 847              		.cfi_def_cfa_offset 64
 848              		.loc 1 465 0
 849 0008 41F28830 		movw	r0, #5000
 850              	.LVL59:
 851              		.loc 1 490 0
 852 000c 9B46     		mov	fp, r3
 853 000e 0593     		str	r3, [sp, #20]
 854 0010 9A46     		mov	r10, r3
 855              		.loc 1 465 0
ARM GAS  /tmp/ccjRtbDD.s 			page 16


 856 0012 FFF7FEFF 		bl	chThdSleep
 857              	.LVL60:
 858              		.loc 1 468 0
 859 0016 FFF7FEFF 		bl	_Z13MPUinitializev
 860              	.LVL61:
 861              		.loc 1 471 0
 862 001a 059B     		ldr	r3, [sp, #20]
 863 001c 254C     		ldr	r4, .L54+4
 864 001e 1846     		mov	r0, r3
 865 0020 FFF7FEFF 		bl	ADC_Initialize
 866              	.LVL62:
 867              		.loc 1 482 0
 868 0024 059B     		ldr	r3, [sp, #20]
 869 0026 0B22     		movs	r2, #11
 870 0028 1846     		mov	r0, r3
 871 002a 0F21     		movs	r1, #15
 872 002c FFF7FEFF 		bl	ADC_cfgFrequency
 873              	.LVL63:
 874              		.loc 1 483 0
 875 0030 059B     		ldr	r3, [sp, #20]
 876 0032 2149     		ldr	r1, .L54+8
 877 0034 1846     		mov	r0, r3
 878 0036 FFF7FEFF 		bl	ADC_check
 879              	.LVL64:
 880              		.loc 1 484 0
 881 003a 059B     		ldr	r3, [sp, #20]
 882 003c 0122     		movs	r2, #1
 883 003e 1A61     		str	r2, [r3, #16]
 884              		.loc 1 485 0
 885 0040 5A68     		ldr	r2, [r3, #4]
 886              		.loc 1 486 0
 887 0042 0221     		movs	r1, #2
 888              		.loc 1 485 0
 889 0044 42F08002 		orr	r2, r2, #128
 890 0048 DFF88490 		ldr	r9, .L54+32
 891 004c DFF88480 		ldr	r8, .L54+36
 892 0050 1A4F     		ldr	r7, .L54+12
 893 0052 1B4E     		ldr	r6, .L54+16
 894 0054 1B4D     		ldr	r5, .L54+20
 895 0056 5A60     		str	r2, [r3, #4]
 896              		.loc 1 486 0
 897 0058 1960     		str	r1, [r3]
 898              	.L48:
 899              		.loc 1 490 0 discriminator 1
 900 005a DBF83030 		ldr	r3, [fp, #48]
 901 005e DB07     		lsls	r3, r3, #31
 902 0060 FBD5     		bpl	.L48
 903              		.loc 1 491 0
 904 0062 0A20     		movs	r0, #10
 905 0064 FFF7FEFF 		bl	chThdSleep
 906              	.LVL65:
 907              		.loc 1 492 0
 908 0068 DAF85030 		ldr	r3, [r10, #80]
 909 006c 2360     		str	r3, [r4]
 910              		.loc 1 493 0
 911 006e FFF7FEFF 		bl	_Z8datosmpuv
 912              	.LVL66:
ARM GAS  /tmp/ccjRtbDD.s 			page 17


 913              		.loc 1 495 0
 914 0072 40F6E44E 		movw	lr, #3300
 915 0076 2368     		ldr	r3, [r4]
 916 0078 B7F90010 		ldrsh	r1, [r7]
 917 007c 0EFB03FE 		mul	lr, lr, r3
 918 0080 BEF1000F 		cmp	lr, #0
 919 0084 B6F90020 		ldrsh	r2, [r6]
 920 0088 B5F90030 		ldrsh	r3, [r5]
 921 008c B8BF     		it	lt
 922 008e 0EF6FF7E 		addwlt	lr, lr, #4095
 923 0092 4FEA2E3E 		asr	lr, lr, #12
 924 0096 8DE80E00 		stmia	sp, {r1, r2, r3}
 925 009a 0B48     		ldr	r0, .L54+24
 926 009c B9F90020 		ldrsh	r2, [r9]
 927 00a0 B8F90030 		ldrsh	r3, [r8]
 928 00a4 0949     		ldr	r1, .L54+28
 929 00a6 CDF80CE0 		str	lr, [sp, #12]
 930 00aa FFF7FEFF 		bl	chprintf
 931              	.LVL67:
 932              		.loc 1 454 0
 933 00ae D4E7     		b	.L48
 934              	.L55:
 935              		.align	2
 936              	.L54:
 937 00b0 00800340 		.word	1073971200
 938 00b4 00000000 		.word	.LANCHOR8
 939 00b8 006CDC02 		.word	48000000
 940 00bc 00000000 		.word	.LANCHOR4
 941 00c0 00000000 		.word	.LANCHOR5
 942 00c4 00000000 		.word	.LANCHOR6
 943 00c8 00000000 		.word	SD2
 944 00cc 00000000 		.word	.LC0
 945 00d0 00000000 		.word	.LANCHOR2
 946 00d4 00000000 		.word	.LANCHOR3
 947              		.cfi_endproc
 948              	.LFE51:
 949              		.fnend
 950              		.size	_ZL14Acelero_ThreadPv, .-_ZL14Acelero_ThreadPv
 951              		.section	.text._Z6datos1PsS_S_S_S_S_,"ax",%progbits
 952              		.align	2
 953              		.p2align 4,,15
 954              		.global	_Z6datos1PsS_S_S_S_S_
 955              		.thumb
 956              		.thumb_func
 957              		.type	_Z6datos1PsS_S_S_S_S_, %function
 958              	_Z6datos1PsS_S_S_S_S_:
 959              		.fnstart
 960              	.LFB47:
 961              		.loc 1 308 0
 962              		.cfi_startproc
 963              		@ args = 8, pretend = 0, frame = 16
 964              		@ frame_needed = 0, uses_anonymous_args = 0
 965              	.LVL68:
 966 0000 2DE9F04F 		push	{r4, r5, r6, r7, r8, r9, r10, fp, lr}
 967              		.save {r4, r5, r6, r7, r8, r9, r10, fp, lr}
 968              		.cfi_def_cfa_offset 36
 969              		.cfi_offset 4, -36
ARM GAS  /tmp/ccjRtbDD.s 			page 18


 970              		.cfi_offset 5, -32
 971              		.cfi_offset 6, -28
 972              		.cfi_offset 7, -24
 973              		.cfi_offset 8, -20
 974              		.cfi_offset 9, -16
 975              		.cfi_offset 10, -12
 976              		.cfi_offset 11, -8
 977              		.cfi_offset 14, -4
 978              		.pad #20
 979 0004 85B0     		sub	sp, sp, #20
 980              		.cfi_def_cfa_offset 56
 981              		.loc 1 308 0
 982 0006 8146     		mov	r9, r0
 983 0008 8846     		mov	r8, r1
 984 000a 1746     		mov	r7, r2
 985 000c 1E46     		mov	r6, r3
 986              	.LBB41:
 987              		.loc 1 310 0
 988 000e 6A46     		mov	r2, sp
 989              	.LVL69:
 990 0010 3B21     		movs	r1, #59
 991              	.LVL70:
 992 0012 0E23     		movs	r3, #14
 993              	.LVL71:
 994 0014 6820     		movs	r0, #104
 995              	.LVL72:
 996              	.LBE41:
 997              		.loc 1 308 0
 998 0016 0E9D     		ldr	r5, [sp, #56]
 999 0018 0F9C     		ldr	r4, [sp, #60]
 1000              	.LBB42:
 1001              		.loc 1 310 0
 1002 001a FFF7FEFF 		bl	_Z12I2CReadByteshhPhh
 1003              	.LVL73:
 1004              		.loc 1 311 0
 1005 001e 9DF800B0 		ldrb	fp, [sp]	@ zero_extendqisi2
 1006              		.loc 1 312 0
 1007 0022 9DF80320 		ldrb	r2, [sp, #3]	@ zero_extendqisi2
 1008              		.loc 1 313 0
 1009 0026 9DF804A0 		ldrb	r10, [sp, #4]	@ zero_extendqisi2
 1010              		.loc 1 314 0
 1011 002a 9DF80930 		ldrb	r3, [sp, #9]	@ zero_extendqisi2
 1012              		.loc 1 311 0
 1013 002e 9DF801C0 		ldrb	ip, [sp, #1]	@ zero_extendqisi2
 1014              		.loc 1 312 0
 1015 0032 9DF802E0 		ldrb	lr, [sp, #2]	@ zero_extendqisi2
 1016              		.loc 1 313 0
 1017 0036 9DF80500 		ldrb	r0, [sp, #5]	@ zero_extendqisi2
 1018              		.loc 1 314 0
 1019 003a 9DF80810 		ldrb	r1, [sp, #8]	@ zero_extendqisi2
 1020              		.loc 1 311 0
 1021 003e 4CEA0B2C 		orr	ip, ip, fp, lsl #8
 1022              		.loc 1 312 0
 1023 0042 42EA0E2E 		orr	lr, r2, lr, lsl #8
 1024              		.loc 1 313 0
 1025 0046 40EA0A20 		orr	r0, r0, r10, lsl #8
 1026              		.loc 1 314 0
ARM GAS  /tmp/ccjRtbDD.s 			page 19


 1027 004a 43EA0121 		orr	r1, r3, r1, lsl #8
 1028              		.loc 1 315 0
 1029 004e 9DF80AB0 		ldrb	fp, [sp, #10]	@ zero_extendqisi2
 1030 0052 9DF80B20 		ldrb	r2, [sp, #11]	@ zero_extendqisi2
 1031              		.loc 1 316 0
 1032 0056 9DF80CA0 		ldrb	r10, [sp, #12]	@ zero_extendqisi2
 1033 005a 9DF80D30 		ldrb	r3, [sp, #13]	@ zero_extendqisi2
 1034              		.loc 1 315 0
 1035 005e 42EA0B22 		orr	r2, r2, fp, lsl #8
 1036              		.loc 1 316 0
 1037 0062 43EA0A23 		orr	r3, r3, r10, lsl #8
 1038              		.loc 1 311 0
 1039 0066 A9F800C0 		strh	ip, [r9]	@ movhi
 1040              		.loc 1 312 0
 1041 006a A8F800E0 		strh	lr, [r8]	@ movhi
 1042              		.loc 1 313 0
 1043 006e 3880     		strh	r0, [r7]	@ movhi
 1044              		.loc 1 314 0
 1045 0070 3180     		strh	r1, [r6]	@ movhi
 1046              		.loc 1 315 0
 1047 0072 2A80     		strh	r2, [r5]	@ movhi
 1048              		.loc 1 316 0
 1049 0074 2380     		strh	r3, [r4]	@ movhi
 1050              	.LBE42:
 1051              		.loc 1 317 0
 1052 0076 05B0     		add	sp, sp, #20
 1053              		.cfi_def_cfa_offset 36
 1054              		@ sp needed
 1055 0078 BDE8F08F 		pop	{r4, r5, r6, r7, r8, r9, r10, fp, pc}
 1056              		.cfi_endproc
 1057              	.LFE47:
 1058              		.fnend
 1059              		.size	_Z6datos1PsS_S_S_S_S_, .-_Z6datos1PsS_S_S_S_S_
 1060              		.section	.text._Z11meansensorsv,"ax",%progbits
 1061              		.align	2
 1062              		.p2align 4,,15
 1063              		.global	_Z11meansensorsv
 1064              		.thumb
 1065              		.thumb_func
 1066              		.type	_Z11meansensorsv, %function
 1067              	_Z11meansensorsv:
 1068              		.fnstart
 1069              	.LFB48:
 1070              		.loc 1 319 0
 1071              		.cfi_startproc
 1072              		@ args = 0, pretend = 0, frame = 32
 1073              		@ frame_needed = 0, uses_anonymous_args = 0
 1074              	.LVL74:
 1075 0000 2DE9F04F 		push	{r4, r5, r6, r7, r8, r9, r10, fp, lr}
 1076              		.save {r4, r5, r6, r7, r8, r9, r10, fp, lr}
 1077              		.cfi_def_cfa_offset 36
 1078              		.cfi_offset 4, -36
 1079              		.cfi_offset 5, -32
 1080              		.cfi_offset 6, -28
 1081              		.cfi_offset 7, -24
 1082              		.cfi_offset 8, -20
 1083              		.cfi_offset 9, -16
ARM GAS  /tmp/ccjRtbDD.s 			page 20


 1084              		.cfi_offset 10, -12
 1085              		.cfi_offset 11, -8
 1086              		.cfi_offset 14, -4
 1087              	.LBB43:
 1088              		.loc 1 322 0
 1089 0004 DFF860B1 		ldr	fp, .L68+40
 1090              	.LBE43:
 1091              		.loc 1 319 0
 1092              		.pad #44
 1093 0008 8BB0     		sub	sp, sp, #44
 1094              		.cfi_def_cfa_offset 80
 1095              	.LBB44:
 1096              		.loc 1 322 0
 1097 000a BBF90030 		ldrsh	r3, [fp]
 1098 000e 6433     		adds	r3, r3, #100
 1099 0010 C0F29380 		blt	.L58
 1100              		.loc 1 324 0
 1101 0014 4A4B     		ldr	r3, .L68
 1102 0016 4B48     		ldr	r0, .L68+4
 1103 0018 0093     		str	r3, [sp]
 1104 001a 4B4B     		ldr	r3, .L68+8
 1105 001c 4B49     		ldr	r1, .L68+12
 1106 001e 0193     		str	r3, [sp, #4]
 1107 0020 4B4A     		ldr	r2, .L68+16
 1108 0022 4C4B     		ldr	r3, .L68+20
 1109 0024 FFF7FEFF 		bl	_Z6datos1PsS_S_S_S_S_
 1110              	.LVL75:
 1111 0028 4FF00009 		mov	r9, #0
 1112 002c BBF90030 		ldrsh	r3, [fp]
 1113 0030 CDF81C90 		str	r9, [sp, #28]
 1114 0034 CDF81890 		str	r9, [sp, #24]
 1115 0038 CDF81490 		str	r9, [sp, #20]
 1116 003c CDF81090 		str	r9, [sp, #16]
 1117 0040 CDF80C90 		str	r9, [sp, #12]
 1118 0044 CDF80890 		str	r9, [sp, #8]
 1119              	.LVL76:
 1120              	.L65:
 1121              		.loc 1 334 0
 1122 0048 03F16402 		add	r2, r3, #100
 1123 004c 4A45     		cmp	r2, r9
 1124              		.loc 1 343 0
 1125 004e 4FF00200 		mov	r0, #2
 1126              		.loc 1 324 0
 1127 0052 3C4C     		ldr	r4, .L68+4
 1128 0054 3D4D     		ldr	r5, .L68+12
 1129 0056 3E4E     		ldr	r6, .L68+16
 1130 0058 3E4F     		ldr	r7, .L68+20
 1131              		.loc 1 342 0
 1132 005a 09F10109 		add	r9, r9, #1
 1133              	.LVL77:
 1134              		.loc 1 322 0
 1135 005e DFF80881 		ldr	r8, .L68+40
 1136              		.loc 1 324 0
 1137 0062 DFF8DCA0 		ldr	r10, .L68
 1138              		.loc 1 334 0
 1139 0066 39D0     		beq	.L67
 1140              		.loc 1 343 0
ARM GAS  /tmp/ccjRtbDD.s 			page 21


 1141 0068 FFF7FEFF 		bl	chThdSleep
 1142              	.LVL78:
 1143              		.loc 1 322 0
 1144 006c BBF90030 		ldrsh	r3, [fp]
 1145 0070 6433     		adds	r3, r3, #100
 1146 0072 4B45     		cmp	r3, r9
 1147 0074 61DB     		blt	.L58
 1148              	.L63:
 1149              		.loc 1 324 0
 1150 0076 324B     		ldr	r3, .L68
 1151 0078 2046     		mov	r0, r4
 1152 007a 0093     		str	r3, [sp]
 1153 007c 324B     		ldr	r3, .L68+8
 1154 007e 2946     		mov	r1, r5
 1155 0080 0193     		str	r3, [sp, #4]
 1156 0082 3246     		mov	r2, r6
 1157 0084 3B46     		mov	r3, r7
 1158 0086 FFF7FEFF 		bl	_Z6datos1PsS_S_S_S_S_
 1159              	.LVL79:
 1160              		.loc 1 326 0
 1161 008a B9F1640F 		cmp	r9, #100
 1162 008e B8F90030 		ldrsh	r3, [r8]
 1163 0092 D9DD     		ble	.L65
 1164              		.loc 1 326 0 is_stmt 0 discriminator 1
 1165 0094 03F16402 		add	r2, r3, #100
 1166 0098 4A45     		cmp	r2, r9
 1167 009a D5DB     		blt	.L65
 1168              		.loc 1 327 0 is_stmt 1
 1169 009c B4F900E0 		ldrsh	lr, [r4]
 1170              		.loc 1 329 0
 1171 00a0 B6F90040 		ldrsh	r4, [r6]
 1172              		.loc 1 327 0
 1173 00a4 029E     		ldr	r6, [sp, #8]
 1174              		.loc 1 328 0
 1175 00a6 B5F90050 		ldrsh	r5, [r5]
 1176              		.loc 1 327 0
 1177 00aa 7644     		add	r6, r6, lr
 1178 00ac 0296     		str	r6, [sp, #8]
 1179              	.LVL80:
 1180              		.loc 1 328 0
 1181 00ae 039E     		ldr	r6, [sp, #12]
 1182              	.LVL81:
 1183              		.loc 1 330 0
 1184 00b0 B7F90000 		ldrsh	r0, [r7]
 1185              		.loc 1 328 0
 1186 00b4 2E44     		add	r6, r6, r5
 1187              		.loc 1 329 0
 1188 00b6 049D     		ldr	r5, [sp, #16]
 1189              		.loc 1 331 0
 1190 00b8 BAF90010 		ldrsh	r1, [r10]
 1191              		.loc 1 329 0
 1192 00bc 2544     		add	r5, r5, r4
 1193              		.loc 1 330 0
 1194 00be 059C     		ldr	r4, [sp, #20]
 1195              		.loc 1 332 0
 1196 00c0 214A     		ldr	r2, .L68+8
 1197              		.loc 1 330 0
ARM GAS  /tmp/ccjRtbDD.s 			page 22


 1198 00c2 0444     		add	r4, r4, r0
 1199              		.loc 1 331 0
 1200 00c4 0698     		ldr	r0, [sp, #24]
 1201              		.loc 1 332 0
 1202 00c6 B2F90020 		ldrsh	r2, [r2]
 1203              		.loc 1 331 0
 1204 00ca 0844     		add	r0, r0, r1
 1205              		.loc 1 332 0
 1206 00cc 0799     		ldr	r1, [sp, #28]
 1207              		.loc 1 328 0
 1208 00ce 0396     		str	r6, [sp, #12]
 1209              	.LVL82:
 1210              		.loc 1 332 0
 1211 00d0 1144     		add	r1, r1, r2
 1212              		.loc 1 329 0
 1213 00d2 0495     		str	r5, [sp, #16]
 1214              	.LVL83:
 1215              		.loc 1 330 0
 1216 00d4 0594     		str	r4, [sp, #20]
 1217              	.LVL84:
 1218              		.loc 1 331 0
 1219 00d6 0690     		str	r0, [sp, #24]
 1220              	.LVL85:
 1221              		.loc 1 332 0
 1222 00d8 0791     		str	r1, [sp, #28]
 1223              	.LVL86:
 1224 00da B5E7     		b	.L65
 1225              	.LVL87:
 1226              	.L67:
 1227              		.loc 1 336 0
 1228 00dc 0399     		ldr	r1, [sp, #12]
 1229              		.loc 1 335 0
 1230 00de 029A     		ldr	r2, [sp, #8]
 1231              		.loc 1 336 0
 1232 00e0 91FBF3FC 		sdiv	ip, r1, r3
 1233              		.loc 1 337 0
 1234 00e4 0499     		ldr	r1, [sp, #16]
 1235              		.loc 1 335 0
 1236 00e6 92FBF3F2 		sdiv	r2, r2, r3
 1237              		.loc 1 337 0
 1238 00ea 91FBF3FE 		sdiv	lr, r1, r3
 1239              		.loc 1 338 0
 1240 00ee 0599     		ldr	r1, [sp, #20]
 1241 00f0 91FBF3F1 		sdiv	r1, r1, r3
 1242 00f4 0891     		str	r1, [sp, #32]
 1243              		.loc 1 339 0
 1244 00f6 0699     		ldr	r1, [sp, #24]
 1245 00f8 91FBF3F1 		sdiv	r1, r1, r3
 1246 00fc 0991     		str	r1, [sp, #36]
 1247              		.loc 1 340 0
 1248 00fe 0799     		ldr	r1, [sp, #28]
 1249 0100 91FBF3F3 		sdiv	r3, r1, r3
 1250              		.loc 1 335 0
 1251 0104 1449     		ldr	r1, .L68+24
 1252 0106 0A60     		str	r2, [r1]
 1253              		.loc 1 336 0
 1254 0108 144A     		ldr	r2, .L68+28
ARM GAS  /tmp/ccjRtbDD.s 			page 23


 1255              		.loc 1 340 0
 1256 010a 1549     		ldr	r1, .L68+32
 1257              		.loc 1 336 0
 1258 010c C2F800C0 		str	ip, [r2]
 1259              		.loc 1 337 0
 1260 0110 144A     		ldr	r2, .L68+36
 1261              		.loc 1 338 0
 1262 0112 DFF858C0 		ldr	ip, .L68+44
 1263              		.loc 1 337 0
 1264 0116 C2F800E0 		str	lr, [r2]
 1265              		.loc 1 338 0
 1266 011a 089A     		ldr	r2, [sp, #32]
 1267              		.loc 1 339 0
 1268 011c DFF850E0 		ldr	lr, .L68+48
 1269              		.loc 1 338 0
 1270 0120 CCF80020 		str	r2, [ip]
 1271              		.loc 1 339 0
 1272 0124 099A     		ldr	r2, [sp, #36]
 1273              		.loc 1 340 0
 1274 0126 0B60     		str	r3, [r1]
 1275              		.loc 1 339 0
 1276 0128 CEF80020 		str	r2, [lr]
 1277              		.loc 1 343 0
 1278 012c FFF7FEFF 		bl	chThdSleep
 1279              	.LVL88:
 1280              		.loc 1 322 0
 1281 0130 BBF90030 		ldrsh	r3, [fp]
 1282 0134 6433     		adds	r3, r3, #100
 1283 0136 4B45     		cmp	r3, r9
 1284 0138 9DDA     		bge	.L63
 1285              	.LVL89:
 1286              	.L58:
 1287              	.LBE44:
 1288              		.loc 1 345 0
 1289 013a 0BB0     		add	sp, sp, #44
 1290              		.cfi_def_cfa_offset 36
 1291              		@ sp needed
 1292 013c BDE8F08F 		pop	{r4, r5, r6, r7, r8, r9, r10, fp, pc}
 1293              	.L69:
 1294              		.align	2
 1295              	.L68:
 1296 0140 00000000 		.word	.LANCHOR14
 1297 0144 00000000 		.word	.LANCHOR10
 1298 0148 00000000 		.word	.LANCHOR15
 1299 014c 00000000 		.word	.LANCHOR11
 1300 0150 00000000 		.word	.LANCHOR12
 1301 0154 00000000 		.word	.LANCHOR13
 1302 0158 00000000 		.word	.LANCHOR16
 1303 015c 00000000 		.word	.LANCHOR17
 1304 0160 00000000 		.word	.LANCHOR21
 1305 0164 00000000 		.word	.LANCHOR18
 1306 0168 00000000 		.word	.LANCHOR9
 1307 016c 00000000 		.word	.LANCHOR19
 1308 0170 00000000 		.word	.LANCHOR20
 1309              		.cfi_endproc
 1310              	.LFE48:
 1311              		.fnend
ARM GAS  /tmp/ccjRtbDD.s 			page 24


 1312              		.size	_Z11meansensorsv, .-_Z11meansensorsv
 1313              		.section	.text._Z11calibrationv,"ax",%progbits
 1314              		.align	2
 1315              		.p2align 4,,15
 1316              		.global	_Z11calibrationv
 1317              		.thumb
 1318              		.thumb_func
 1319              		.type	_Z11calibrationv, %function
 1320              	_Z11calibrationv:
 1321              		.fnstart
 1322              	.LFB49:
 1323              		.loc 1 347 0
 1324              		.cfi_startproc
 1325              		@ args = 0, pretend = 0, frame = 0
 1326              		@ frame_needed = 0, uses_anonymous_args = 0
 1327 0000 2DE9F04F 		push	{r4, r5, r6, r7, r8, r9, r10, fp, lr}
 1328              		.save {r4, r5, r6, r7, r8, r9, r10, fp, lr}
 1329              		.cfi_def_cfa_offset 36
 1330              		.cfi_offset 4, -36
 1331              		.cfi_offset 5, -32
 1332              		.cfi_offset 6, -28
 1333              		.cfi_offset 7, -24
 1334              		.cfi_offset 8, -20
 1335              		.cfi_offset 9, -16
 1336              		.cfi_offset 10, -12
 1337              		.cfi_offset 11, -8
 1338              		.cfi_offset 14, -4
 1339              	.LBB45:
 1340              		.loc 1 348 0
 1341 0004 904C     		ldr	r4, .L96
 1342              		.loc 1 349 0
 1343 0006 914D     		ldr	r5, .L96+4
 1344              		.loc 1 348 0
 1345 0008 2268     		ldr	r2, [r4]
 1346              		.loc 1 349 0
 1347 000a 2968     		ldr	r1, [r5]
 1348              		.loc 1 348 0
 1349 000c 002A     		cmp	r2, #0
 1350 000e B8BF     		it	lt
 1351 0010 0732     		addlt	r2, r2, #7
 1352 0012 D210     		asrs	r2, r2, #3
 1353              		.loc 1 349 0
 1354 0014 0029     		cmp	r1, #0
 1355              		.loc 1 348 0
 1356 0016 8E4B     		ldr	r3, .L96+8
 1357 0018 C2F10002 		rsb	r2, r2, #0
 1358              		.loc 1 350 0
 1359 001c 8D4E     		ldr	r6, .L96+12
 1360              		.loc 1 349 0
 1361 001e B8BF     		it	lt
 1362 0020 0731     		addlt	r1, r1, #7
 1363              		.loc 1 348 0
 1364 0022 92B2     		uxth	r2, r2
 1365              		.loc 1 349 0
 1366 0024 8C48     		ldr	r0, .L96+16
 1367              		.loc 1 348 0
 1368 0026 1A80     		strh	r2, [r3]	@ movhi
ARM GAS  /tmp/ccjRtbDD.s 			page 25


 1369              		.loc 1 349 0
 1370 0028 C910     		asrs	r1, r1, #3
 1371              		.loc 1 350 0
 1372 002a 3368     		ldr	r3, [r6]
 1373              		.loc 1 352 0
 1374 002c 8B4F     		ldr	r7, .L96+20
 1375              		.loc 1 349 0
 1376 002e 4942     		negs	r1, r1
 1377 0030 0180     		strh	r1, [r0]	@ movhi
 1378              		.loc 1 350 0
 1379 0032 D3F58041 		rsbs	r1, r3, #16384
 1380              		.loc 1 352 0
 1381 0036 3B68     		ldr	r3, [r7]
 1382              		.loc 1 350 0
 1383 0038 8948     		ldr	r0, .L96+24
 1384 003a 48BF     		it	mi
 1385 003c 0731     		addmi	r1, r1, #7
 1386              		.loc 1 352 0
 1387 003e 002B     		cmp	r3, #0
 1388              		.loc 1 350 0
 1389 0040 4FEAE101 		asr	r1, r1, #3
 1390              		.loc 1 352 0
 1391 0044 B8BF     		it	lt
 1392 0046 0333     		addlt	r3, r3, #3
 1393              		.loc 1 353 0
 1394 0048 DFF85082 		ldr	r8, .L96+84
 1395              		.loc 1 350 0
 1396 004c 0180     		strh	r1, [r0]	@ movhi
 1397              		.loc 1 352 0
 1398 004e 9B10     		asrs	r3, r3, #2
 1399 0050 8448     		ldr	r0, .L96+28
 1400              		.loc 1 354 0
 1401 0052 DFF84C92 		ldr	r9, .L96+88
 1402              		.loc 1 353 0
 1403 0056 D8F80010 		ldr	r1, [r8]
 1404              		.loc 1 352 0
 1405 005a 5B42     		negs	r3, r3
 1406 005c 0380     		strh	r3, [r0]	@ movhi
 1407              		.loc 1 354 0
 1408 005e D9F80030 		ldr	r3, [r9]
 1409              		.loc 1 353 0
 1410 0062 0029     		cmp	r1, #0
 1411 0064 B8BF     		it	lt
 1412 0066 0331     		addlt	r1, r1, #3
 1413              		.loc 1 354 0
 1414 0068 002B     		cmp	r3, #0
 1415 006a B8BF     		it	lt
 1416 006c 0333     		addlt	r3, r3, #3
 1417              		.loc 1 353 0
 1418 006e DFF834A2 		ldr	r10, .L96+92
 1419 0072 8910     		asrs	r1, r1, #2
 1420              		.loc 1 354 0
 1421 0074 DFF830B2 		ldr	fp, .L96+96
 1422 0078 9B10     		asrs	r3, r3, #2
 1423              		.loc 1 353 0
 1424 007a 4942     		negs	r1, r1
 1425              		.loc 1 354 0
ARM GAS  /tmp/ccjRtbDD.s 			page 26


 1426 007c 5B42     		negs	r3, r3
 1427              	.LBE45:
 1428              		.loc 1 347 0
 1429              		.pad #20
 1430 007e 85B0     		sub	sp, sp, #20
 1431              		.cfi_def_cfa_offset 56
 1432              	.LBB47:
 1433              		.loc 1 353 0
 1434 0080 AAF80010 		strh	r1, [r10]	@ movhi
 1435              		.loc 1 354 0
 1436 0084 ABF80030 		strh	r3, [fp]	@ movhi
 1437 0088 43E0     		b	.L89
 1438              	.LVL90:
 1439              	.L94:
 1440              	.LBB46:
 1441              		.loc 1 374 0
 1442 008a 93FBF1F3 		sdiv	r3, r3, r1
 1443              	.LVL91:
 1444 008e 704A     		ldr	r2, .L96+8
 1445 0090 1088     		ldrh	r0, [r2]
 1446              		.loc 1 356 0
 1447 0092 0022     		movs	r2, #0
 1448              		.loc 1 374 0
 1449 0094 C31A     		subs	r3, r0, r3
 1450 0096 6E48     		ldr	r0, .L96+8
 1451 0098 0380     		strh	r3, [r0]	@ movhi
 1452              	.LVL92:
 1453              		.loc 1 376 0
 1454 009a 2B68     		ldr	r3, [r5]
 1455              	.LVL93:
 1456 009c 83EAE370 		eor	r0, r3, r3, asr #31
 1457 00a0 A0EBE370 		sub	r0, r0, r3, asr #31
 1458 00a4 8142     		cmp	r1, r0
 1459 00a6 C0F2A180 		blt	.L78
 1460              	.LVL94:
 1461              	.L95:
 1462              		.loc 1 376 0 is_stmt 0 discriminator 1
 1463 00aa 0132     		adds	r2, r2, #1
 1464              	.LVL95:
 1465              	.L79:
 1466              		.loc 1 379 0 is_stmt 1
 1467 00ac 3368     		ldr	r3, [r6]
 1468 00ae C3F58043 		rsb	r3, r3, #16384
 1469              	.LVL96:
 1470 00b2 83EAE370 		eor	r0, r3, r3, asr #31
 1471 00b6 A0EBE370 		sub	r0, r0, r3, asr #31
 1472 00ba 8142     		cmp	r1, r0
 1473 00bc C0F2B980 		blt	.L80
 1474              		.loc 1 379 0 is_stmt 0 discriminator 1
 1475 00c0 0132     		adds	r2, r2, #1
 1476              	.LVL97:
 1477              	.L81:
 1478              		.loc 1 382 0 is_stmt 1
 1479 00c2 3968     		ldr	r1, [r7]
 1480              	.LVL98:
 1481 00c4 684B     		ldr	r3, .L96+32
 1482 00c6 81EAE170 		eor	r0, r1, r1, asr #31
ARM GAS  /tmp/ccjRtbDD.s 			page 27


 1483 00ca B3F90030 		ldrsh	r3, [r3]
 1484 00ce A0EBE170 		sub	r0, r0, r1, asr #31
 1485 00d2 8342     		cmp	r3, r0
 1486 00d4 C0F2A480 		blt	.L82
 1487              		.loc 1 382 0 is_stmt 0 discriminator 1
 1488 00d8 0132     		adds	r2, r2, #1
 1489              	.LVL99:
 1490              	.L83:
 1491              		.loc 1 385 0 is_stmt 1
 1492 00da D8F80010 		ldr	r1, [r8]
 1493              	.LVL100:
 1494 00de 81EAE170 		eor	r0, r1, r1, asr #31
 1495 00e2 A0EBE170 		sub	r0, r0, r1, asr #31
 1496 00e6 8342     		cmp	r3, r0
 1497 00e8 C0F29180 		blt	.L84
 1498              		.loc 1 385 0 is_stmt 0 discriminator 1
 1499 00ec 0132     		adds	r2, r2, #1
 1500              	.LVL101:
 1501              	.L85:
 1502              		.loc 1 388 0 is_stmt 1
 1503 00ee D9F80010 		ldr	r1, [r9]
 1504              	.LVL102:
 1505 00f2 81EAE170 		eor	r0, r1, r1, asr #31
 1506 00f6 A0EBE170 		sub	r0, r0, r1, asr #31
 1507 00fa 8342     		cmp	r3, r0
 1508 00fc 7EDB     		blt	.L86
 1509              		.loc 1 388 0 is_stmt 0 discriminator 1
 1510 00fe 0132     		adds	r2, r2, #1
 1511              	.LVL103:
 1512              		.loc 1 391 0 is_stmt 1 discriminator 1
 1513 0100 062A     		cmp	r2, #6
 1514 0102 00F09E80 		beq	.L93
 1515              	.LVL104:
 1516              	.L88:
 1517              		.loc 1 392 0
 1518 0106 5948     		ldr	r0, .L96+36
 1519 0108 5949     		ldr	r1, .L96+40
 1520 010a FFF7FEFF 		bl	chprintf
 1521              	.LVL105:
 1522 010e 504B     		ldr	r3, .L96+8
 1523 0110 1A88     		ldrh	r2, [r3]
 1524              	.L89:
 1525              	.LVL106:
 1526              		.loc 1 358 0
 1527 0112 6820     		movs	r0, #104
 1528 0114 0621     		movs	r1, #6
 1529 0116 0223     		movs	r3, #2
 1530 0118 FFF7FEFF 		bl	_Z16I2CdevwriteWordshhtm
 1531              	.LVL107:
 1532              		.loc 1 359 0
 1533 011c 4E4B     		ldr	r3, .L96+16
 1534 011e 6820     		movs	r0, #104
 1535 0120 1A88     		ldrh	r2, [r3]
 1536 0122 0821     		movs	r1, #8
 1537 0124 0223     		movs	r3, #2
 1538 0126 FFF7FEFF 		bl	_Z16I2CdevwriteWordshhtm
 1539              	.LVL108:
ARM GAS  /tmp/ccjRtbDD.s 			page 28


 1540              		.loc 1 360 0
 1541 012a 4D4B     		ldr	r3, .L96+24
 1542 012c 6820     		movs	r0, #104
 1543 012e 1A88     		ldrh	r2, [r3]
 1544 0130 0A21     		movs	r1, #10
 1545 0132 0223     		movs	r3, #2
 1546 0134 FFF7FEFF 		bl	_Z16I2CdevwriteWordshhtm
 1547              	.LVL109:
 1548              		.loc 1 361 0
 1549 0138 4A4B     		ldr	r3, .L96+28
 1550 013a 6820     		movs	r0, #104
 1551 013c 1A88     		ldrh	r2, [r3]
 1552 013e 1321     		movs	r1, #19
 1553 0140 0223     		movs	r3, #2
 1554 0142 FFF7FEFF 		bl	_Z16I2CdevwriteWordshhtm
 1555              	.LVL110:
 1556              		.loc 1 362 0
 1557 0146 6820     		movs	r0, #104
 1558 0148 1521     		movs	r1, #21
 1559 014a BAF80020 		ldrh	r2, [r10]
 1560 014e 0223     		movs	r3, #2
 1561 0150 FFF7FEFF 		bl	_Z16I2CdevwriteWordshhtm
 1562              	.LVL111:
 1563              		.loc 1 363 0
 1564 0154 BBF80020 		ldrh	r2, [fp]
 1565 0158 0223     		movs	r3, #2
 1566 015a 6820     		movs	r0, #104
 1567 015c 1721     		movs	r1, #23
 1568 015e FFF7FEFF 		bl	_Z16I2CdevwriteWordshhtm
 1569              	.LVL112:
 1570              		.loc 1 365 0
 1571 0162 FFF7FEFF 		bl	_Z11meansensorsv
 1572              	.LVL113:
 1573              		.loc 1 367 0
 1574 0166 4148     		ldr	r0, .L96+36
 1575 0168 4249     		ldr	r1, .L96+44
 1576 016a FFF7FEFF 		bl	chprintf
 1577              	.LVL114:
 1578              		.loc 1 368 0
 1579 016e 424B     		ldr	r3, .L96+48
 1580 0170 4248     		ldr	r0, .L96+52
 1581 0172 4349     		ldr	r1, .L96+56
 1582 0174 B3F90020 		ldrsh	r2, [r3]
 1583 0178 B0F900E0 		ldrsh	lr, [r0]
 1584 017c B1F90010 		ldrsh	r1, [r1]
 1585 0180 404B     		ldr	r3, .L96+60
 1586 0182 4148     		ldr	r0, .L96+64
 1587 0184 B3F90030 		ldrsh	r3, [r3]
 1588 0188 B0F90000 		ldrsh	r0, [r0]
 1589 018c 0091     		str	r1, [sp]
 1590 018e 3F49     		ldr	r1, .L96+68
 1591 0190 B1F90010 		ldrsh	r1, [r1]
 1592 0194 CDF804E0 		str	lr, [sp, #4]
 1593 0198 0290     		str	r0, [sp, #8]
 1594 019a 0391     		str	r1, [sp, #12]
 1595 019c 3348     		ldr	r0, .L96+36
 1596 019e 3C49     		ldr	r1, .L96+72
ARM GAS  /tmp/ccjRtbDD.s 			page 29


 1597 01a0 FFF7FEFF 		bl	chprintf
 1598              	.LVL115:
 1599              		.loc 1 369 0
 1600 01a4 3968     		ldr	r1, [r7]
 1601 01a6 3068     		ldr	r0, [r6]
 1602 01a8 0191     		str	r1, [sp, #4]
 1603 01aa 0090     		str	r0, [sp]
 1604 01ac D8F80010 		ldr	r1, [r8]
 1605 01b0 D9F80000 		ldr	r0, [r9]
 1606 01b4 2268     		ldr	r2, [r4]
 1607 01b6 2B68     		ldr	r3, [r5]
 1608 01b8 0291     		str	r1, [sp, #8]
 1609 01ba 0390     		str	r0, [sp, #12]
 1610 01bc 3549     		ldr	r1, .L96+76
 1611 01be 2B48     		ldr	r0, .L96+36
 1612 01c0 FFF7FEFF 		bl	chprintf
 1613              	.LVL116:
 1614              		.loc 1 373 0
 1615 01c4 2368     		ldr	r3, [r4]
 1616              	.LVL117:
 1617 01c6 344A     		ldr	r2, .L96+80
 1618 01c8 B2F90010 		ldrsh	r1, [r2]
 1619 01cc 83EAE372 		eor	r2, r3, r3, asr #31
 1620 01d0 A2EBE372 		sub	r2, r2, r3, asr #31
 1621 01d4 9142     		cmp	r1, r2
 1622 01d6 FFF658AF 		blt	.L94
 1623              		.loc 1 376 0
 1624 01da 2B68     		ldr	r3, [r5]
 1625              	.LVL118:
 1626              		.loc 1 373 0
 1627 01dc 0122     		movs	r2, #1
 1628              	.LVL119:
 1629 01de 83EAE370 		eor	r0, r3, r3, asr #31
 1630 01e2 A0EBE370 		sub	r0, r0, r3, asr #31
 1631              		.loc 1 376 0
 1632 01e6 8142     		cmp	r1, r0
 1633 01e8 BFF65FAF 		bge	.L95
 1634              	.LVL120:
 1635              	.L78:
 1636              		.loc 1 377 0
 1637 01ec 93FBF1F3 		sdiv	r3, r3, r1
 1638 01f0 1948     		ldr	r0, .L96+16
 1639 01f2 0088     		ldrh	r0, [r0]
 1640 01f4 C31A     		subs	r3, r0, r3
 1641 01f6 1848     		ldr	r0, .L96+16
 1642 01f8 0380     		strh	r3, [r0]	@ movhi
 1643 01fa 57E7     		b	.L79
 1644              	.LVL121:
 1645              	.L86:
 1646              		.loc 1 389 0
 1647 01fc DB43     		mvns	r3, r3
 1648 01fe 91FBF3F3 		sdiv	r3, r1, r3
 1649 0202 BBF80010 		ldrh	r1, [fp]
 1650              	.LVL122:
 1651 0206 0B44     		add	r3, r3, r1
 1652 0208 ABF80030 		strh	r3, [fp]	@ movhi
 1653 020c 7BE7     		b	.L88
ARM GAS  /tmp/ccjRtbDD.s 			page 30


 1654              	.LVL123:
 1655              	.L84:
 1656              		.loc 1 386 0
 1657 020e D843     		mvns	r0, r3
 1658 0210 91FBF0F1 		sdiv	r1, r1, r0
 1659              	.LVL124:
 1660 0214 BAF80000 		ldrh	r0, [r10]
 1661 0218 0144     		add	r1, r1, r0
 1662 021a AAF80010 		strh	r1, [r10]	@ movhi
 1663 021e 66E7     		b	.L85
 1664              	.LVL125:
 1665              	.L82:
 1666              		.loc 1 383 0
 1667 0220 D843     		mvns	r0, r3
 1668 0222 91FBF0F1 		sdiv	r1, r1, r0
 1669              	.LVL126:
 1670 0226 0F48     		ldr	r0, .L96+28
 1671 0228 0088     		ldrh	r0, [r0]
 1672 022a 0144     		add	r1, r1, r0
 1673 022c 0D48     		ldr	r0, .L96+28
 1674 022e 0180     		strh	r1, [r0]	@ movhi
 1675 0230 53E7     		b	.L83
 1676              	.LVL127:
 1677              	.L80:
 1678              		.loc 1 380 0
 1679 0232 93FBF1F3 		sdiv	r3, r3, r1
 1680              	.LVL128:
 1681 0236 0A49     		ldr	r1, .L96+24
 1682 0238 0988     		ldrh	r1, [r1]
 1683 023a 0B44     		add	r3, r3, r1
 1684 023c 0849     		ldr	r1, .L96+24
 1685 023e 0B80     		strh	r3, [r1]	@ movhi
 1686 0240 3FE7     		b	.L81
 1687              	.LVL129:
 1688              	.L93:
 1689              	.LBE46:
 1690              	.LBE47:
 1691              		.loc 1 394 0
 1692 0242 05B0     		add	sp, sp, #20
 1693              		.cfi_def_cfa_offset 36
 1694              		@ sp needed
 1695 0244 BDE8F08F 		pop	{r4, r5, r6, r7, r8, r9, r10, fp, pc}
 1696              	.L97:
 1697              		.align	2
 1698              	.L96:
 1699 0248 00000000 		.word	.LANCHOR16
 1700 024c 00000000 		.word	.LANCHOR17
 1701 0250 00000000 		.word	.LANCHOR22
 1702 0254 00000000 		.word	.LANCHOR18
 1703 0258 00000000 		.word	.LANCHOR23
 1704 025c 00000000 		.word	.LANCHOR19
 1705 0260 00000000 		.word	.LANCHOR24
 1706 0264 00000000 		.word	.LANCHOR25
 1707 0268 00000000 		.word	.LANCHOR29
 1708 026c 00000000 		.word	SD2
 1709 0270 6C000000 		.word	.LC4
 1710 0274 1C000000 		.word	.LC1
ARM GAS  /tmp/ccjRtbDD.s 			page 31


 1711 0278 00000000 		.word	.LANCHOR10
 1712 027c 00000000 		.word	.LANCHOR13
 1713 0280 00000000 		.word	.LANCHOR12
 1714 0284 00000000 		.word	.LANCHOR11
 1715 0288 00000000 		.word	.LANCHOR14
 1716 028c 00000000 		.word	.LANCHOR15
 1717 0290 24000000 		.word	.LC2
 1718 0294 48000000 		.word	.LC3
 1719 0298 00000000 		.word	.LANCHOR28
 1720 029c 00000000 		.word	.LANCHOR20
 1721 02a0 00000000 		.word	.LANCHOR21
 1722 02a4 00000000 		.word	.LANCHOR26
 1723 02a8 00000000 		.word	.LANCHOR27
 1724              		.cfi_endproc
 1725              	.LFE49:
 1726              		.fnend
 1727              		.size	_Z11calibrationv, .-_Z11calibrationv
 1728              		.section	.text._Z11calibracionv,"ax",%progbits
 1729              		.align	2
 1730              		.p2align 4,,15
 1731              		.global	_Z11calibracionv
 1732              		.thumb
 1733              		.thumb_func
 1734              		.type	_Z11calibracionv, %function
 1735              	_Z11calibracionv:
 1736              		.fnstart
 1737              	.LFB50:
 1738              		.loc 1 398 0
 1739              		.cfi_startproc
 1740              		@ args = 0, pretend = 0, frame = 0
 1741              		@ frame_needed = 0, uses_anonymous_args = 0
 1742 0000 2DE9F04F 		push	{r4, r5, r6, r7, r8, r9, r10, fp, lr}
 1743              		.save {r4, r5, r6, r7, r8, r9, r10, fp, lr}
 1744              		.cfi_def_cfa_offset 36
 1745              		.cfi_offset 4, -36
 1746              		.cfi_offset 5, -32
 1747              		.cfi_offset 6, -28
 1748              		.cfi_offset 7, -24
 1749              		.cfi_offset 8, -20
 1750              		.cfi_offset 9, -16
 1751              		.cfi_offset 10, -12
 1752              		.cfi_offset 11, -8
 1753              		.cfi_offset 14, -4
 1754              		.loc 1 404 0
 1755 0004 6820     		movs	r0, #104
 1756              		.loc 1 398 0
 1757              		.pad #20
 1758 0006 85B0     		sub	sp, sp, #20
 1759              		.cfi_def_cfa_offset 56
 1760              		.loc 1 404 0
 1761 0008 0621     		movs	r1, #6
 1762 000a 0022     		movs	r2, #0
 1763 000c 0223     		movs	r3, #2
 1764 000e FFF7FEFF 		bl	_Z16I2CdevwriteWordshhtm
 1765              	.LVL130:
 1766              		.loc 1 405 0
 1767 0012 6820     		movs	r0, #104
ARM GAS  /tmp/ccjRtbDD.s 			page 32


 1768 0014 0821     		movs	r1, #8
 1769 0016 0022     		movs	r2, #0
 1770 0018 0223     		movs	r3, #2
 1771 001a FFF7FEFF 		bl	_Z16I2CdevwriteWordshhtm
 1772              	.LVL131:
 1773              		.loc 1 406 0
 1774 001e 6820     		movs	r0, #104
 1775 0020 0A21     		movs	r1, #10
 1776 0022 0022     		movs	r2, #0
 1777 0024 0223     		movs	r3, #2
 1778 0026 FFF7FEFF 		bl	_Z16I2CdevwriteWordshhtm
 1779              	.LVL132:
 1780              		.loc 1 407 0
 1781 002a 6820     		movs	r0, #104
 1782 002c 1321     		movs	r1, #19
 1783 002e 0022     		movs	r2, #0
 1784 0030 0223     		movs	r3, #2
 1785 0032 FFF7FEFF 		bl	_Z16I2CdevwriteWordshhtm
 1786              	.LVL133:
 1787              		.loc 1 428 0
 1788 0036 3D4C     		ldr	r4, .L100
 1789              		.loc 1 408 0
 1790 0038 6820     		movs	r0, #104
 1791 003a 1521     		movs	r1, #21
 1792 003c 0022     		movs	r2, #0
 1793 003e 0223     		movs	r3, #2
 1794 0040 FFF7FEFF 		bl	_Z16I2CdevwriteWordshhtm
 1795              	.LVL134:
 1796              		.loc 1 409 0
 1797 0044 0022     		movs	r2, #0
 1798 0046 0223     		movs	r3, #2
 1799 0048 6820     		movs	r0, #104
 1800 004a 1721     		movs	r1, #23
 1801 004c FFF7FEFF 		bl	_Z16I2CdevwriteWordshhtm
 1802              	.LVL135:
 1803              		.loc 1 418 0
 1804 0050 FFF7FEFF 		bl	_Z11meansensorsv
 1805              	.LVL136:
 1806              		.loc 1 424 0
 1807 0054 FFF7FEFF 		bl	_Z11calibrationv
 1808              	.LVL137:
 1809              		.loc 1 427 0
 1810 0058 FFF7FEFF 		bl	_Z11meansensorsv
 1811              	.LVL138:
 1812              		.loc 1 428 0
 1813 005c 2046     		mov	r0, r4
 1814 005e 3449     		ldr	r1, .L100+4
 1815 0060 FFF7FEFF 		bl	chprintf
 1816              	.LVL139:
 1817              		.loc 1 430 0
 1818 0064 334E     		ldr	r6, .L100+8
 1819 0066 344D     		ldr	r5, .L100+12
 1820 0068 3448     		ldr	r0, .L100+16
 1821 006a 3549     		ldr	r1, .L100+20
 1822 006c B6F900C0 		ldrsh	ip, [r6]
 1823 0070 B5F900E0 		ldrsh	lr, [r5]
 1824 0074 B0F90000 		ldrsh	r0, [r0]
ARM GAS  /tmp/ccjRtbDD.s 			page 33


 1825 0078 B1F90010 		ldrsh	r1, [r1]
 1826 007c 314A     		ldr	r2, .L100+24
 1827 007e 324B     		ldr	r3, .L100+28
 1828              		.loc 1 431 0
 1829 0080 DFF8E080 		ldr	r8, .L100+56
 1830 0084 314F     		ldr	r7, .L100+32
 1831 0086 324E     		ldr	r6, .L100+36
 1832 0088 324D     		ldr	r5, .L100+40
 1833              		.loc 1 430 0
 1834 008a B2F90020 		ldrsh	r2, [r2]
 1835 008e B3F90030 		ldrsh	r3, [r3]
 1836 0092 8DE80050 		stmia	sp, {ip, lr}
 1837 0096 0290     		str	r0, [sp, #8]
 1838 0098 0391     		str	r1, [sp, #12]
 1839 009a 2046     		mov	r0, r4
 1840 009c 2E49     		ldr	r1, .L100+44
 1841 009e FFF7FEFF 		bl	chprintf
 1842              	.LVL140:
 1843              		.loc 1 431 0
 1844 00a2 DFF8C4A0 		ldr	r10, .L100+60
 1845 00a6 B7F900C0 		ldrsh	ip, [r7]
 1846 00aa B6F900E0 		ldrsh	lr, [r6]
 1847 00ae B5F90010 		ldrsh	r1, [r5]
 1848 00b2 DFF8B890 		ldr	r9, .L100+64
 1849 00b6 B8F900B0 		ldrsh	fp, [r8]
 1850 00ba BAF90020 		ldrsh	r2, [r10]
 1851 00be 8DE80058 		stmia	sp, {fp, ip, lr}
 1852 00c2 B9F90030 		ldrsh	r3, [r9]
 1853 00c6 2046     		mov	r0, r4
 1854 00c8 0391     		str	r1, [sp, #12]
 1855 00ca 2449     		ldr	r1, .L100+48
 1856 00cc FFF7FEFF 		bl	chprintf
 1857              	.LVL141:
 1858              		.loc 1 434 0
 1859 00d0 BAF80020 		ldrh	r2, [r10]
 1860 00d4 6820     		movs	r0, #104
 1861 00d6 0621     		movs	r1, #6
 1862 00d8 0223     		movs	r3, #2
 1863 00da FFF7FEFF 		bl	_Z16I2CdevwriteWordshhtm
 1864              	.LVL142:
 1865              		.loc 1 435 0
 1866 00de B9F80020 		ldrh	r2, [r9]
 1867 00e2 6820     		movs	r0, #104
 1868 00e4 0821     		movs	r1, #8
 1869 00e6 0223     		movs	r3, #2
 1870 00e8 FFF7FEFF 		bl	_Z16I2CdevwriteWordshhtm
 1871              	.LVL143:
 1872              		.loc 1 436 0
 1873 00ec B8F80020 		ldrh	r2, [r8]
 1874 00f0 6820     		movs	r0, #104
 1875 00f2 0A21     		movs	r1, #10
 1876 00f4 0223     		movs	r3, #2
 1877 00f6 FFF7FEFF 		bl	_Z16I2CdevwriteWordshhtm
 1878              	.LVL144:
 1879              		.loc 1 437 0
 1880 00fa 3A88     		ldrh	r2, [r7]
 1881 00fc 6820     		movs	r0, #104
ARM GAS  /tmp/ccjRtbDD.s 			page 34


 1882 00fe 1321     		movs	r1, #19
 1883 0100 0223     		movs	r3, #2
 1884 0102 FFF7FEFF 		bl	_Z16I2CdevwriteWordshhtm
 1885              	.LVL145:
 1886              		.loc 1 438 0
 1887 0106 3288     		ldrh	r2, [r6]
 1888 0108 6820     		movs	r0, #104
 1889 010a 1521     		movs	r1, #21
 1890 010c 0223     		movs	r3, #2
 1891 010e FFF7FEFF 		bl	_Z16I2CdevwriteWordshhtm
 1892              	.LVL146:
 1893              		.loc 1 439 0
 1894 0112 2A88     		ldrh	r2, [r5]
 1895 0114 6820     		movs	r0, #104
 1896 0116 1721     		movs	r1, #23
 1897 0118 0223     		movs	r3, #2
 1898 011a FFF7FEFF 		bl	_Z16I2CdevwriteWordshhtm
 1899              	.LVL147:
 1900              		.loc 1 444 0
 1901 011e 104B     		ldr	r3, .L100+52
 1902 0120 0122     		movs	r2, #1
 1903 0122 1A70     		strb	r2, [r3]
 1904              		.loc 1 447 0
 1905 0124 05B0     		add	sp, sp, #20
 1906              		.cfi_def_cfa_offset 36
 1907              		@ sp needed
 1908 0126 BDE8F08F 		pop	{r4, r5, r6, r7, r8, r9, r10, fp, pc}
 1909              	.L101:
 1910 012a 00BF     		.align	2
 1911              	.L100:
 1912 012c 00000000 		.word	SD2
 1913 0130 7C000000 		.word	.LC5
 1914 0134 00000000 		.word	.LANCHOR12
 1915 0138 00000000 		.word	.LANCHOR13
 1916 013c 00000000 		.word	.LANCHOR14
 1917 0140 00000000 		.word	.LANCHOR15
 1918 0144 00000000 		.word	.LANCHOR10
 1919 0148 00000000 		.word	.LANCHOR11
 1920 014c 00000000 		.word	.LANCHOR25
 1921 0150 00000000 		.word	.LANCHOR26
 1922 0154 00000000 		.word	.LANCHOR27
 1923 0158 88000000 		.word	.LC6
 1924 015c B8000000 		.word	.LC7
 1925 0160 00000000 		.word	.LANCHOR7
 1926 0164 00000000 		.word	.LANCHOR24
 1927 0168 00000000 		.word	.LANCHOR22
 1928 016c 00000000 		.word	.LANCHOR23
 1929              		.cfi_endproc
 1930              	.LFE50:
 1931              		.fnend
 1932              		.size	_Z11calibracionv, .-_Z11calibracionv
 1933              		.section	.text.startup.main,"ax",%progbits
 1934              		.align	2
 1935              		.p2align 4,,15
 1936              		.global	main
 1937              		.thumb
 1938              		.thumb_func
ARM GAS  /tmp/ccjRtbDD.s 			page 35


 1939              		.type	main, %function
 1940              	main:
 1941              		.fnstart
 1942              	.LFB53:
 1943              		.loc 1 537 0
 1944              		.cfi_startproc
 1945              		@ args = 0, pretend = 0, frame = 0
 1946              		@ frame_needed = 0, uses_anonymous_args = 0
 1947 0000 10B5     		push	{r4, lr}
 1948              		.save {r4, lr}
 1949              		.cfi_def_cfa_offset 8
 1950              		.cfi_offset 4, -8
 1951              		.cfi_offset 14, -4
 1952              		.loc 1 549 0
 1953 0002 0024     		movs	r4, #0
 1954              		.loc 1 537 0
 1955              		.pad #8
 1956 0004 82B0     		sub	sp, sp, #8
 1957              		.cfi_def_cfa_offset 16
 1958              		.loc 1 539 0
 1959 0006 FFF7FEFF 		bl	halInit
 1960              	.LVL148:
 1961              		.loc 1 541 0
 1962 000a FFF7FEFF 		bl	chSysInit
 1963              	.LVL149:
 1964              		.loc 1 542 0
 1965 000e 2146     		mov	r1, r4
 1966 0010 0748     		ldr	r0, .L104
 1967 0012 FFF7FEFF 		bl	sdStart
 1968              	.LVL150:
 1969              		.loc 1 544 0
 1970 0016 FFF7FEFF 		bl	_Z7I2CInitv
 1971              	.LVL151:
 1972              		.loc 1 549 0
 1973 001a 0094     		str	r4, [sp]
 1974 001c 4FF49661 		mov	r1, #1200
 1975 0020 4022     		movs	r2, #64
 1976 0022 044B     		ldr	r3, .L104+4
 1977 0024 0448     		ldr	r0, .L104+8
 1978 0026 FFF7FEFF 		bl	chThdCreateStatic
 1979              	.LVL152:
 1980              		.loc 1 559 0
 1981 002a 2046     		mov	r0, r4
 1982 002c 02B0     		add	sp, sp, #8
 1983              		.cfi_def_cfa_offset 8
 1984              		@ sp needed
 1985 002e 10BD     		pop	{r4, pc}
 1986              	.L105:
 1987              		.align	2
 1988              	.L104:
 1989 0030 00000000 		.word	SD2
 1990 0034 00000000 		.word	_ZL14Acelero_ThreadPv
 1991 0038 00000000 		.word	.LANCHOR30
 1992              		.cfi_endproc
 1993              	.LFE53:
 1994              		.fnend
 1995              		.size	main, .-main
ARM GAS  /tmp/ccjRtbDD.s 			page 36


 1996              		.global	twid_
 1997              		.global	ADC_Val
 1998              		.global	GyY
 1999              		.global	GyX
 2000              		.global	AcZ
 2001              		.global	AcY
 2002              		.global	AcX
 2003              		.global	validacion
 2004              		.global	cero
 2005              		.global	gz_offset
 2006              		.global	gy_offset
 2007              		.global	gx_offset
 2008              		.global	az_offset
 2009              		.global	ay_offset
 2010              		.global	ax_offset
 2011              		.global	state
 2012              		.global	mean_gz
 2013              		.global	mean_gy
 2014              		.global	mean_gx
 2015              		.global	mean_az
 2016              		.global	mean_ay
 2017              		.global	mean_ax
 2018              		.global	gz
 2019              		.global	gy
 2020              		.global	gx
 2021              		.global	az
 2022              		.global	ay
 2023              		.global	ax
 2024              		.global	giro_deadzone
 2025              		.global	acel_deadzone
 2026              		.global	buffersize
 2027              		.section	.bss.ay_offset,"aw",%nobits
 2028              		.align	1
 2029              		.set	.LANCHOR23,. + 0
 2030              		.type	ay_offset, %object
 2031              		.size	ay_offset, 2
 2032              	ay_offset:
 2033 0000 0000     		.space	2
 2034              		.section	.bss.gz_offset,"aw",%nobits
 2035              		.align	1
 2036              		.set	.LANCHOR27,. + 0
 2037              		.type	gz_offset, %object
 2038              		.size	gz_offset, 2
 2039              	gz_offset:
 2040 0000 0000     		.space	2
 2041              		.section	.bss._ZL12Area_acelero,"aw",%nobits
 2042              		.align	3
 2043              		.set	.LANCHOR30,. + 0
 2044              		.type	_ZL12Area_acelero, %object
 2045              		.size	_ZL12Area_acelero, 1200
 2046              	_ZL12Area_acelero:
 2047 0000 00000000 		.space	1200
 2047      00000000 
 2047      00000000 
 2047      00000000 
 2047      00000000 
 2048              		.section	.bss.gx,"aw",%nobits
ARM GAS  /tmp/ccjRtbDD.s 			page 37


 2049              		.align	1
 2050              		.set	.LANCHOR13,. + 0
 2051              		.type	gx, %object
 2052              		.size	gx, 2
 2053              	gx:
 2054 0000 0000     		.space	2
 2055              		.section	.bss.gy,"aw",%nobits
 2056              		.align	1
 2057              		.set	.LANCHOR14,. + 0
 2058              		.type	gy, %object
 2059              		.size	gy, 2
 2060              	gy:
 2061 0000 0000     		.space	2
 2062              		.section	.bss.gz,"aw",%nobits
 2063              		.align	1
 2064              		.set	.LANCHOR15,. + 0
 2065              		.type	gz, %object
 2066              		.size	gz, 2
 2067              	gz:
 2068 0000 0000     		.space	2
 2069              		.section	.bss.validacion,"aw",%nobits
 2070              		.set	.LANCHOR7,. + 0
 2071              		.type	validacion, %object
 2072              		.size	validacion, 1
 2073              	validacion:
 2074 0000 00       		.space	1
 2075              		.section	.bss.gy_offset,"aw",%nobits
 2076              		.align	1
 2077              		.set	.LANCHOR26,. + 0
 2078              		.type	gy_offset, %object
 2079              		.size	gy_offset, 2
 2080              	gy_offset:
 2081 0000 0000     		.space	2
 2082              		.section	.bss.twid_,"aw",%nobits
 2083              		.align	2
 2084              		.set	.LANCHOR1,. + 0
 2085              		.type	twid_, %object
 2086              		.size	twid_, 8
 2087              	twid_:
 2088 0000 00000000 		.space	8
 2088      00000000 
 2089              		.section	.bss.AcX,"aw",%nobits
 2090              		.align	1
 2091              		.set	.LANCHOR2,. + 0
 2092              		.type	AcX, %object
 2093              		.size	AcX, 2
 2094              	AcX:
 2095 0000 0000     		.space	2
 2096              		.section	.bss.AcY,"aw",%nobits
 2097              		.align	1
 2098              		.set	.LANCHOR3,. + 0
 2099              		.type	AcY, %object
 2100              		.size	AcY, 2
 2101              	AcY:
 2102 0000 0000     		.space	2
 2103              		.section	.bss.AcZ,"aw",%nobits
 2104              		.align	1
ARM GAS  /tmp/ccjRtbDD.s 			page 38


 2105              		.set	.LANCHOR4,. + 0
 2106              		.type	AcZ, %object
 2107              		.size	AcZ, 2
 2108              	AcZ:
 2109 0000 0000     		.space	2
 2110              		.section	.bss.state,"aw",%nobits
 2111              		.align	2
 2112              		.type	state, %object
 2113              		.size	state, 4
 2114              	state:
 2115 0000 00000000 		.space	4
 2116              		.section	.data.giro_deadzone,"aw",%progbits
 2117              		.align	1
 2118              		.set	.LANCHOR29,. + 0
 2119              		.type	giro_deadzone, %object
 2120              		.size	giro_deadzone, 2
 2121              	giro_deadzone:
 2122 0000 0100     		.short	1
 2123              		.section	.bss.mean_ax,"aw",%nobits
 2124              		.align	2
 2125              		.set	.LANCHOR16,. + 0
 2126              		.type	mean_ax, %object
 2127              		.size	mean_ax, 4
 2128              	mean_ax:
 2129 0000 00000000 		.space	4
 2130              		.section	.bss.mean_ay,"aw",%nobits
 2131              		.align	2
 2132              		.set	.LANCHOR17,. + 0
 2133              		.type	mean_ay, %object
 2134              		.size	mean_ay, 4
 2135              	mean_ay:
 2136 0000 00000000 		.space	4
 2137              		.section	.bss.mean_az,"aw",%nobits
 2138              		.align	2
 2139              		.set	.LANCHOR18,. + 0
 2140              		.type	mean_az, %object
 2141              		.size	mean_az, 4
 2142              	mean_az:
 2143 0000 00000000 		.space	4
 2144              		.section	.bss.cero,"aw",%nobits
 2145              		.align	1
 2146              		.type	cero, %object
 2147              		.size	cero, 2
 2148              	cero:
 2149 0000 0000     		.space	2
 2150              		.section	.bss.ax,"aw",%nobits
 2151              		.align	1
 2152              		.set	.LANCHOR10,. + 0
 2153              		.type	ax, %object
 2154              		.size	ax, 2
 2155              	ax:
 2156 0000 0000     		.space	2
 2157              		.section	.bss.ay,"aw",%nobits
 2158              		.align	1
 2159              		.set	.LANCHOR11,. + 0
 2160              		.type	ay, %object
 2161              		.size	ay, 2
ARM GAS  /tmp/ccjRtbDD.s 			page 39


 2162              	ay:
 2163 0000 0000     		.space	2
 2164              		.section	.bss.az,"aw",%nobits
 2165              		.align	1
 2166              		.set	.LANCHOR12,. + 0
 2167              		.type	az, %object
 2168              		.size	az, 2
 2169              	az:
 2170 0000 0000     		.space	2
 2171              		.section	.bss.gx_offset,"aw",%nobits
 2172              		.align	1
 2173              		.set	.LANCHOR25,. + 0
 2174              		.type	gx_offset, %object
 2175              		.size	gx_offset, 2
 2176              	gx_offset:
 2177 0000 0000     		.space	2
 2178              		.section	.data.acel_deadzone,"aw",%progbits
 2179              		.align	1
 2180              		.set	.LANCHOR28,. + 0
 2181              		.type	acel_deadzone, %object
 2182              		.size	acel_deadzone, 2
 2183              	acel_deadzone:
 2184 0000 0800     		.short	8
 2185              		.section	.bss.az_offset,"aw",%nobits
 2186              		.align	1
 2187              		.set	.LANCHOR24,. + 0
 2188              		.type	az_offset, %object
 2189              		.size	az_offset, 2
 2190              	az_offset:
 2191 0000 0000     		.space	2
 2192              		.section	.bss.ax_offset,"aw",%nobits
 2193              		.align	1
 2194              		.set	.LANCHOR22,. + 0
 2195              		.type	ax_offset, %object
 2196              		.size	ax_offset, 2
 2197              	ax_offset:
 2198 0000 0000     		.space	2
 2199              		.section	.bss.ADC_Val,"aw",%nobits
 2200              		.align	2
 2201              		.set	.LANCHOR8,. + 0
 2202              		.type	ADC_Val, %object
 2203              		.size	ADC_Val, 4
 2204              	ADC_Val:
 2205 0000 00000000 		.space	4
 2206              		.section	.bss.mean_gx,"aw",%nobits
 2207              		.align	2
 2208              		.set	.LANCHOR19,. + 0
 2209              		.type	mean_gx, %object
 2210              		.size	mean_gx, 4
 2211              	mean_gx:
 2212 0000 00000000 		.space	4
 2213              		.section	.bss.mean_gy,"aw",%nobits
 2214              		.align	2
 2215              		.set	.LANCHOR20,. + 0
 2216              		.type	mean_gy, %object
 2217              		.size	mean_gy, 4
 2218              	mean_gy:
ARM GAS  /tmp/ccjRtbDD.s 			page 40


 2219 0000 00000000 		.space	4
 2220              		.section	.bss.mean_gz,"aw",%nobits
 2221              		.align	2
 2222              		.set	.LANCHOR21,. + 0
 2223              		.type	mean_gz, %object
 2224              		.size	mean_gz, 4
 2225              	mean_gz:
 2226 0000 00000000 		.space	4
 2227              		.section	.data.buffersize,"aw",%progbits
 2228              		.align	1
 2229              		.set	.LANCHOR9,. + 0
 2230              		.type	buffersize, %object
 2231              		.size	buffersize, 2
 2232              	buffersize:
 2233 0000 E803     		.short	1000
 2234              		.section	.bss.GyX,"aw",%nobits
 2235              		.align	1
 2236              		.set	.LANCHOR5,. + 0
 2237              		.type	GyX, %object
 2238              		.size	GyX, 2
 2239              	GyX:
 2240 0000 0000     		.space	2
 2241              		.section	.bss.GyY,"aw",%nobits
 2242              		.align	1
 2243              		.set	.LANCHOR6,. + 0
 2244              		.type	GyY, %object
 2245              		.size	GyY, 2
 2246              	GyY:
 2247 0000 0000     		.space	2
 2248              		.section	.rodata._ZL4pins,"a",%progbits
 2249              		.align	2
 2250              		.set	.LANCHOR0,. + 0
 2251              		.type	_ZL4pins, %object
 2252              		.size	_ZL4pins, 24
 2253              	_ZL4pins:
 2254 0000 08000000 		.word	8
 2255 0004 000E0E40 		.word	1074662912
 2256 0008 0B       		.byte	11
 2257 0009 00       		.byte	0
 2258 000a 00       		.byte	0
 2259 000b 00       		.space	1
 2260 000c 10000000 		.word	16
 2261 0010 000E0E40 		.word	1074662912
 2262 0014 0B       		.byte	11
 2263 0015 00       		.byte	0
 2264 0016 00       		.byte	0
 2265 0017 00       		.space	1
 2266              		.section	.rodata.str1.4,"aMS",%progbits,1
 2267              		.align	2
 2268              	.LC0:
 2269 0000 25642C20 		.ascii	"%d, %d, %d, %d, %d, %d \015\012\000"
 2269      25642C20 
 2269      25642C20 
 2269      25642C20 
 2269      25642C20 
 2270 001a 0000     		.space	2
 2271              	.LC1:
ARM GAS  /tmp/ccjRtbDD.s 			page 41


 2272 001c 2E2E2E20 		.ascii	"...  \015\012\000"
 2272      200D0A00 
 2273              	.LC2:
 2274 0024 4D656469 		.ascii	"Medidas3, %d, %d, %d, %d, %d, %d \015\012\000"
 2274      64617333 
 2274      2C202564 
 2274      2C202564 
 2274      2C202564 
 2275              	.LC3:
 2276 0048 6D65616E 		.ascii	"mean3, %d, %d, %d, %d, %d, %d \015\012\000"
 2276      332C2025 
 2276      642C2025 
 2276      642C2025 
 2276      642C2025 
 2277 0069 000000   		.space	3
 2278              	.LC4:
 2279 006c 6D65616E 		.ascii	"mean3, %d, \015\012\000"
 2279      332C2025 
 2279      642C200D 
 2279      0A00
 2280 007a 0000     		.space	2
 2281              	.LC5:
 2282 007c 66696E69 		.ascii	"finish \015\012\000"
 2282      7368200D 
 2282      0A00
 2283 0086 0000     		.space	2
 2284              	.LC6:
 2285 0088 4D656469 		.ascii	"Medidas con offset, %d, %d, %d, %d, %d, %d \015\012"
 2285      64617320 
 2285      636F6E20 
 2285      6F666673 
 2285      65742C20 
 2286 00b5 00       		.ascii	"\000"
 2287 00b6 0000     		.space	2
 2288              	.LC7:
 2289 00b8 74757320 		.ascii	"tus offsets, %d, %d, %d, %d, %d, %d \015\012\000"
 2289      6F666673 
 2289      6574732C 
 2289      2025642C 
 2289      2025642C 
 2290              		.text
 2291              	.Letext0:
 2292              		.file 2 "/home/tomoy/opt/gcc-arm-none-eabi-4_9-2015q3/arm-none-eabi/include/machine/_default_types
 2293              		.file 3 "/home/tomoy/opt/gcc-arm-none-eabi-4_9-2015q3/arm-none-eabi/include/sys/_stdint.h"
 2294              		.file 4 "/home/tomoy/opt/gcc-arm-none-eabi-4_9-2015q3/arm-none-eabi/include/stdint.h"
 2295              		.file 5 "../../ext/ChibiOS/os/hal/platforms/AT91SAM3S/at91lib/SAM3S.h"
 2296              		.file 6 "/home/tomoy/opt/gcc-arm-none-eabi-4_9-2015q3/lib/gcc/arm-none-eabi/4.9.3/include/stddef.h
 2297              		.file 7 "../../ext/ChibiOS/os/ports/GCC/ARMCMx/chtypes.h"
 2298              		.file 8 "../../ext/ChibiOS/os/kernel/include/chlists.h"
 2299              		.file 9 "../../ext/ChibiOS/os/kernel/include/chthreads.h"
 2300              		.file 10 "../../ext/ChibiOS/os/ports/GCC/ARMCMx/chcore_v7m.h"
 2301              		.file 11 "../../ext/ChibiOS/os/kernel/include/chmtx.h"
 2302              		.file 12 "../../ext/ChibiOS/os/kernel/include/chevents.h"
 2303              		.file 13 "../../ext/ChibiOS/os/kernel/include/chqueues.h"
 2304              		.file 14 "../../ext/ChibiOS/os/kernel/include/chioch.h"
 2305              		.file 15 "../../ext/ChibiOS/os/hal/include/serial.h"
 2306              		.file 16 "../../ext/ChibiOS/os/hal/platforms/AT91SAM3S/serial_lld.h"
ARM GAS  /tmp/ccjRtbDD.s 			page 42


 2307              		.file 17 "../../ext/ChibiOS/os/hal/platforms/AT91SAM3S/pio.h"
 2308              		.file 18 "../../ext/ChibiOS/os/hal/platforms/AT91SAM3S/async.h"
 2309              		.file 19 "../../ext/ChibiOS/os/hal/platforms/AT91SAM3S/atmel_twid.h"
 2310              		.file 20 "../../ext/ChibiOS/os/hal/platforms/AT91SAM3S/core_cm3.h"
 2311              		.file 21 "../../ext/ChibiOS/os/hal/platforms/AT91SAM3S/atmel_twi.h"
 2312              		.file 22 "../../ext/ChibiOS/os/hal/platforms/AT91SAM3S/atmel_adc.h"
 2313              		.file 23 "../../ext/ChibiOS/os/various/chprintf.h"
 2314              		.file 24 "../../ext/ChibiOS/os/hal/include/hal.h"
 2315              		.file 25 "../../ext/ChibiOS/os/kernel/include/chsys.h"