ARM GAS  /tmp/ccjFzq4j.s 			page 1


   1              		.syntax unified
   2              		.cpu cortex-m3
   3              		.fpu softvfp
   4              		.eabi_attribute 20, 1
   5              		.eabi_attribute 21, 1
   6              		.eabi_attribute 23, 3
   7              		.eabi_attribute 24, 1
   8              		.eabi_attribute 25, 1
   9              		.eabi_attribute 26, 1
  10              		.eabi_attribute 30, 2
  11              		.eabi_attribute 34, 1
  12              		.eabi_attribute 18, 4
  13              		.thumb
  14              		.file	"wdt.c"
  15              		.text
  16              	.Ltext0:
  17              		.cfi_sections	.debug_frame
  18              		.section	.text.WDT_Enable,"ax",%progbits
  19              		.align	2
  20              		.p2align 4,,15
  21              		.global	WDT_Enable
  22              		.thumb
  23              		.thumb_func
  24              		.type	WDT_Enable, %function
  25              	WDT_Enable:
  26              	.LFB36:
  27              		.file 1 "../../ext/ChibiOS/os/hal/platforms/AT91SAM3S/wdt.c"
  28              		.loc 1 92 0
  29              		.cfi_startproc
  30              		@ args = 0, pretend = 0, frame = 0
  31              		@ frame_needed = 0, uses_anonymous_args = 0
  32              		@ link register save eliminated.
  33              	.LVL0:
  34              		.loc 1 93 0
  35 0000 4160     		str	r1, [r0, #4]
  36 0002 7047     		bx	lr
  37              		.cfi_endproc
  38              	.LFE36:
  39              		.size	WDT_Enable, .-WDT_Enable
  40              		.section	.text.WDT_Disable,"ax",%progbits
  41              		.align	2
  42              		.p2align 4,,15
  43              		.global	WDT_Disable
  44              		.thumb
  45              		.thumb_func
  46              		.type	WDT_Disable, %function
  47              	WDT_Disable:
  48              	.LFB37:
  49              		.loc 1 103 0
  50              		.cfi_startproc
  51              		@ args = 0, pretend = 0, frame = 0
  52              		@ frame_needed = 0, uses_anonymous_args = 0
  53              		@ link register save eliminated.
  54              	.LVL1:
  55              		.loc 1 104 0
  56 0000 4FF40043 		mov	r3, #32768
  57 0004 4360     		str	r3, [r0, #4]
ARM GAS  /tmp/ccjFzq4j.s 			page 2


  58 0006 7047     		bx	lr
  59              		.cfi_endproc
  60              	.LFE37:
  61              		.size	WDT_Disable, .-WDT_Disable
  62              		.section	.text.WDT_Restart,"ax",%progbits
  63              		.align	2
  64              		.p2align 4,,15
  65              		.global	WDT_Restart
  66              		.thumb
  67              		.thumb_func
  68              		.type	WDT_Restart, %function
  69              	WDT_Restart:
  70              	.LFB38:
  71              		.loc 1 111 0
  72              		.cfi_startproc
  73              		@ args = 0, pretend = 0, frame = 0
  74              		@ frame_needed = 0, uses_anonymous_args = 0
  75              		@ link register save eliminated.
  76              	.LVL2:
  77              		.loc 1 112 0
  78 0000 014B     		ldr	r3, .L4
  79 0002 0360     		str	r3, [r0]
  80 0004 7047     		bx	lr
  81              	.L5:
  82 0006 00BF     		.align	2
  83              	.L4:
  84 0008 010000A5 		.word	-1526726655
  85              		.cfi_endproc
  86              	.LFE38:
  87              		.size	WDT_Restart, .-WDT_Restart
  88              		.section	.text.WDT_GetStatus,"ax",%progbits
  89              		.align	2
  90              		.p2align 4,,15
  91              		.global	WDT_GetStatus
  92              		.thumb
  93              		.thumb_func
  94              		.type	WDT_GetStatus, %function
  95              	WDT_GetStatus:
  96              	.LFB39:
  97              		.loc 1 119 0
  98              		.cfi_startproc
  99              		@ args = 0, pretend = 0, frame = 0
 100              		@ frame_needed = 0, uses_anonymous_args = 0
 101              		@ link register save eliminated.
 102              	.LVL3:
 103              		.loc 1 120 0
 104 0000 8068     		ldr	r0, [r0, #8]
 105              	.LVL4:
 106              		.loc 1 121 0
 107 0002 00F00300 		and	r0, r0, #3
 108 0006 7047     		bx	lr
 109              		.cfi_endproc
 110              	.LFE39:
 111              		.size	WDT_GetStatus, .-WDT_GetStatus
 112              		.section	.text.WDT_GetPeriod,"ax",%progbits
 113              		.align	2
 114              		.p2align 4,,15
ARM GAS  /tmp/ccjFzq4j.s 			page 3


 115              		.global	WDT_GetPeriod
 116              		.thumb
 117              		.thumb_func
 118              		.type	WDT_GetPeriod, %function
 119              	WDT_GetPeriod:
 120              	.LFB40:
 121              		.loc 1 129 0
 122              		.cfi_startproc
 123              		@ args = 0, pretend = 0, frame = 0
 124              		@ frame_needed = 0, uses_anonymous_args = 0
 125              		@ link register save eliminated.
 126              	.LVL5:
 127              		.loc 1 130 0
 128 0000 43F67C63 		movw	r3, #15996
 129 0004 021F     		subs	r2, r0, #4
 130 0006 9A42     		cmp	r2, r3
 131 0008 05D8     		bhi	.L9
 132              		.loc 1 134 0
 133 000a 044B     		ldr	r3, .L11
 134 000c 0002     		lsls	r0, r0, #8
 135              	.LVL6:
 136 000e A3FB0030 		umull	r3, r0, r3, r0
 137 0012 8009     		lsrs	r0, r0, #6
 138 0014 7047     		bx	lr
 139              	.LVL7:
 140              	.L9:
 141              		.loc 1 132 0
 142 0016 0020     		movs	r0, #0
 143              	.LVL8:
 144              		.loc 1 135 0
 145 0018 7047     		bx	lr
 146              	.L12:
 147 001a 00BF     		.align	2
 148              	.L11:
 149 001c D34D6210 		.word	274877907
 150              		.cfi_endproc
 151              	.LFE40:
 152              		.size	WDT_GetPeriod, .-WDT_GetPeriod
 153              		.text
 154              	.Letext0:
 155              		.file 2 "/home/tomoy/opt/gcc-arm-none-eabi-4_9-2015q3/arm-none-eabi/include/machine/_default_types
 156              		.file 3 "/home/tomoy/opt/gcc-arm-none-eabi-4_9-2015q3/arm-none-eabi/include/sys/_stdint.h"
 157              		.file 4 "../../ext/ChibiOS/os/hal/platforms/AT91SAM3S/at91lib/SAM3S.h"
 158              		.file 5 "../../ext/ChibiOS/os/hal/platforms/AT91SAM3S/core_cm3.h"