ARM GAS  /tmp/ccscnHdD.s 			page 1


   1              		.syntax unified
   2              		.cpu cortex-m3
   3              		.fpu softvfp
   4              		.eabi_attribute 20, 1
   5              		.eabi_attribute 21, 1
   6              		.eabi_attribute 23, 3
   7              		.eabi_attribute 24, 1
   8              		.eabi_attribute 25, 1
   9              		.eabi_attribute 26, 1
  10              		.eabi_attribute 30, 2
  11              		.eabi_attribute 34, 1
  12              		.eabi_attribute 18, 4
  13              		.thumb
  14              		.file	"main.cpp"
  15              		.text
  16              	.Ltext0:
  17              		.cfi_sections	.debug_frame
  18              		.section	.text._ZL7Thread1Pv,"ax",%progbits
  19              		.align	2
  20              		.p2align 4,,15
  21              		.thumb
  22              		.thumb_func
  23              		.type	_ZL7Thread1Pv, %function
  24              	_ZL7Thread1Pv:
  25              		.fnstart
  26              	.LFB42:
  27              		.file 1 "main.cpp"
  28              		.loc 1 94 0
  29              		.cfi_startproc
  30              		@ args = 0, pretend = 0, frame = 0
  31              		@ frame_needed = 0, uses_anonymous_args = 0
  32              	.LVL0:
  33 0000 70B5     		push	{r4, r5, r6, lr}
  34              		.save {r4, r5, r6, lr}
  35              		.cfi_def_cfa_offset 16
  36              		.cfi_offset 4, -16
  37              		.cfi_offset 5, -12
  38              		.cfi_offset 6, -8
  39              		.cfi_offset 14, -4
  40              		.loc 1 98 0
  41 0002 4FF40035 		mov	r5, #131072
  42 0006 2E46     		mov	r6, r5
  43 0008 054C     		ldr	r4, .L5
  44              	.LVL1:
  45              	.L2:
  46              		.loc 1 98 0 is_stmt 0 discriminator 1
  47 000a 6663     		str	r6, [r4, #52]
  48              		.loc 1 99 0 is_stmt 1 discriminator 1
  49 000c 4FF47A70 		mov	r0, #1000
  50 0010 FFF7FEFF 		bl	chThdSleep
  51              	.LVL2:
  52              		.loc 1 100 0 discriminator 1
  53 0014 2563     		str	r5, [r4, #48]
  54              		.loc 1 101 0 discriminator 1
  55 0016 4FF47A70 		mov	r0, #1000
  56 001a FFF7FEFF 		bl	chThdSleep
  57              	.LVL3:
ARM GAS  /tmp/ccscnHdD.s 			page 2


  58              		.loc 1 94 0 discriminator 1
  59 001e F4E7     		b	.L2
  60              	.L6:
  61              		.align	2
  62              	.L5:
  63 0020 00120E40 		.word	1074663936
  64              		.cfi_endproc
  65              	.LFE42:
  66              		.fnend
  67              		.size	_ZL7Thread1Pv, .-_ZL7Thread1Pv
  68              		.section	.text._Z7I2CInitv,"ax",%progbits
  69              		.align	2
  70              		.p2align 4,,15
  71              		.global	_Z7I2CInitv
  72              		.thumb
  73              		.thumb_func
  74              		.type	_Z7I2CInitv, %function
  75              	_Z7I2CInitv:
  76              		.fnstart
  77              	.LFB36:
  78              		.loc 1 31 0
  79              		.cfi_startproc
  80              		@ args = 0, pretend = 0, frame = 0
  81              		@ frame_needed = 0, uses_anonymous_args = 0
  82 0000 10B5     		push	{r4, lr}
  83              		.save {r4, lr}
  84              		.cfi_def_cfa_offset 8
  85              		.cfi_offset 4, -8
  86              		.cfi_offset 14, -4
  87              	.LBB2:
  88              	.LBB3:
  89              		.loc 1 33 0
  90 0002 2023     		movs	r3, #32
  91              	@ 33 "main.cpp" 1
  92 0004 83F31188 		msr     BASEPRI, r3
  93              	@ 0 "" 2
  94              		.thumb
  95              	.LBE3:
  96              		.loc 1 34 0
  97 0008 0221     		movs	r1, #2
  98 000a 0D48     		ldr	r0, .L9
  99 000c FFF7FEFF 		bl	PIO_Configure
 100              	.LVL4:
 101              		.loc 1 38 0
 102 0010 0C4C     		ldr	r4, .L9+4
 103              		.loc 1 35 0
 104 0012 0D4B     		ldr	r3, .L9+8
 105 0014 0D48     		ldr	r0, .L9+12
 106              		.loc 1 37 0
 107 0016 0E4A     		ldr	r2, .L9+16
 108              		.loc 1 36 0
 109 0018 4FF40021 		mov	r1, #524288
 110              		.loc 1 35 0
 111 001c C3F8E400 		str	r0, [r3, #228]
 112              		.loc 1 36 0
 113 0020 1961     		str	r1, [r3, #16]
 114              		.loc 1 38 0
ARM GAS  /tmp/ccscnHdD.s 			page 3


 115 0022 2046     		mov	r0, r4
 116              		.loc 1 37 0
 117 0024 C3F8E420 		str	r2, [r3, #228]
 118              		.loc 1 38 0
 119 0028 0A49     		ldr	r1, .L9+20
 120 002a 0B4A     		ldr	r2, .L9+24
 121 002c FFF7FEFF 		bl	TWI_ConfigureMaster
 122              	.LVL5:
 123              		.loc 1 39 0
 124 0030 2146     		mov	r1, r4
 125 0032 0A48     		ldr	r0, .L9+28
 126 0034 FFF7FEFF 		bl	TWID_Initialize
 127              	.LVL6:
 128              	.LBB4:
 129              		.loc 1 40 0
 130 0038 0023     		movs	r3, #0
 131              	@ 40 "main.cpp" 1
 132 003a 83F31188 		msr     BASEPRI, r3
 133              	@ 0 "" 2
 134              		.thumb
 135 003e 10BD     		pop	{r4, pc}
 136              	.L10:
 137              		.align	2
 138              	.L9:
 139 0040 00000000 		.word	.LANCHOR0
 140 0044 00800140 		.word	1073840128
 141 0048 00040E40 		.word	1074660352
 142 004c 00434D50 		.word	1347240704
 143 0050 01434D50 		.word	1347240705
 144 0054 801A0600 		.word	400000
 145 0058 0090D003 		.word	64000000
 146 005c 00000000 		.word	.LANCHOR1
 147              	.LBE4:
 148              	.LBE2:
 149              		.cfi_endproc
 150              	.LFE36:
 151              		.fnend
 152              		.size	_Z7I2CInitv, .-_Z7I2CInitv
 153              		.section	.text._Z15I2CReadByte_subhh,"ax",%progbits
 154              		.align	2
 155              		.p2align 4,,15
 156              		.global	_Z15I2CReadByte_subhh
 157              		.thumb
 158              		.thumb_func
 159              		.type	_Z15I2CReadByte_subhh, %function
 160              	_Z15I2CReadByte_subhh:
 161              		.fnstart
 162              	.LFB37:
 163              		.loc 1 43 0
 164              		.cfi_startproc
 165              		@ args = 0, pretend = 0, frame = 8
 166              		@ frame_needed = 0, uses_anonymous_args = 0
 167              	.LVL7:
 168 0000 70B5     		push	{r4, r5, r6, lr}
 169              		.save {r4, r5, r6, lr}
 170              		.cfi_def_cfa_offset 16
 171              		.cfi_offset 4, -16
ARM GAS  /tmp/ccscnHdD.s 			page 4


 172              		.cfi_offset 5, -12
 173              		.cfi_offset 6, -8
 174              		.cfi_offset 14, -4
 175 0002 0A46     		mov	r2, r1
 176              		.pad #24
 177 0004 86B0     		sub	sp, sp, #24
 178              		.cfi_def_cfa_offset 40
 179              	.LBB5:
 180              	.LBB6:
 181              		.loc 1 45 0
 182 0006 2023     		movs	r3, #32
 183              	@ 45 "main.cpp" 1
 184 0008 83F31188 		msr     BASEPRI, r3
 185              	@ 0 "" 2
 186              		.thumb
 187              	.LBE6:
 188              		.loc 1 49 0
 189 000c 0024     		movs	r4, #0
 190 000e 0DF11705 		add	r5, sp, #23
 191 0012 0123     		movs	r3, #1
 192 0014 0146     		mov	r1, r0
 193              	.LVL8:
 194 0016 0095     		str	r5, [sp]
 195 0018 0294     		str	r4, [sp, #8]
 196 001a 0193     		str	r3, [sp, #4]
 197 001c 0548     		ldr	r0, .L14
 198              	.LVL9:
 199 001e FFF7FEFF 		bl	TWID_Read
 200              	.LVL10:
 201 0022 08B9     		cbnz	r0, .L12
 202              		.loc 1 49 0 is_stmt 0 discriminator 2
 203 0024 9DF81760 		ldrb	r6, [sp, #23]	@ zero_extendqisi2
 204              	.LVL11:
 205              	.L12:
 206              	.LBB7:
 207              		.loc 1 50 0 is_stmt 1
 208 0028 0023     		movs	r3, #0
 209              	@ 50 "main.cpp" 1
 210 002a 83F31188 		msr     BASEPRI, r3
 211              	@ 0 "" 2
 212              		.thumb
 213              	.LBE7:
 214              	.LBE5:
 215              		.loc 1 52 0
 216 002e 3046     		mov	r0, r6
 217 0030 06B0     		add	sp, sp, #24
 218              		.cfi_def_cfa_offset 16
 219              		@ sp needed
 220 0032 70BD     		pop	{r4, r5, r6, pc}
 221              	.LVL12:
 222              	.L15:
 223              		.align	2
 224              	.L14:
 225 0034 00000000 		.word	.LANCHOR1
 226              		.cfi_endproc
 227              	.LFE37:
 228              		.fnend
ARM GAS  /tmp/ccscnHdD.s 			page 5


 229              		.size	_Z15I2CReadByte_subhh, .-_Z15I2CReadByte_subhh
 230              		.section	.text._Z12I2CWriteBytehh,"ax",%progbits
 231              		.align	2
 232              		.p2align 4,,15
 233              		.global	_Z12I2CWriteBytehh
 234              		.thumb
 235              		.thumb_func
 236              		.type	_Z12I2CWriteBytehh, %function
 237              	_Z12I2CWriteBytehh:
 238              		.fnstart
 239              	.LFB38:
 240              		.loc 1 54 0
 241              		.cfi_startproc
 242              		@ args = 0, pretend = 0, frame = 8
 243              		@ frame_needed = 0, uses_anonymous_args = 0
 244              	.LVL13:
 245 0000 10B5     		push	{r4, lr}
 246              		.save {r4, lr}
 247              		.cfi_def_cfa_offset 8
 248              		.cfi_offset 4, -8
 249              		.cfi_offset 14, -4
 250              		.pad #24
 251 0002 86B0     		sub	sp, sp, #24
 252              		.cfi_def_cfa_offset 32
 253              		.loc 1 54 0
 254 0004 06AA     		add	r2, sp, #24
 255 0006 02F8011D 		strb	r1, [r2, #-1]!
 256              	.LBB8:
 257              	.LBB9:
 258              		.loc 1 56 0
 259 000a 2023     		movs	r3, #32
 260              	@ 56 "main.cpp" 1
 261 000c 83F31188 		msr     BASEPRI, r3
 262              	@ 0 "" 2
 263              		.thumb
 264              	.LBE9:
 265              		.loc 1 57 0
 266 0010 0024     		movs	r4, #0
 267 0012 0123     		movs	r3, #1
 268 0014 0092     		str	r2, [sp]
 269 0016 0146     		mov	r1, r0
 270              	.LVL14:
 271 0018 0193     		str	r3, [sp, #4]
 272 001a 0294     		str	r4, [sp, #8]
 273 001c 2346     		mov	r3, r4
 274 001e 2246     		mov	r2, r4
 275              	.LVL15:
 276 0020 0348     		ldr	r0, .L18
 277              	.LVL16:
 278 0022 FFF7FEFF 		bl	TWID_Write
 279              	.LVL17:
 280              	.LBB10:
 281              		.loc 1 58 0
 282 0026 2346     		mov	r3, r4
 283              	@ 58 "main.cpp" 1
 284 0028 83F31188 		msr     BASEPRI, r3
 285              	@ 0 "" 2
ARM GAS  /tmp/ccscnHdD.s 			page 6


 286              		.thumb
 287              	.LBE10:
 288              	.LBE8:
 289              		.loc 1 59 0
 290 002c 06B0     		add	sp, sp, #24
 291              		.cfi_def_cfa_offset 8
 292              	.LVL18:
 293              		@ sp needed
 294 002e 10BD     		pop	{r4, pc}
 295              	.LVL19:
 296              	.L19:
 297              		.align	2
 298              	.L18:
 299 0030 00000000 		.word	.LANCHOR1
 300              		.cfi_endproc
 301              	.LFE38:
 302              		.fnend
 303              		.size	_Z12I2CWriteBytehh, .-_Z12I2CWriteBytehh
 304              		.section	.text._Z11I2CReadByteh,"ax",%progbits
 305              		.align	2
 306              		.p2align 4,,15
 307              		.global	_Z11I2CReadByteh
 308              		.thumb
 309              		.thumb_func
 310              		.type	_Z11I2CReadByteh, %function
 311              	_Z11I2CReadByteh:
 312              		.fnstart
 313              	.LFB39:
 314              		.loc 1 61 0
 315              		.cfi_startproc
 316              		@ args = 0, pretend = 0, frame = 8
 317              		@ frame_needed = 0, uses_anonymous_args = 0
 318              	.LVL20:
 319 0000 30B5     		push	{r4, r5, lr}
 320              		.save {r4, r5, lr}
 321              		.cfi_def_cfa_offset 12
 322              		.cfi_offset 4, -12
 323              		.cfi_offset 5, -8
 324              		.cfi_offset 14, -4
 325 0002 0146     		mov	r1, r0
 326              		.pad #28
 327 0004 87B0     		sub	sp, sp, #28
 328              		.cfi_def_cfa_offset 40
 329              	.LBB11:
 330              	.LBB12:
 331              		.loc 1 63 0
 332 0006 2023     		movs	r3, #32
 333              	@ 63 "main.cpp" 1
 334 0008 83F31188 		msr     BASEPRI, r3
 335              	@ 0 "" 2
 336              		.thumb
 337              	.LBE12:
 338              		.loc 1 67 0
 339 000c 0123     		movs	r3, #1
 340 000e 0022     		movs	r2, #0
 341 0010 0DF11704 		add	r4, sp, #23
 342 0014 0193     		str	r3, [sp, #4]
ARM GAS  /tmp/ccscnHdD.s 			page 7


 343 0016 0094     		str	r4, [sp]
 344 0018 0292     		str	r2, [sp, #8]
 345 001a 1346     		mov	r3, r2
 346 001c 0548     		ldr	r0, .L23
 347              	.LVL21:
 348 001e FFF7FEFF 		bl	TWID_Read
 349              	.LVL22:
 350 0022 08B9     		cbnz	r0, .L21
 351              		.loc 1 67 0 is_stmt 0 discriminator 2
 352 0024 9DF81750 		ldrb	r5, [sp, #23]	@ zero_extendqisi2
 353              	.LVL23:
 354              	.L21:
 355              	.LBB13:
 356              		.loc 1 68 0 is_stmt 1
 357 0028 0023     		movs	r3, #0
 358              	@ 68 "main.cpp" 1
 359 002a 83F31188 		msr     BASEPRI, r3
 360              	@ 0 "" 2
 361              		.thumb
 362              	.LBE13:
 363              	.LBE11:
 364              		.loc 1 70 0
 365 002e 2846     		mov	r0, r5
 366 0030 07B0     		add	sp, sp, #28
 367              		.cfi_def_cfa_offset 12
 368              		@ sp needed
 369 0032 30BD     		pop	{r4, r5, pc}
 370              	.LVL24:
 371              	.L24:
 372              		.align	2
 373              	.L23:
 374 0034 00000000 		.word	.LANCHOR1
 375              		.cfi_endproc
 376              	.LFE39:
 377              		.fnend
 378              		.size	_Z11I2CReadByteh, .-_Z11I2CReadByteh
 379              		.section	.text._Z13I2CWriteByteshhh,"ax",%progbits
 380              		.align	2
 381              		.p2align 4,,15
 382              		.global	_Z13I2CWriteByteshhh
 383              		.thumb
 384              		.thumb_func
 385              		.type	_Z13I2CWriteByteshhh, %function
 386              	_Z13I2CWriteByteshhh:
 387              		.fnstart
 388              	.LFB40:
 389              		.loc 1 72 0
 390              		.cfi_startproc
 391              		@ args = 0, pretend = 0, frame = 8
 392              		@ frame_needed = 0, uses_anonymous_args = 0
 393              	.LVL25:
 394 0000 70B5     		push	{r4, r5, r6, lr}
 395              		.save {r4, r5, r6, lr}
 396              		.cfi_def_cfa_offset 16
 397              		.cfi_offset 4, -16
 398              		.cfi_offset 5, -12
 399              		.cfi_offset 6, -8
ARM GAS  /tmp/ccscnHdD.s 			page 8


 400              		.cfi_offset 14, -4
 401              		.pad #24
 402 0002 86B0     		sub	sp, sp, #24
 403              		.cfi_def_cfa_offset 40
 404              		.loc 1 72 0
 405 0004 06AC     		add	r4, sp, #24
 406 0006 0E46     		mov	r6, r1
 407 0008 04F8012D 		strb	r2, [r4, #-1]!
 408              	.LBB14:
 409              	.LBB15:
 410              		.loc 1 74 0
 411 000c 2023     		movs	r3, #32
 412              	@ 74 "main.cpp" 1
 413 000e 83F31188 		msr     BASEPRI, r3
 414              	@ 0 "" 2
 415              		.thumb
 416              	.LBE15:
 417              		.loc 1 75 0
 418 0012 0123     		movs	r3, #1
 419 0014 0025     		movs	r5, #0
 420 0016 0146     		mov	r1, r0
 421              	.LVL26:
 422 0018 0193     		str	r3, [sp, #4]
 423 001a 0094     		str	r4, [sp]
 424 001c 3246     		mov	r2, r6
 425              	.LVL27:
 426 001e 0295     		str	r5, [sp, #8]
 427 0020 0348     		ldr	r0, .L27
 428              	.LVL28:
 429 0022 FFF7FEFF 		bl	TWID_Write
 430              	.LVL29:
 431              	.LBB16:
 432              		.loc 1 76 0
 433 0026 2B46     		mov	r3, r5
 434              	@ 76 "main.cpp" 1
 435 0028 83F31188 		msr     BASEPRI, r3
 436              	@ 0 "" 2
 437              		.thumb
 438              	.LBE16:
 439              	.LBE14:
 440              		.loc 1 77 0
 441 002c 06B0     		add	sp, sp, #24
 442              		.cfi_def_cfa_offset 16
 443              		@ sp needed
 444 002e 70BD     		pop	{r4, r5, r6, pc}
 445              	.LVL30:
 446              	.L28:
 447              		.align	2
 448              	.L27:
 449 0030 00000000 		.word	.LANCHOR1
 450              		.cfi_endproc
 451              	.LFE40:
 452              		.fnend
 453              		.size	_Z13I2CWriteByteshhh, .-_Z13I2CWriteByteshhh
 454              		.section	.text._Z12I2CReadByteshhPhh,"ax",%progbits
 455              		.align	2
 456              		.p2align 4,,15
ARM GAS  /tmp/ccscnHdD.s 			page 9


 457              		.global	_Z12I2CReadByteshhPhh
 458              		.thumb
 459              		.thumb_func
 460              		.type	_Z12I2CReadByteshhPhh, %function
 461              	_Z12I2CReadByteshhPhh:
 462              		.fnstart
 463              	.LFB41:
 464              		.loc 1 81 0
 465              		.cfi_startproc
 466              		@ args = 0, pretend = 0, frame = 0
 467              		@ frame_needed = 0, uses_anonymous_args = 0
 468              	.LVL31:
 469 0000 70B5     		push	{r4, r5, r6, lr}
 470              		.save {r4, r5, r6, lr}
 471              		.cfi_def_cfa_offset 16
 472              		.cfi_offset 4, -16
 473              		.cfi_offset 5, -12
 474              		.cfi_offset 6, -8
 475              		.cfi_offset 14, -4
 476 0002 1C46     		mov	r4, r3
 477              		.pad #16
 478 0004 84B0     		sub	sp, sp, #16
 479              		.cfi_def_cfa_offset 32
 480              		.loc 1 81 0
 481 0006 0E46     		mov	r6, r1
 482              	.LBB17:
 483              	.LBB18:
 484              		.loc 1 82 0
 485 0008 2023     		movs	r3, #32
 486              	.LVL32:
 487              	@ 82 "main.cpp" 1
 488 000a 83F31188 		msr     BASEPRI, r3
 489              	@ 0 "" 2
 490              	.LVL33:
 491              		.thumb
 492              	.LBE18:
 493              		.loc 1 85 0
 494 000e 0025     		movs	r5, #0
 495 0010 8DE81400 		stmia	sp, {r2, r4}
 496 0014 0146     		mov	r1, r0
 497              	.LVL34:
 498 0016 3246     		mov	r2, r6
 499              	.LVL35:
 500 0018 0295     		str	r5, [sp, #8]
 501 001a 0123     		movs	r3, #1
 502 001c 0548     		ldr	r0, .L33
 503              	.LVL36:
 504 001e FFF7FEFF 		bl	TWID_Read
 505              	.LVL37:
 506 0022 A842     		cmp	r0, r5
 507              		.loc 1 83 0
 508 0024 18BF     		it	ne
 509 0026 2C46     		movne	r4, r5
 510              	.LVL38:
 511              	.LBB19:
 512              		.loc 1 88 0
 513 0028 2B46     		mov	r3, r5
ARM GAS  /tmp/ccscnHdD.s 			page 10


 514              	@ 88 "main.cpp" 1
 515 002a 83F31188 		msr     BASEPRI, r3
 516              	@ 0 "" 2
 517              		.thumb
 518              	.LBE19:
 519              	.LBE17:
 520              		.loc 1 90 0
 521 002e 2046     		mov	r0, r4
 522 0030 04B0     		add	sp, sp, #16
 523              		.cfi_def_cfa_offset 16
 524              		@ sp needed
 525 0032 70BD     		pop	{r4, r5, r6, pc}
 526              	.LVL39:
 527              	.L34:
 528              		.align	2
 529              	.L33:
 530 0034 00000000 		.word	.LANCHOR1
 531              		.cfi_endproc
 532              	.LFE41:
 533              		.fnend
 534              		.size	_Z12I2CReadByteshhPhh, .-_Z12I2CReadByteshhPhh
 535              		.section	.text.startup.main,"ax",%progbits
 536              		.align	2
 537              		.p2align 4,,15
 538              		.global	main
 539              		.thumb
 540              		.thumb_func
 541              		.type	main, %function
 542              	main:
 543              		.fnstart
 544              	.LFB44:
 545              		.loc 1 180 0
 546              		.cfi_startproc
 547              		@ args = 0, pretend = 0, frame = 0
 548              		@ frame_needed = 0, uses_anonymous_args = 0
 549 0000 00B5     		push	{lr}
 550              		.save {lr}
 551              		.cfi_def_cfa_offset 4
 552              		.cfi_offset 14, -4
 553              		.pad #12
 554 0002 83B0     		sub	sp, sp, #12
 555              		.cfi_def_cfa_offset 16
 556              		.loc 1 182 0
 557 0004 FFF7FEFF 		bl	halInit
 558              	.LVL40:
 559              		.loc 1 183 0
 560 0008 FFF7FEFF 		bl	chSysInit
 561              	.LVL41:
 562              		.loc 1 189 0
 563 000c FFF7FEFF 		bl	_Z7I2CInitv
 564              	.LVL42:
 565              		.loc 1 192 0
 566 0010 0023     		movs	r3, #0
 567 0012 0093     		str	r3, [sp]
 568 0014 0648     		ldr	r0, .L38
 569 0016 4FF49871 		mov	r1, #304
 570 001a 4022     		movs	r2, #64
ARM GAS  /tmp/ccscnHdD.s 			page 11


 571 001c 054B     		ldr	r3, .L38+4
 572 001e FFF7FEFF 		bl	chThdCreateStatic
 573              	.LVL43:
 574              	.L36:
 575              		.loc 1 197 0 discriminator 1
 576 0022 6820     		movs	r0, #104
 577 0024 6B21     		movs	r1, #107
 578 0026 0022     		movs	r2, #0
 579 0028 FFF7FEFF 		bl	_Z13I2CWriteByteshhh
 580              	.LVL44:
 581              		.loc 1 180 0 discriminator 1
 582 002c F9E7     		b	.L36
 583              	.L39:
 584 002e 00BF     		.align	2
 585              	.L38:
 586 0030 00000000 		.word	.LANCHOR2
 587 0034 00000000 		.word	_ZL7Thread1Pv
 588              		.cfi_endproc
 589              	.LFE44:
 590              		.fnend
 591              		.size	main, .-main
 592              		.global	twid_
 593              		.section	.bss.twid_,"aw",%nobits
 594              		.align	2
 595              		.set	.LANCHOR1,. + 0
 596              		.type	twid_, %object
 597              		.size	twid_, 8
 598              	twid_:
 599 0000 00000000 		.space	8
 599      00000000 
 600              		.section	.rodata._ZL4pins,"a",%progbits
 601              		.align	2
 602              		.set	.LANCHOR0,. + 0
 603              		.type	_ZL4pins, %object
 604              		.size	_ZL4pins, 24
 605              	_ZL4pins:
 606 0000 08000000 		.word	8
 607 0004 000E0E40 		.word	1074662912
 608 0008 0B       		.byte	11
 609 0009 00       		.byte	0
 610 000a 00       		.byte	0
 611 000b 00       		.space	1
 612 000c 10000000 		.word	16
 613 0010 000E0E40 		.word	1074662912
 614 0014 0B       		.byte	11
 615 0015 00       		.byte	0
 616 0016 00       		.byte	0
 617 0017 00       		.space	1
 618              		.section	.bss._ZL9waThread1,"aw",%nobits
 619              		.align	3
 620              		.set	.LANCHOR2,. + 0
 621              		.type	_ZL9waThread1, %object
 622              		.size	_ZL9waThread1, 304
 623              	_ZL9waThread1:
 624 0000 00000000 		.space	304
 624      00000000 
 624      00000000 
ARM GAS  /tmp/ccscnHdD.s 			page 12


 624      00000000 
 624      00000000 
 625              		.text
 626              	.Letext0:
 627              		.file 2 "/home/nixtropy/opt/gcc-arm-none-eabi-4_9-2015q3/arm-none-eabi/include/machine/_default_ty
 628              		.file 3 "/home/nixtropy/opt/gcc-arm-none-eabi-4_9-2015q3/arm-none-eabi/include/sys/_stdint.h"
 629              		.file 4 "/home/nixtropy/opt/gcc-arm-none-eabi-4_9-2015q3/arm-none-eabi/include/stdint.h"
 630              		.file 5 "../../ext/ChibiOS/os/hal/platforms/AT91SAM3S/at91lib/SAM3S.h"
 631              		.file 6 "/home/nixtropy/opt/gcc-arm-none-eabi-4_9-2015q3/lib/gcc/arm-none-eabi/4.9.3/include/stdde
 632              		.file 7 "../../ext/ChibiOS/os/ports/GCC/ARMCMx/chtypes.h"
 633              		.file 8 "../../ext/ChibiOS/os/kernel/include/chlists.h"
 634              		.file 9 "../../ext/ChibiOS/os/kernel/include/chthreads.h"
 635              		.file 10 "../../ext/ChibiOS/os/ports/GCC/ARMCMx/chcore_v7m.h"
 636              		.file 11 "../../ext/ChibiOS/os/kernel/include/chmtx.h"
 637              		.file 12 "../../ext/ChibiOS/os/kernel/include/chevents.h"
 638              		.file 13 "../../ext/ChibiOS/os/kernel/include/chqueues.h"
 639              		.file 14 "../../ext/ChibiOS/os/kernel/include/chioch.h"
 640              		.file 15 "../../ext/ChibiOS/os/hal/platforms/AT91SAM3S/pal_lld.h"
 641              		.file 16 "../../ext/ChibiOS/os/hal/include/serial.h"
 642              		.file 17 "../../ext/ChibiOS/os/hal/platforms/AT91SAM3S/pio.h"
 643              		.file 18 "../../ext/ChibiOS/os/hal/platforms/AT91SAM3S/async.h"
 644              		.file 19 "../../ext/ChibiOS/os/hal/platforms/AT91SAM3S/atmel_twid.h"
 645              		.file 20 "../../ext/ChibiOS/os/hal/platforms/AT91SAM3S/serial_lld.h"
 646              		.file 21 "../../ext/ChibiOS/os/hal/platforms/AT91SAM3S/core_cm3.h"
 647              		.file 22 "../../ext/ChibiOS/os/hal/platforms/AT91SAM3S/atmel_twi.h"
 648              		.file 23 "../../ext/ChibiOS/os/hal/include/hal.h"
 649              		.file 24 "../../ext/ChibiOS/os/kernel/include/chsys.h"