ARM GAS  /tmp/ccscnHdD.s 			page 1


   1              		.syntax unified
   2              		.cpu cortex-m3
   3              		.fpu softvfp
   4              		.eabi_attribute 20, 1
   5              		.eabi_attribute 21, 1
   6              		.eabi_attribute 23, 3
   7              		.eabi_attribute 24, 1
   8              		.eabi_attribute 25, 1
   9              		.eabi_attribute 26, 1
  10              		.eabi_attribute 30, 2
  11              		.eabi_attribute 34, 1
  12              		.eabi_attribute 18, 4
  13              		.thumb
  14              		.file	"main.cpp"
  15              		.text
  16              	.Ltext0:
  17              		.cfi_sections	.debug_frame
  18              		.section	.text._ZL7Thread1Pv,"ax",%progbits
  19              		.align	2
  20              		.p2align 4,,15
  21              		.thumb
  22              		.thumb_func
  23              		.type	_ZL7Thread1Pv, %function
  24              	_ZL7Thread1Pv:
  25              		.fnstart
  26              	.LFB42:
  27              		.file 1 "main.cpp"
  28              		.loc 1 94 0
  29              		.cfi_startproc
  30              		@ args = 0, pretend = 0, frame = 0
  31              		@ frame_needed = 0, uses_anonymous_args = 0
  32              	.LVL0:
  33 0000 70B5     		push	{r4, r5, r6, lr}
  34              		.save {r4, r5, r6, lr}
  35              		.cfi_def_cfa_offset 16
  36              		.cfi_offset 4, -16
  37              		.cfi_offset 5, -12
  38              		.cfi_offset 6, -8
  39              		.cfi_offset 14, -4
  40              		.loc 1 98 0
  41 0002 4FF40035 		mov	r5, #131072
  42 0006 2E46     		mov	r6, r5
  43 0008 054C     		ldr	r4, .L5
  44              	.LVL1:
  45              	.L2:
  46              		.loc 1 98 0 is_stmt 0 discriminator 1
  47 000a 6663     		str	r6, [r4, #52]
  48              		.loc 1 99 0 is_stmt 1 discriminator 1
  49 000c 4FF47A70 		mov	r0, #1000
  50 0010 FFF7FEFF 		bl	chThdSleep
  51              	.LVL2:
  52              		.loc 1 100 0 discriminator 1
  53 0014 2563     		str	r5, [r4, #48]
  54              		.loc 1 101 0 discriminator 1
  55 0016 4FF47A70 		mov	r0, #1000
  56 001a FFF7FEFF 		bl	chThdSleep
  57              	.LVL3:
ARM GAS  /tmp/ccscnHdD.s 			page 2


  58              		.loc 1 94 0 discriminator 1
  59 001e F4E7     		b	.L2
  60              	.L6:
  61              		.align	2
  62              	.L5:
  63 0020 00120E40 		.word	1074663936
  64              		.cfi_endproc
  65              	.LFE42:
  66              		.fnend
  67              		.size	_ZL7Thread1Pv, .-_ZL7Thread1Pv
  68              		.section	.text._Z7I2CInitv,"ax",%progbits
  69              		.align	2
  70              		.p2align 4,,15
  71              		.global	_Z7I2CInitv
  72              		.thumb
  73              		.thumb_func
  74              		.type	_Z7I2CInitv, %function
  75              	_Z7I2CInitv:
  76              		.fnstart
  77              	.LFB36:
  78              		.loc 1 31 0
  79              		.cfi_startproc
  80              		@ args = 0, pretend = 0, frame = 0
  81              		@ frame_needed = 0, uses_anonymous_args = 0
  82 0000 10B5     		push	{r4, lr}
  83              		.save {r4, lr}
  84              		.cfi_def_cfa_offset 8
  85              		.cfi_offset 4, -8
  86              		.cfi_offset 14, -4
  87              	.LBB2:
  88              	.LBB3:
  89              		.loc 1 33 0
  90 0002 2023     		movs	r3, #32
  91              	@ 33 "main.cpp" 1
  92 0004 83F31188 		msr     BASEPRI, r3
  93              	@ 0 "" 2
  94              		.thumb
  95              	.LBE3:
  96              		.loc 1 34 0
  97 0008 0221     		movs	r1, #2
  98 000a 0D48     		ldr	r0, .L9
  99 000c FFF7FEFF 		bl	PIO_Configure
 100              	.LVL4:
 101              		.loc 1 38 0
 102 0010 0C4C     		ldr	r4, .L9+4
 103              		.loc 1 35 0
 104 0012 0D4B     		ldr	r3, .L9+8
 105 0014 0D48     		ldr	r0, .L9+12
 106              		.loc 1 37 0
 107 0016 0E4A     		ldr	r2, .L9+16
 108              		.loc 1 36 0
 109 0018 4FF40021 		mov	r1, #524288
 110              		.loc 1 35 0
 111 001c C3F8E400 		str	r0, [r3, #228]
 112              		.loc 1 36 0
 113 0020 1961     		str	r1, [r3, #16]
 114              		.loc 1 38 0
ARM GAS  /tmp/ccscnHdD.s 			page 3


 115 0022 2046     		mov	r0, r4
 116              		.loc 1 37 0
 117 0024 C3F8E420 		str	r2, [r3, #228]
 118              		.loc 1 38 0
 119 0028 0A49     		ldr	r1, .L9+20
 120 002a 0B4A     		ldr	r2, .L9+24
 121 002c FFF7FEFF 		bl	TWI_ConfigureMaster
 122              	.LVL5:
 123              		.loc 1 39 0
 124 0030 2146     		mov	r1, r4
 125 0032 0A48     		ldr	r0, .L9+28
 126 0034 FFF7FEFF 		bl	TWID_Initialize
 127              	.LVL6:
 128              	.LBB4:
 129              		.loc 1 40 0
 130 0038 0023     		movs	r3, #0
 131              	@ 40 "main.cpp" 1
 132 003a 83F31188 		msr     BASEPRI, r3
 133              	@ 0 "" 2
 134              		.thumb
 135 003e 10BD     		pop	{r4, pc}
 136              	.L10:
 137              		.align	2
 138              	.L9:
 139 0040 00000000 		.word	.LANCHOR0
 140 0044 00800140 		.word	1073840128
 141 0048 00040E40 		.word	1074660352
 142 004c 00434D50 		.word	1347240704
 143 0050 01434D50 		.word	1347240705
 144 0054 801A0600 		.word	400000
 145 0058 0090D003 		.word	64000000
 146 005c 00000000 		.word	.LANCHOR1
 147              	.LBE4:
 148              	.LBE2:
 149              		.cfi_endproc
 150              	.LFE36:
 151              		.fnend
 152              		.size	_Z7I2CInitv, .-_Z7I2CInitv
 153              		.section	.text._Z15I2CReadByte_subhh,"ax",%progbits
 154              		.align	2
 155              		.p2align 4,,15
 156              		.global	_Z15I2CReadByte_subhh
 157              		.thumb
 158              		.thumb_func
 159              		.type	_Z15I2CReadByte_subhh, %function
 160              	_Z15I2CReadByte_subhh:
 161              		.fnstart
 162              	.LFB37:
 163              		.loc 1 43 0
 164              		.cfi_startproc
 165              		@ args = 0, pretend = 0, frame = 8
 166              		@ frame_needed = 0, uses_anonymous_args = 0
 167              	.LVL7:
 168 0000 70B5     		push	{r4, r5, r6, lr}
 169              		.save {r4, r5, r6, lr}
 170              		.cfi_def_cfa_offset 16
 171              		.cfi_offset 4, -16
ARM GAS  /tmp/ccscnHdD.s 			page 4


 172              		.cfi_offset 5, -12
 173              		.cfi_offset 6, -8
 174              		.cfi_offset 14, -4
 175 0002 0A46     		mov	r2, r1
 176              		.pad #24
 177 0004 86B0     		sub	sp, sp, #24
 178              		.cfi_def_cfa_offset 40
 179              	.LBB5:
 180              	.LBB6:
 181              		.loc 1 45 0
 182 0006 2023     		movs	r3, #32
 183              	@ 45 "main.cpp" 1
 184 0008 83F31188 		msr     BASEPRI, r3
 185              	@ 0 "" 2
 186              		.thumb
 187              	.LBE6:
 188              		.loc 1 49 0
 189 000c 0024     		movs	r4, #0
 190 000e 0DF11705 		add	r5, sp, #23
 191 0012 0123     		movs	r3, #1
 192 0014 0146     		mov	r1, r0
 193              	.LVL8:
 194 0016 0095     		str	r5, [sp]
 195 0018 0294     		str	r4, [sp, #8]
 196 001a 0193     		str	r3, [sp, #4]
 197 001c 0548     		ldr	r0, .L14
 198              	.LVL9:
 199 001e FFF7FEFF 		bl	TWID_Read
 200              	.LVL10:
 201 0022 08B9     		cbnz	r0, .L12
 202              		.loc 1 49 0 is_stmt 0 discriminator 2
 203 0024 9DF81760 		ldrb	r6, [sp, #23]	@ zero_extendqisi2
 204              	.LVL11:
 205              	.L12:
 206              	.LBB7:
 207              		.loc 1 50 0 is_stmt 1
 208 0028 0023     		movs	r3, #0
 209              	@ 50 "main.cpp" 1
 210 002a 83F31188 		msr     BASEPRI, r3
 211              	@ 0 "" 2
 212              		.thumb
 213              	.LBE7:
 214              	.LBE5:
 215              		.loc 1 52 0
 216 002e 3046     		mov	r0, r6
 217 0030 06B0     		add	sp, sp, #24
 218              		.cfi_def_cfa_offset 16
 219              		@ sp needed
 220 0032 70BD     		pop	{r4, r5, r6, pc}
 221              	.LVL12:
 222              	.L15:
 223              		.align	2
 224              	.L14:
 225 0034 00000000 		.word	.LANCHOR1
 226              		.cfi_endproc
 227              	.LFE37:
 228              		.fnend
ARM GAS  /tmp/ccscnHdD.s 			page 5


 229              		.size	_Z15I2CReadByte_subhh, .-_Z15I2CReadByte_subhh
 230              		.section	.text._Z12I2CWriteBytehh,"ax",%progbits
 231              		.align	2
 232              		.p2align 4,,15
 233              		.global	_Z12I2CWriteBytehh
 234              		.thumb
 235              		.thumb_func
 236              		.type	_Z12I2CWriteBytehh, %function
 237              	_Z12I2CWriteBytehh:
 238              		.fnstart
 239              	.LFB38:
 240              		.loc 1 54 0
 241              		.cfi_startproc
 242              		@ args = 0, pretend = 0, frame = 8
 243              		@ frame_needed = 0, uses_anonymous_args = 0
 244              	.LVL13:
 245 0000 10B5     		push	{r4, lr}
 246              		.save {r4, lr}
 247              		.cfi_def_cfa_offset 8
 248              		.cfi_offset 4, -8
 249              		.cfi_offset 14, -4
 250              		.pad #24
 251 0002 86B0     		sub	sp, sp, #24
 252              		.cfi_def_cfa_offset 32
 253              		.loc 1 54 0
 254 0004 06AA     		add	r2, sp, #24
 255 0006 02F8011D 		strb	r1, [r2, #-1]!
 256              	.LBB8:
 257              	.LBB9:
 258              		.loc 1 56 0
 259 000a 2023     		movs	r3, #32
 260              	@ 56 "main.cpp" 1
 261 000c 83F31188 		msr     BASEPRI, r3
 262              	@ 0 "" 2
 263              		.thumb
 264              	.LBE9:
 265              		.loc 1 57 0
 266 0010 0024     		movs	r4, #0
 267 0012 0123     		movs	r3, #1
 268 0014 0092     		str	r2, [sp]
 269 0016 0146     		mov	r1, r0
 270              	.LVL14:
 271 0018 0193     		str	r3, [sp, #4]
 272 001a 0294     		str	r4, [sp, #8]
 273 001c 2346     		mov	r3, r4
 274 001e 2246     		mov	r2, r4
 275              	.LVL15:
 276 0020 0348     		ldr	r0, .L18
 277              	.LVL16:
 278 0022 FFF7FEFF 		bl	TWID_Write
 279              	.LVL17:
 280              	.LBB10:
 281              		.loc 1 58 0
 282 0026 2346     		mov	r3, r4
 283              	@ 58 "main.cpp" 1
 284 0028 83F31188 		msr     BASEPRI, r3
 285              	@ 0 "" 2
ARM GAS  /tmp/ccscnHdD.s 			page 6


 286              		.thumb
 287              	.LBE10:
 288              	.LBE8:
 289              		.loc 1 59 0
 290 002c 06B0     		add	sp, sp, #24
 291              		.cfi_def_cfa_offset 8
 292              	.LVL18:
 293              		@ sp needed
 294 002e 10BD     		pop	{r4, pc}
 295              	.LVL19:
 296              	.L19:
 297              		.align	2
 298              	.L18:
 299 0030 00000000 		.word	.LANCHOR1
 300              		.cfi_endproc
 301              	.LFE38:
 302              		.fnend
 303              		.size	_Z12I2CWriteBytehh, .-_Z12I2CWriteBytehh
 304              		.section	.text._Z11I2CReadByteh,"ax",%progbits
 305              		.align	2
 306              		.p2align 4,,15
 307              		.global	_Z11I2CReadByteh
 308              		.thumb
 309              		.thumb_func
 310              		.type	_Z11I2CReadByteh, %function
 311              	_Z11I2CReadByteh:
 312              		.fnstart
 313              	.LFB39:
 314              		.loc 1 61 0
 315              		.cfi_startproc
 316              		@ args = 0, pretend = 0, frame = 8
 317              		@ frame_needed = 0, uses_anonymous_args = 0
 318              	.LVL20:
 319 0000 30B5     		push	{r4, r5, lr}
 320              		.save {r4, r5, lr}
 321              		.cfi_def_cfa_offset 12
 322              		.cfi_offset 4, -12
 323              		.cfi_offset 5, -8
 324              		.cfi_offset 14, -4
 325 0002 0146     		mov	r1, r0
 326              		.pad #28
 327 0004 87B0     		sub	sp, sp, #28
 328              		.cfi_def_cfa_offset 40
 329              	.LBB11:
 330              	.LBB12:
 331              		.loc 1 63 0
 332 0006 2023     		movs	r3, #32
 333              	@ 63 "main.cpp" 1
 334 0008 83F31188 		msr     BASEPRI, r3
 335              	@ 0 "" 2
 336              		.thumb
 337              	.LBE12:
 338              		.loc 1 67 0
 339 000c 0123     		movs	r3, #1
 340 000e 0022     		movs	r2, #0
 341 0010 0DF11704 		add	r4, sp, #23
 342 0014 0193     		str	r3, [sp, #4]
ARM GAS  /tmp/ccscnHdD.s 			page 7


 343 0016 0094     		str	r4, [sp]
 344 0018 0292     		str	r2, [sp, #8]
 345 001a 1346     		mov	r3, r2
 346 001c 0548     		ldr	r0, .L23
 347              	.LVL21:
 348 001e FFF7FEFF 		bl	TWID_Read
 349              	.LVL22:
 350 0022 08B9     		cbnz	r0, .L21
 351              		.loc 1 67 0 is_stmt 0 discriminator 2
 352 0024 9DF81750 		ldrb	r5, [sp, #23]	@ zero_extendqisi2
 353              	.LVL23:
 354              	.L21:
 355              	.LBB13:
 356              		.loc 1 68 0 is_stmt 1
 357 0028 0023     		movs	r3, #0
 358              	@ 68 "main.cpp" 1
 359 002a 83F31188 		msr     BASEPRI, r3
 360              	@ 0 "" 2
 361              		.thumb
 362              	.LBE13:
 363              	.LBE11:
 364              		.loc 1 70 0
 365 002e 2846     		mov	r0, r5
 366 0030 07B0     		add	sp, sp, #28
 367              		.cfi_def_cfa_offset 12
 368              		@ sp needed
 369 0032 30BD     		pop	{r4, r5, pc}
 370              	.LVL24:
 371              	.L24:
 372              		.align	2
 373              	.L23:
 374 0034 00000000 		.word	.LANCHOR1
 375              		.cfi_endproc
 376              	.LFE39:
 377              		.fnend
 378              		.size	_Z11I2CReadByteh, .-_Z11I2CReadByteh
 379              		.section	.text._Z13I2CWriteByteshhh,"ax",%progbits
 380              		.align	2
 381              		.p2align 4,,15
 382              		.global	_Z13I2CWriteByteshhh
 383              		.thumb
 384              		.thumb_func
 385              		.type	_Z13I2CWriteByteshhh, %function
 386              	_Z13I2CWriteByteshhh:
 387              		.fnstart
 388              	.LFB40:
 389              		.loc 1 72 0
 390              		.cfi_startproc
 391              		@ args = 0, pretend = 0, frame = 8
 392              		@ frame_needed = 0, uses_anonymous_args = 0
 393              	.LVL25:
 394 0000 70B5     		push	{r4, r5, r6, lr}
 395              		.save {r4, r5, r6, lr}
 396              		.cfi_def_cfa_offset 16
 397              		.cfi_offset 4, -16
 398              		.cfi_offset 5, -12
 399              		.cfi_offset 6, -8
ARM GAS  /tmp/ccscnHdD.s 			page 8


 400              		.cfi_offset 14, -4
 401              		.pad #24
 402 0002 86B0     		sub	sp, sp, #24
 403              		.cfi_def_cfa_offset 40
 404              		.loc 1 72 0
 405 0004 06AC     		add	r4, sp, #24
 406 0006 0E46     		mov	r6, r1
 407 0008 04F8012D 		strb	r2, [r4, #-1]!
 408              	.LBB14:
 409              	.LBB15:
 410              		.loc 1 74 0
 411 000c 2023     		movs	r3, #32
 412              	@ 74 "main.cpp" 1
 413 000e 83F31188 		msr     BASEPRI, r3
 414              	@ 0 "" 2
 415              		.thumb
 416              	.LBE15:
 417              		.loc 1 75 0
 418 0012 0123     		movs	r3, #1
 419 0014 0025     		movs	r5, #0
 420 0016 0146     		mov	r1, r0
 421              	.LVL26:
 422 0018 0193     		str	r3, [sp, #4]
 423 001a 0094     		str	r4, [sp]
 424 001c 3246     		mov	r2, r6
 425              	.LVL27:
 426 001e 0295     		str	r5, [sp, #8]
 427 0020 0348     		ldr	r0, .L27
 428              	.LVL28:
 429 0022 FFF7FEFF 		bl	TWID_Write
 430              	.LVL29:
 431              	.LBB16:
 432              		.loc 1 76 0
 433 0026 2B46     		mov	r3, r5
 434              	@ 76 "main.cpp" 1
 435 0028 83F31188 		msr     BASEPRI, r3
 436              	@ 0 "" 2
 437              		.thumb
 438              	.LBE16:
 439              	.LBE14:
 440              		.loc 1 77 0
 441 002c 06B0     		add	sp, sp, #24
 442              		.cfi_def_cfa_offset 16
 443              		@ sp needed
 444 002e 70BD     		pop	{r4, r5, r6, pc}
 445              	.LVL30:
 446              	.L28:
 447              		.align	2
 448              	.L27:
 449 0030 00000000 		.word	.LANCHOR1
 450              		.cfi_endproc
 451              	.LFE40:
 452              		.fnend
 453              		.size	_Z13I2CWriteByteshhh, .-_Z13I2CWriteByteshhh
 454              		.section	.text._Z12I2CReadByteshhPhh,"ax",%progbits
 455              		.align	2
 456              		.p2align 4,,15
ARM GAS  /tmp/ccscnHdD.s 			page 9


 457              		.global	_Z12I2CReadByteshhPhh
 458              		.thumb
 459              		.thumb_func
 460              		.type	_Z12I2CReadByteshhPhh, %function
 461              	_Z12I2CReadByteshhPhh:
 462              		.fnstart
 463              	.LFB41:
 464              		.loc 1 81 0
 465              		.cfi_startproc
 466              		@ args = 0, pretend = 0, frame = 0
 467              		@ frame_needed = 0, uses_anonymous_args = 0
 468              	.LVL31:
 469 0000 70B5     		push	{r4, r5, r6, lr}
 470              		.save {r4, r5, r6, lr}
 471              		.cfi_def_cfa_offset 16
 472              		.cfi_offset 4, -16
 473              		.cfi_offset 5, -12
 474              		.cfi_offset 6, -8
 475              		.cfi_offset 14, -4
 476 0002 1C46     		mov	r4, r3
 477              		.pad #16
 478 0004 84B0     		sub	sp, sp, #16
 479              		.cfi_def_cfa_offset 32
 480              		.loc 1 81 0
 481 0006 0E46     		mov	r6, r1
 482              	.LBB17:
 483              	.LBB18:
 484              		.loc 1 82 0
 485 0008 2023     		movs	r3, #32
 486              	.LVL32:
 487              	@ 82 "main.cpp" 1
 488 000a 83F31188 		msr     BASEPRI, r3
 489              	@ 0 "" 2
 490              	.LVL33:
 491              		.thumb
 492              	.LBE18:
 493              		.loc 1 85 0
 494 000e 0025     		movs	r5, #0
 495 0010 8DE81400 		stmia	sp, {r2, r4}
 496 0014 0146     		mov	r1, r0
 497              	.LVL34:
 498 0016 3246     		mov	r2, r6
 499              	.LVL35:
 500 0018 0295     		str	r5, [sp, #8]
 501 001a 0123     		movs	r3, #1
 502 001c 0548     		ldr	r0, .L33
 503              	.LVL36:
 504 001e FFF7FEFF 		bl	TWID_Read
 505              	.LVL37:
 506 0022 A842     		cmp	r0, r5
 507              		.loc 1 83 0
 508 0024 18BF     		it	ne
 509 0026 2C46     		movne	r4, r5
 510              	.LVL38:
 511              	.LBB19:
 512              		.loc 1 88 0
 513 0028 2B46     		mov	r3, r5
ARM GAS  /tmp/ccscnHdD.s 			page 10


 514              	@ 88 "main.cpp" 1
 515 002a 83F31188 		msr     BASEPRI, r3
 516              	@ 0 "" 2
 517              		.thumb
 518              	.LBE19:
 519              	.LBE17:
 520              		.loc 1 90 0
 521 002e 2046     		mov	r0, r4
 522 0030 04B0     		add	sp, sp, #16
 523              		.cfi_def_cfa_offset 16
 524              		@ sp needed
 525 0032 70BD     		pop	{r4, r5, r6, pc}
 526              	.LVL39:
 527              	.L34:
 528              		.align	2
 529              	.L33:
 530 0034 00000000 		.word	.LANCHOR1
 531              		.cfi_endproc
 532              	.LFE41:
 533              		.fnend
 534              		.size	_Z12I2CReadByteshhPhh, .-_Z12I2CReadByteshhPhh
 535              		.section	.text.startup.main,"ax",%progbits
 536              		.align	2
 537              		.p2align 4,,15
 538              		.global	main
 539              		.thumb
 540              		.thumb_func
 541              		.type	main, %function
 542              	main:
 543              		.fnstart
 544              	.LFB44:
 545              		.loc 1 180 0
 546              		.cfi_startproc
 547              		@ args = 0, pretend = 0, frame = 0
 548              		@ frame_needed = 0, uses_anonymous_args = 0
 549 0000 00B5     		push	{lr}
 550              		.save {lr}
 551              		.cfi_def_cfa_offset 4
 552              		.cfi_offset 14, -4
 553              		.pad #12
 554 0002 83B0     		sub	sp, sp, #12
 555              		.cfi_def_cfa_offset 16
 556              		.loc 1 182 0
 557 0004 FFF7FEFF 		bl	halInit
 558              	.LVL40:
 559              		.loc 1 183 0
 560 0008 FFF7FEFF 		bl	chSysInit
 561              	.LVL41:
 562              		.loc 1 189 0
 563 000c FFF7FEFF 		bl	_Z7I2CInitv
 564              	.LVL42:
 565              		.loc 1 192 0
 566 0010 0023     		movs	r3, #0
 567 0012 0093     		str	r3, [sp]
 568 0014 0648     		ldr	r0, .L38
 569 0016 4FF49871 		mov	r1, #304
 570 001a 4022     		movs	r2, #64
ARM GAS  /tmp/ccscnHdD.s 			page 11


 571 001c 054B     		ldr	r3, .L38+4
 572 001e FFF7FEFF 		bl	chThdCreateStatic
 573              	.LVL43:
 574              	.L36:
 575              		.loc 1 197 0 discriminator 1
 576 0022 6820     		movs	r0, #104
 577 0024 6B21     		movs	r1, #107
 578 0026 0022     		movs	r2, #0
 579 0028 FFF7FEFF 		bl	_Z13I2CWriteByteshhh
 580              	.LVL44:
 581              		.loc 1 180 0 discriminator 1
 582 002c F9E7     		b	.L36
 583              	.L39:
 584 002e 00BF     		.align	2
 585              	.L38:
 586 0030 00000000 		.word	.LANCHOR2
 587 0034 00000000 		.word	_ZL7Thread1Pv
 588              		.cfi_endproc
 589              	.LFE44:
 590              		.fnend
 591              		.size	main, .-main
 592              		.global	twid_
 593              		.section	.bss.twid_,"aw",%nobits
 594              		.align	2
 595              		.set	.LANCHOR1,. + 0
 596              		.type	twid_, %object
 597              		.size	twid_, 8
 598              	twid_:
 599 0000 00000000 		.space	8
 599      00000000 
 600              		.section	.rodata._ZL4pins,"a",%progbits
 601              		.align	2
 602              		.set	.LANCHOR0,. + 0
 603              		.type	_ZL4pins, %object
 604              		.size	_ZL4pins, 24
 605              	_ZL4pins:
 606 0000 08000000 		.word	8
 607 0004 000E0E40 		.word	1074662912
 608 0008 0B       		.byte	11
 609 0009 00       		.byte	0
 610 000a 00       		.byte	0
 611 000b 00       		.space	1
 612 000c 10000000 		.word	16
 613 0010 000E0E40 		.word	1074662912
 614 0014 0B       		.byte	11
 615 0015 00       		.byte	0
 616 0016 00       		.byte	0
 617 0017 00       		.space	1
 618              		.section	.bss._ZL9waThread1,"aw",%nobits
 619              		.align	3
 620              		.set	.LANCHOR2,. + 0
 621              		.type	_ZL9waThread1, %object
 622              		.size	_ZL9waThread1, 304
 623              	_ZL9waThread1:
 624 0000 00000000 		.space	304
 624      00000000 
 624      00000000 
ARM GAS  /tmp/ccscnHdD.s 			page 12


 624      00000000 
 624      00000000 
 625              		.text
 626              	.Letext0:
 627              		.file 2 "/home/nixtropy/opt/gcc-arm-none-eabi-4_9-2015q3/arm-none-eabi/include/machine/_default_ty
 628              		.file 3 "/home/nixtropy/opt/gcc-arm-none-eabi-4_9-2015q3/arm-none-eabi/include/sys/_stdint.h"
 629              		.file 4 "/home/nixtropy/opt/gcc-arm-none-eabi-4_9-2015q3/arm-none-eabi/include/stdint.h"
 630              		.file 5 "../../ext/ChibiOS/os/hal/platforms/AT91SAM3S/at91lib/SAM3S.h"
 631              		.file 6 "/home/nixtropy/opt/gcc-arm-none-eabi-4_9-2015q3/lib/gcc/arm-none-eabi/4.9.3/include/stdde
 632              		.file 7 "../../ext/ChibiOS/os/ports/GCC/ARMCMx/chtypes.h"
 633              		.file 8 "../../ext/ChibiOS/os/kernel/include/chlists.h"
 634              		.file 9 "../../ext/ChibiOS/os/kernel/include/chthreads.h"
 635              		.file 10 "../../ext/ChibiOS/os/ports/GCC/ARMCMx/chcore_v7m.h"
 636              		.file 11 "../../ext/ChibiOS/os/kernel/include/chmtx.h"
 637              		.file 12 "../../ext/ChibiOS/os/kernel/include/chevents.h"
 638              		.file 13 "../../ext/ChibiOS/os/kernel/include/chqueues.h"
 639              		.file 14 "../../ext/ChibiOS/os/kernel/include/chioch.h"
 640              		.file 15 "../../ext/ChibiOS/os/hal/platforms/AT91SAM3S/pal_lld.h"
 641              		.file 16 "../../ext/ChibiOS/os/hal/include/serial.h"
 642              		.file 17 "../../ext/ChibiOS/os/hal/platforms/AT91SAM3S/pio.h"
 643              		.file 18 "../../ext/ChibiOS/os/hal/platforms/AT91SAM3S/async.h"
 644              		.file 19 "../../ext/ChibiOS/os/hal/platforms/AT91SAM3S/atmel_twid.h"
 645              		.file 20 "../../ext/ChibiOS/os/hal/platforms/AT91SAM3S/serial_lld.h"
 646              		.file 21 "../../ext/ChibiOS/os/hal/platforms/AT91SAM3S/core_cm3.h"
 647              		.file 22 "../../ext/ChibiOS/os/hal/platforms/AT91SAM3S/atmel_twi.h"
 648              		.file 23 "../../ext/ChibiOS/os/hal/include/hal.h"
 649              		.file 24 "../../ext/ChibiOS/os/kernel/include/chsys.h"
 650              		.section	.debug_info,"",%progbits
 651              	.Ldebug_info0:
 652 0000 74180000 		.4byte	0x1874
 653 0004 0400     		.2byte	0x4
 654 0006 00000000 		.4byte	.Ldebug_abbrev0
 655 000a 04       		.byte	0x4
 656 000b 01       		.uleb128 0x1
 657 000c FD040000 		.4byte	.LASF294
 658 0010 04       		.byte	0x4
 659 0011 94020000 		.4byte	.LASF295
 660 0015 21030000 		.4byte	.LASF296
 661 0019 00000000 		.4byte	.Ldebug_ranges0+0
 662 001d 00000000 		.4byte	0
 663 0021 00000000 		.4byte	.Ldebug_line0
 664 0025 02       		.uleb128 0x2
 665 0026 01       		.byte	0x1
 666 0027 06       		.byte	0x6
 667 0028 9D020000 		.4byte	.LASF0
 668 002c 03       		.uleb128 0x3
 669 002d 44010000 		.4byte	.LASF4
 670 0031 02       		.byte	0x2
 671 0032 1D       		.byte	0x1d
 672 0033 37000000 		.4byte	0x37
 673 0037 02       		.uleb128 0x2
 674 0038 01       		.byte	0x1
 675 0039 08       		.byte	0x8
 676 003a DE020000 		.4byte	.LASF1
 677 003e 02       		.uleb128 0x2
 678 003f 02       		.byte	0x2
 679 0040 05       		.byte	0x5
ARM GAS  /tmp/ccscnHdD.s 			page 13


 680 0041 100A0000 		.4byte	.LASF2
 681 0045 02       		.uleb128 0x2
 682 0046 02       		.byte	0x2
 683 0047 07       		.byte	0x7
 684 0048 2A0B0000 		.4byte	.LASF3
 685 004c 03       		.uleb128 0x3
 686 004d 570B0000 		.4byte	.LASF5
 687 0051 02       		.byte	0x2
 688 0052 3F       		.byte	0x3f
 689 0053 57000000 		.4byte	0x57
 690 0057 02       		.uleb128 0x2
 691 0058 04       		.byte	0x4
 692 0059 05       		.byte	0x5
 693 005a AC010000 		.4byte	.LASF6
 694 005e 03       		.uleb128 0x3
 695 005f 88060000 		.4byte	.LASF7
 696 0063 02       		.byte	0x2
 697 0064 41       		.byte	0x41
 698 0065 69000000 		.4byte	0x69
 699 0069 02       		.uleb128 0x2
 700 006a 04       		.byte	0x4
 701 006b 07       		.byte	0x7
 702 006c EF050000 		.4byte	.LASF8
 703 0070 02       		.uleb128 0x2
 704 0071 08       		.byte	0x8
 705 0072 05       		.byte	0x5
 706 0073 AC060000 		.4byte	.LASF9
 707 0077 02       		.uleb128 0x2
 708 0078 08       		.byte	0x8
 709 0079 07       		.byte	0x7
 710 007a 6A080000 		.4byte	.LASF10
 711 007e 04       		.uleb128 0x4
 712 007f 04       		.byte	0x4
 713 0080 05       		.byte	0x5
 714 0081 696E7400 		.ascii	"int\000"
 715 0085 02       		.uleb128 0x2
 716 0086 04       		.byte	0x4
 717 0087 07       		.byte	0x7
 718 0088 72070000 		.4byte	.LASF11
 719 008c 03       		.uleb128 0x3
 720 008d B0020000 		.4byte	.LASF12
 721 0091 03       		.byte	0x3
 722 0092 14       		.byte	0x14
 723 0093 2C000000 		.4byte	0x2c
 724 0097 03       		.uleb128 0x3
 725 0098 77000000 		.4byte	.LASF13
 726 009c 03       		.byte	0x3
 727 009d 1F       		.byte	0x1f
 728 009e 4C000000 		.4byte	0x4c
 729 00a2 03       		.uleb128 0x3
 730 00a3 CD0A0000 		.4byte	.LASF14
 731 00a7 03       		.byte	0x3
 732 00a8 20       		.byte	0x20
 733 00a9 5E000000 		.4byte	0x5e
 734 00ad 03       		.uleb128 0x3
 735 00ae F60A0000 		.4byte	.LASF15
 736 00b2 04       		.byte	0x4
ARM GAS  /tmp/ccscnHdD.s 			page 14


 737 00b3 3E       		.byte	0x3e
 738 00b4 85000000 		.4byte	0x85
 739 00b8 03       		.uleb128 0x3
 740 00b9 1A0A0000 		.4byte	.LASF16
 741 00bd 05       		.byte	0x5
 742 00be 37       		.byte	0x37
 743 00bf C3000000 		.4byte	0xc3
 744 00c3 05       		.uleb128 0x5
 745 00c4 A2000000 		.4byte	0xa2
 746 00c8 03       		.uleb128 0x3
 747 00c9 A3000000 		.4byte	.LASF17
 748 00cd 05       		.byte	0x5
 749 00ce 39       		.byte	0x39
 750 00cf C3000000 		.4byte	0xc3
 751 00d3 03       		.uleb128 0x3
 752 00d4 6B0A0000 		.4byte	.LASF18
 753 00d8 05       		.byte	0x5
 754 00d9 3A       		.byte	0x3a
 755 00da C3000000 		.4byte	0xc3
 756 00de 02       		.uleb128 0x2
 757 00df 04       		.byte	0x4
 758 00e0 07       		.byte	0x7
 759 00e1 39000000 		.4byte	.LASF19
 760 00e5 06       		.uleb128 0x6
 761 00e6 69000000 		.4byte	0x69
 762 00ea F5000000 		.4byte	0xf5
 763 00ee 07       		.uleb128 0x7
 764 00ef DE000000 		.4byte	0xde
 765 00f3 12       		.byte	0x12
 766 00f4 00       		.byte	0
 767 00f5 06       		.uleb128 0x6
 768 00f6 69000000 		.4byte	0x69
 769 00fa 05010000 		.4byte	0x105
 770 00fe 07       		.uleb128 0x7
 771 00ff DE000000 		.4byte	0xde
 772 0103 00       		.byte	0
 773 0104 00       		.byte	0
 774 0105 06       		.uleb128 0x6
 775 0106 69000000 		.4byte	0x69
 776 010a 15010000 		.4byte	0x115
 777 010e 07       		.uleb128 0x7
 778 010f DE000000 		.4byte	0xde
 779 0113 01       		.byte	0x1
 780 0114 00       		.byte	0
 781 0115 06       		.uleb128 0x6
 782 0116 69000000 		.4byte	0x69
 783 011a 25010000 		.4byte	0x125
 784 011e 07       		.uleb128 0x7
 785 011f DE000000 		.4byte	0xde
 786 0123 04       		.byte	0x4
 787 0124 00       		.byte	0
 788 0125 06       		.uleb128 0x6
 789 0126 69000000 		.4byte	0x69
 790 012a 35010000 		.4byte	0x135
 791 012e 07       		.uleb128 0x7
 792 012f DE000000 		.4byte	0xde
 793 0133 03       		.byte	0x3
ARM GAS  /tmp/ccscnHdD.s 			page 15


 794 0134 00       		.byte	0
 795 0135 08       		.uleb128 0x8
 796 0136 9001     		.2byte	0x190
 797 0138 05       		.byte	0x5
 798 0139 DA06     		.2byte	0x6da
 799 013b 20060000 		.4byte	.LASF96
 800 013f 32050000 		.4byte	0x532
 801 0143 09       		.uleb128 0x9
 802 0144 440B0000 		.4byte	.LASF20
 803 0148 05       		.byte	0x5
 804 0149 DB06     		.2byte	0x6db
 805 014b C8000000 		.4byte	0xc8
 806 014f 00       		.byte	0
 807 0150 09       		.uleb128 0x9
 808 0151 5D040000 		.4byte	.LASF21
 809 0155 05       		.byte	0x5
 810 0156 DC06     		.2byte	0x6dc
 811 0158 C8000000 		.4byte	0xc8
 812 015c 04       		.byte	0x4
 813 015d 09       		.uleb128 0x9
 814 015e DA040000 		.4byte	.LASF22
 815 0162 05       		.byte	0x5
 816 0163 DD06     		.2byte	0x6dd
 817 0165 B8000000 		.4byte	0xb8
 818 0169 08       		.byte	0x8
 819 016a 09       		.uleb128 0x9
 820 016b 39090000 		.4byte	.LASF23
 821 016f 05       		.byte	0x5
 822 0170 DE06     		.2byte	0x6de
 823 0172 32050000 		.4byte	0x532
 824 0176 0C       		.byte	0xc
 825 0177 09       		.uleb128 0x9
 826 0178 D9080000 		.4byte	.LASF24
 827 017c 05       		.byte	0x5
 828 017d DF06     		.2byte	0x6df
 829 017f C8000000 		.4byte	0xc8
 830 0183 10       		.byte	0x10
 831 0184 09       		.uleb128 0x9
 832 0185 9B080000 		.4byte	.LASF25
 833 0189 05       		.byte	0x5
 834 018a E006     		.2byte	0x6e0
 835 018c C8000000 		.4byte	0xc8
 836 0190 14       		.byte	0x14
 837 0191 09       		.uleb128 0x9
 838 0192 8C020000 		.4byte	.LASF26
 839 0196 05       		.byte	0x5
 840 0197 E106     		.2byte	0x6e1
 841 0199 B8000000 		.4byte	0xb8
 842 019d 18       		.byte	0x18
 843 019e 09       		.uleb128 0x9
 844 019f 43090000 		.4byte	.LASF27
 845 01a3 05       		.byte	0x5
 846 01a4 E206     		.2byte	0x6e2
 847 01a6 37050000 		.4byte	0x537
 848 01aa 1C       		.byte	0x1c
 849 01ab 09       		.uleb128 0x9
 850 01ac A9080000 		.4byte	.LASF28
ARM GAS  /tmp/ccscnHdD.s 			page 16


 851 01b0 05       		.byte	0x5
 852 01b1 E306     		.2byte	0x6e3
 853 01b3 C8000000 		.4byte	0xc8
 854 01b7 20       		.byte	0x20
 855 01b8 09       		.uleb128 0x9
 856 01b9 3D080000 		.4byte	.LASF29
 857 01bd 05       		.byte	0x5
 858 01be E406     		.2byte	0x6e4
 859 01c0 C8000000 		.4byte	0xc8
 860 01c4 24       		.byte	0x24
 861 01c5 09       		.uleb128 0x9
 862 01c6 F0010000 		.4byte	.LASF30
 863 01ca 05       		.byte	0x5
 864 01cb E506     		.2byte	0x6e5
 865 01cd B8000000 		.4byte	0xb8
 866 01d1 28       		.byte	0x28
 867 01d2 09       		.uleb128 0x9
 868 01d3 4D090000 		.4byte	.LASF31
 869 01d7 05       		.byte	0x5
 870 01d8 E606     		.2byte	0x6e6
 871 01da 3C050000 		.4byte	0x53c
 872 01de 2C       		.byte	0x2c
 873 01df 09       		.uleb128 0x9
 874 01e0 27070000 		.4byte	.LASF32
 875 01e4 05       		.byte	0x5
 876 01e5 E706     		.2byte	0x6e7
 877 01e7 C8000000 		.4byte	0xc8
 878 01eb 30       		.byte	0x30
 879 01ec 09       		.uleb128 0x9
 880 01ed 46060000 		.4byte	.LASF33
 881 01f1 05       		.byte	0x5
 882 01f2 E806     		.2byte	0x6e8
 883 01f4 C8000000 		.4byte	0xc8
 884 01f8 34       		.byte	0x34
 885 01f9 09       		.uleb128 0x9
 886 01fa CA090000 		.4byte	.LASF34
 887 01fe 05       		.byte	0x5
 888 01ff E906     		.2byte	0x6e9
 889 0201 D3000000 		.4byte	0xd3
 890 0205 38       		.byte	0x38
 891 0206 09       		.uleb128 0x9
 892 0207 FE030000 		.4byte	.LASF35
 893 020b 05       		.byte	0x5
 894 020c EA06     		.2byte	0x6ea
 895 020e B8000000 		.4byte	0xb8
 896 0212 3C       		.byte	0x3c
 897 0213 09       		.uleb128 0x9
 898 0214 FB060000 		.4byte	.LASF36
 899 0218 05       		.byte	0x5
 900 0219 EB06     		.2byte	0x6eb
 901 021b C8000000 		.4byte	0xc8
 902 021f 40       		.byte	0x40
 903 0220 09       		.uleb128 0x9
 904 0221 93060000 		.4byte	.LASF37
 905 0225 05       		.byte	0x5
 906 0226 EC06     		.2byte	0x6ec
 907 0228 C8000000 		.4byte	0xc8
ARM GAS  /tmp/ccscnHdD.s 			page 17


 908 022c 44       		.byte	0x44
 909 022d 09       		.uleb128 0x9
 910 022e B9090000 		.4byte	.LASF38
 911 0232 05       		.byte	0x5
 912 0233 ED06     		.2byte	0x6ed
 913 0235 B8000000 		.4byte	0xb8
 914 0239 48       		.byte	0x48
 915 023a 09       		.uleb128 0x9
 916 023b C20B0000 		.4byte	.LASF39
 917 023f 05       		.byte	0x5
 918 0240 EE06     		.2byte	0x6ee
 919 0242 B8000000 		.4byte	0xb8
 920 0246 4C       		.byte	0x4c
 921 0247 09       		.uleb128 0x9
 922 0248 4B040000 		.4byte	.LASF40
 923 024c 05       		.byte	0x5
 924 024d EF06     		.2byte	0x6ef
 925 024f C8000000 		.4byte	0xc8
 926 0253 50       		.byte	0x50
 927 0254 09       		.uleb128 0x9
 928 0255 EE030000 		.4byte	.LASF41
 929 0259 05       		.byte	0x5
 930 025a F006     		.2byte	0x6f0
 931 025c C8000000 		.4byte	0xc8
 932 0260 54       		.byte	0x54
 933 0261 09       		.uleb128 0x9
 934 0262 A7090000 		.4byte	.LASF42
 935 0266 05       		.byte	0x5
 936 0267 F106     		.2byte	0x6f1
 937 0269 B8000000 		.4byte	0xb8
 938 026d 58       		.byte	0x58
 939 026e 09       		.uleb128 0x9
 940 026f 57090000 		.4byte	.LASF43
 941 0273 05       		.byte	0x5
 942 0274 F206     		.2byte	0x6f2
 943 0276 41050000 		.4byte	0x541
 944 027a 5C       		.byte	0x5c
 945 027b 09       		.uleb128 0x9
 946 027c EC020000 		.4byte	.LASF44
 947 0280 05       		.byte	0x5
 948 0281 F306     		.2byte	0x6f3
 949 0283 C8000000 		.4byte	0xc8
 950 0287 60       		.byte	0x60
 951 0288 09       		.uleb128 0x9
 952 0289 98030000 		.4byte	.LASF45
 953 028d 05       		.byte	0x5
 954 028e F406     		.2byte	0x6f4
 955 0290 C8000000 		.4byte	0xc8
 956 0294 64       		.byte	0x64
 957 0295 09       		.uleb128 0x9
 958 0296 C8080000 		.4byte	.LASF46
 959 029a 05       		.byte	0x5
 960 029b F506     		.2byte	0x6f5
 961 029d B8000000 		.4byte	0xb8
 962 02a1 68       		.byte	0x68
 963 02a2 09       		.uleb128 0x9
 964 02a3 61090000 		.4byte	.LASF47
ARM GAS  /tmp/ccscnHdD.s 			page 18


 965 02a7 05       		.byte	0x5
 966 02a8 F606     		.2byte	0x6f6
 967 02aa 46050000 		.4byte	0x546
 968 02ae 6C       		.byte	0x6c
 969 02af 09       		.uleb128 0x9
 970 02b0 09020000 		.4byte	.LASF48
 971 02b4 05       		.byte	0x5
 972 02b5 F706     		.2byte	0x6f7
 973 02b7 4B050000 		.4byte	0x54b
 974 02bb 70       		.byte	0x70
 975 02bc 09       		.uleb128 0x9
 976 02bd 6B090000 		.4byte	.LASF49
 977 02c1 05       		.byte	0x5
 978 02c2 F806     		.2byte	0x6f8
 979 02c4 50050000 		.4byte	0x550
 980 02c8 78       		.byte	0x78
 981 02c9 09       		.uleb128 0x9
 982 02ca D4060000 		.4byte	.LASF50
 983 02ce 05       		.byte	0x5
 984 02cf F906     		.2byte	0x6f9
 985 02d1 C8000000 		.4byte	0xc8
 986 02d5 80       		.byte	0x80
 987 02d6 09       		.uleb128 0x9
 988 02d7 30070000 		.4byte	.LASF51
 989 02db 05       		.byte	0x5
 990 02dc FA06     		.2byte	0x6fa
 991 02de C8000000 		.4byte	0xc8
 992 02e2 84       		.byte	0x84
 993 02e3 09       		.uleb128 0x9
 994 02e4 00000000 		.4byte	.LASF52
 995 02e8 05       		.byte	0x5
 996 02e9 FB06     		.2byte	0x6fb
 997 02eb B8000000 		.4byte	0xb8
 998 02ef 88       		.byte	0x88
 999 02f0 09       		.uleb128 0x9
 1000 02f1 32010000 		.4byte	.LASF53
 1001 02f5 05       		.byte	0x5
 1002 02f6 FC06     		.2byte	0x6fc
 1003 02f8 D3000000 		.4byte	0xd3
 1004 02fc 8C       		.byte	0x8c
 1005 02fd 09       		.uleb128 0x9
 1006 02fe 9A010000 		.4byte	.LASF54
 1007 0302 05       		.byte	0x5
 1008 0303 FD06     		.2byte	0x6fd
 1009 0305 C8000000 		.4byte	0xc8
 1010 0309 90       		.byte	0x90
 1011 030a 09       		.uleb128 0x9
 1012 030b 64020000 		.4byte	.LASF55
 1013 030f 05       		.byte	0x5
 1014 0310 FE06     		.2byte	0x6fe
 1015 0312 C8000000 		.4byte	0xc8
 1016 0316 94       		.byte	0x94
 1017 0317 09       		.uleb128 0x9
 1018 0318 E5070000 		.4byte	.LASF56
 1019 031c 05       		.byte	0x5
 1020 031d FF06     		.2byte	0x6ff
 1021 031f B8000000 		.4byte	0xb8
ARM GAS  /tmp/ccscnHdD.s 			page 19


 1022 0323 98       		.byte	0x98
 1023 0324 09       		.uleb128 0x9
 1024 0325 75090000 		.4byte	.LASF57
 1025 0329 05       		.byte	0x5
 1026 032a 0007     		.2byte	0x700
 1027 032c 55050000 		.4byte	0x555
 1028 0330 9C       		.byte	0x9c
 1029 0331 09       		.uleb128 0x9
 1030 0332 E7010000 		.4byte	.LASF58
 1031 0336 05       		.byte	0x5
 1032 0337 0107     		.2byte	0x701
 1033 0339 C8000000 		.4byte	0xc8
 1034 033d A0       		.byte	0xa0
 1035 033e 09       		.uleb128 0x9
 1036 033f 5C010000 		.4byte	.LASF59
 1037 0343 05       		.byte	0x5
 1038 0344 0207     		.2byte	0x702
 1039 0346 C8000000 		.4byte	0xc8
 1040 034a A4       		.byte	0xa4
 1041 034b 09       		.uleb128 0x9
 1042 034c CC070000 		.4byte	.LASF60
 1043 0350 05       		.byte	0x5
 1044 0351 0307     		.2byte	0x703
 1045 0353 B8000000 		.4byte	0xb8
 1046 0357 A8       		.byte	0xa8
 1047 0358 09       		.uleb128 0x9
 1048 0359 7F090000 		.4byte	.LASF61
 1049 035d 05       		.byte	0x5
 1050 035e 0407     		.2byte	0x704
 1051 0360 5A050000 		.4byte	0x55a
 1052 0364 AC       		.byte	0xac
 1053 0365 09       		.uleb128 0x9
 1054 0366 93090000 		.4byte	.LASF62
 1055 036a 05       		.byte	0x5
 1056 036b 0507     		.2byte	0x705
 1057 036d C8000000 		.4byte	0xc8
 1058 0371 B0       		.byte	0xb0
 1059 0372 09       		.uleb128 0x9
 1060 0373 E9080000 		.4byte	.LASF63
 1061 0377 05       		.byte	0x5
 1062 0378 0607     		.2byte	0x706
 1063 037a C8000000 		.4byte	0xc8
 1064 037e B4       		.byte	0xb4
 1065 037f 09       		.uleb128 0x9
 1066 0380 86000000 		.4byte	.LASF64
 1067 0384 05       		.byte	0x5
 1068 0385 0707     		.2byte	0x707
 1069 0387 B8000000 		.4byte	0xb8
 1070 038b B8       		.byte	0xb8
 1071 038c 09       		.uleb128 0x9
 1072 038d 89090000 		.4byte	.LASF65
 1073 0391 05       		.byte	0x5
 1074 0392 0807     		.2byte	0x708
 1075 0394 5F050000 		.4byte	0x55f
 1076 0398 BC       		.byte	0xbc
 1077 0399 09       		.uleb128 0x9
 1078 039a 6E020000 		.4byte	.LASF66
ARM GAS  /tmp/ccscnHdD.s 			page 20


 1079 039e 05       		.byte	0x5
 1080 039f 0907     		.2byte	0x709
 1081 03a1 C8000000 		.4byte	0xc8
 1082 03a5 C0       		.byte	0xc0
 1083 03a6 09       		.uleb128 0x9
 1084 03a7 A4070000 		.4byte	.LASF67
 1085 03ab 05       		.byte	0x5
 1086 03ac 0A07     		.2byte	0x70a
 1087 03ae C8000000 		.4byte	0xc8
 1088 03b2 C4       		.byte	0xc4
 1089 03b3 09       		.uleb128 0x9
 1090 03b4 B6040000 		.4byte	.LASF68
 1091 03b8 05       		.byte	0x5
 1092 03b9 0B07     		.2byte	0x70b
 1093 03bb B8000000 		.4byte	0xb8
 1094 03bf C8       		.byte	0xc8
 1095 03c0 09       		.uleb128 0x9
 1096 03c1 AE030000 		.4byte	.LASF69
 1097 03c5 05       		.byte	0x5
 1098 03c6 0C07     		.2byte	0x70c
 1099 03c8 64050000 		.4byte	0x564
 1100 03cc CC       		.byte	0xcc
 1101 03cd 09       		.uleb128 0x9
 1102 03ce 30040000 		.4byte	.LASF70
 1103 03d2 05       		.byte	0x5
 1104 03d3 0D07     		.2byte	0x70d
 1105 03d5 C8000000 		.4byte	0xc8
 1106 03d9 D0       		.byte	0xd0
 1107 03da 09       		.uleb128 0x9
 1108 03db 180B0000 		.4byte	.LASF71
 1109 03df 05       		.byte	0x5
 1110 03e0 0E07     		.2byte	0x70e
 1111 03e2 C8000000 		.4byte	0xc8
 1112 03e6 D4       		.byte	0xd4
 1113 03e7 09       		.uleb128 0x9
 1114 03e8 1A090000 		.4byte	.LASF72
 1115 03ec 05       		.byte	0x5
 1116 03ed 0F07     		.2byte	0x70f
 1117 03ef B8000000 		.4byte	0xb8
 1118 03f3 D8       		.byte	0xd8
 1119 03f4 09       		.uleb128 0x9
 1120 03f5 B9030000 		.4byte	.LASF73
 1121 03f9 05       		.byte	0x5
 1122 03fa 1007     		.2byte	0x710
 1123 03fc 69050000 		.4byte	0x569
 1124 0400 DC       		.byte	0xdc
 1125 0401 09       		.uleb128 0x9
 1126 0402 19040000 		.4byte	.LASF74
 1127 0406 05       		.byte	0x5
 1128 0407 1107     		.2byte	0x711
 1129 0409 B8000000 		.4byte	0xb8
 1130 040d E0       		.byte	0xe0
 1131 040e 09       		.uleb128 0x9
 1132 040f A9000000 		.4byte	.LASF75
 1133 0413 05       		.byte	0x5
 1134 0414 1207     		.2byte	0x712
 1135 0416 D3000000 		.4byte	0xd3
ARM GAS  /tmp/ccscnHdD.s 			page 21


 1136 041a E4       		.byte	0xe4
 1137 041b 09       		.uleb128 0x9
 1138 041c 77030000 		.4byte	.LASF76
 1139 0420 05       		.byte	0x5
 1140 0421 1307     		.2byte	0x713
 1141 0423 B8000000 		.4byte	0xb8
 1142 0427 E8       		.byte	0xe8
 1143 0428 09       		.uleb128 0x9
 1144 0429 C4030000 		.4byte	.LASF77
 1145 042d 05       		.byte	0x5
 1146 042e 1407     		.2byte	0x714
 1147 0430 6E050000 		.4byte	0x56e
 1148 0434 EC       		.byte	0xec
 1149 0435 0A       		.uleb128 0xa
 1150 0436 040A0000 		.4byte	.LASF78
 1151 043a 05       		.byte	0x5
 1152 043b 1507     		.2byte	0x715
 1153 043d D3000000 		.4byte	0xd3
 1154 0441 0001     		.2byte	0x100
 1155 0443 0A       		.uleb128 0xa
 1156 0444 CF030000 		.4byte	.LASF79
 1157 0448 05       		.byte	0x5
 1158 0449 1607     		.2byte	0x716
 1159 044b 73050000 		.4byte	0x573
 1160 044f 0401     		.2byte	0x104
 1161 0451 0A       		.uleb128 0xa
 1162 0452 BA0A0000 		.4byte	.LASF80
 1163 0456 05       		.byte	0x5
 1164 0457 1707     		.2byte	0x717
 1165 0459 D3000000 		.4byte	0xd3
 1166 045d 5001     		.2byte	0x150
 1167 045f 0A       		.uleb128 0xa
 1168 0460 C2070000 		.4byte	.LASF81
 1169 0464 05       		.byte	0x5
 1170 0465 1807     		.2byte	0x718
 1171 0467 C8000000 		.4byte	0xc8
 1172 046b 5401     		.2byte	0x154
 1173 046d 0A       		.uleb128 0xa
 1174 046e 9A070000 		.4byte	.LASF82
 1175 0472 05       		.byte	0x5
 1176 0473 1907     		.2byte	0x719
 1177 0475 C8000000 		.4byte	0xc8
 1178 0479 5801     		.2byte	0x158
 1179 047b 0A       		.uleb128 0xa
 1180 047c 890A0000 		.4byte	.LASF83
 1181 0480 05       		.byte	0x5
 1182 0481 1A07     		.2byte	0x71a
 1183 0483 B8000000 		.4byte	0xb8
 1184 0487 5C01     		.2byte	0x15c
 1185 0489 0A       		.uleb128 0xa
 1186 048a D4000000 		.4byte	.LASF84
 1187 048e 05       		.byte	0x5
 1188 048f 1B07     		.2byte	0x71b
 1189 0491 B8000000 		.4byte	0xb8
 1190 0495 6001     		.2byte	0x160
 1191 0497 0A       		.uleb128 0xa
 1192 0498 08070000 		.4byte	.LASF85
ARM GAS  /tmp/ccscnHdD.s 			page 22


 1193 049c 05       		.byte	0x5
 1194 049d 1C07     		.2byte	0x71c
 1195 049f B8000000 		.4byte	0xb8
 1196 04a3 6401     		.2byte	0x164
 1197 04a5 0A       		.uleb128 0xa
 1198 04a6 93080000 		.4byte	.LASF86
 1199 04aa 05       		.byte	0x5
 1200 04ab 1D07     		.2byte	0x71d
 1201 04ad D3000000 		.4byte	0xd3
 1202 04b1 6801     		.2byte	0x168
 1203 04b3 0A       		.uleb128 0xa
 1204 04b4 A6030000 		.4byte	.LASF87
 1205 04b8 05       		.byte	0x5
 1206 04b9 1E07     		.2byte	0x71e
 1207 04bb D3000000 		.4byte	0xd3
 1208 04bf 6C01     		.2byte	0x16c
 1209 04c1 0A       		.uleb128 0xa
 1210 04c2 13010000 		.4byte	.LASF88
 1211 04c6 05       		.byte	0x5
 1212 04c7 1F07     		.2byte	0x71f
 1213 04c9 D3000000 		.4byte	0xd3
 1214 04cd 7001     		.2byte	0x170
 1215 04cf 0A       		.uleb128 0xa
 1216 04d0 4D080000 		.4byte	.LASF89
 1217 04d4 05       		.byte	0x5
 1218 04d5 2007     		.2byte	0x720
 1219 04d7 D3000000 		.4byte	0xd3
 1220 04db 7401     		.2byte	0x174
 1221 04dd 0A       		.uleb128 0xa
 1222 04de D5020000 		.4byte	.LASF90
 1223 04e2 05       		.byte	0x5
 1224 04e3 2107     		.2byte	0x721
 1225 04e5 D3000000 		.4byte	0xd3
 1226 04e9 7801     		.2byte	0x178
 1227 04eb 0A       		.uleb128 0xa
 1228 04ec D3090000 		.4byte	.LASF91
 1229 04f0 05       		.byte	0x5
 1230 04f1 2207     		.2byte	0x722
 1231 04f3 D3000000 		.4byte	0xd3
 1232 04f7 7C01     		.2byte	0x17c
 1233 04f9 0A       		.uleb128 0xa
 1234 04fa 0E030000 		.4byte	.LASF92
 1235 04fe 05       		.byte	0x5
 1236 04ff 2307     		.2byte	0x723
 1237 0501 D3000000 		.4byte	0xd3
 1238 0505 8001     		.2byte	0x180
 1239 0507 0A       		.uleb128 0xa
 1240 0508 FB090000 		.4byte	.LASF93
 1241 050c 05       		.byte	0x5
 1242 050d 2407     		.2byte	0x724
 1243 050f D3000000 		.4byte	0xd3
 1244 0513 8401     		.2byte	0x184
 1245 0515 0A       		.uleb128 0xa
 1246 0516 0D0C0000 		.4byte	.LASF94
 1247 051a 05       		.byte	0x5
 1248 051b 2507     		.2byte	0x725
 1249 051d C8000000 		.4byte	0xc8
ARM GAS  /tmp/ccscnHdD.s 			page 23


 1250 0521 8801     		.2byte	0x188
 1251 0523 0A       		.uleb128 0xa
 1252 0524 F2060000 		.4byte	.LASF95
 1253 0528 05       		.byte	0x5
 1254 0529 2607     		.2byte	0x726
 1255 052b B8000000 		.4byte	0xb8
 1256 052f 8C01     		.2byte	0x18c
 1257 0531 00       		.byte	0
 1258 0532 05       		.uleb128 0x5
 1259 0533 F5000000 		.4byte	0xf5
 1260 0537 05       		.uleb128 0x5
 1261 0538 F5000000 		.4byte	0xf5
 1262 053c 05       		.uleb128 0x5
 1263 053d F5000000 		.4byte	0xf5
 1264 0541 05       		.uleb128 0x5
 1265 0542 F5000000 		.4byte	0xf5
 1266 0546 05       		.uleb128 0x5
 1267 0547 F5000000 		.4byte	0xf5
 1268 054b 05       		.uleb128 0x5
 1269 054c 05010000 		.4byte	0x105
 1270 0550 05       		.uleb128 0x5
 1271 0551 05010000 		.4byte	0x105
 1272 0555 05       		.uleb128 0x5
 1273 0556 F5000000 		.4byte	0xf5
 1274 055a 05       		.uleb128 0x5
 1275 055b F5000000 		.4byte	0xf5
 1276 055f 05       		.uleb128 0x5
 1277 0560 F5000000 		.4byte	0xf5
 1278 0564 05       		.uleb128 0x5
 1279 0565 F5000000 		.4byte	0xf5
 1280 0569 05       		.uleb128 0x5
 1281 056a F5000000 		.4byte	0xf5
 1282 056e 05       		.uleb128 0x5
 1283 056f 15010000 		.4byte	0x115
 1284 0573 05       		.uleb128 0x5
 1285 0574 E5000000 		.4byte	0xe5
 1286 0578 0B       		.uleb128 0xb
 1287 0579 50696F00 		.ascii	"Pio\000"
 1288 057d 05       		.byte	0x5
 1289 057e 2707     		.2byte	0x727
 1290 0580 35010000 		.4byte	0x135
 1291 0584 08       		.uleb128 0x8
 1292 0585 1401     		.2byte	0x114
 1293 0587 05       		.byte	0x5
 1294 0588 3F0D     		.2byte	0xd3f
 1295 058a 7F070000 		.4byte	.LASF97
 1296 058e 52070000 		.4byte	0x752
 1297 0592 09       		.uleb128 0x9
 1298 0593 CA0B0000 		.4byte	.LASF98
 1299 0597 05       		.byte	0x5
 1300 0598 400D     		.2byte	0xd40
 1301 059a C8000000 		.4byte	0xc8
 1302 059e 00       		.byte	0
 1303 059f 09       		.uleb128 0x9
 1304 05a0 690B0000 		.4byte	.LASF99
 1305 05a4 05       		.byte	0x5
 1306 05a5 410D     		.2byte	0xd41
ARM GAS  /tmp/ccscnHdD.s 			page 24


 1307 05a7 C8000000 		.4byte	0xc8
 1308 05ab 04       		.byte	0x4
 1309 05ac 09       		.uleb128 0x9
 1310 05ad 2D060000 		.4byte	.LASF100
 1311 05b1 05       		.byte	0x5
 1312 05b2 420D     		.2byte	0xd42
 1313 05b4 B8000000 		.4byte	0xb8
 1314 05b8 08       		.byte	0x8
 1315 05b9 09       		.uleb128 0x9
 1316 05ba 39090000 		.4byte	.LASF23
 1317 05be 05       		.byte	0x5
 1318 05bf 430D     		.2byte	0xd43
 1319 05c1 52070000 		.4byte	0x752
 1320 05c5 0C       		.byte	0xc
 1321 05c6 09       		.uleb128 0x9
 1322 05c7 1D020000 		.4byte	.LASF101
 1323 05cb 05       		.byte	0x5
 1324 05cc 440D     		.2byte	0xd44
 1325 05ce C8000000 		.4byte	0xc8
 1326 05d2 10       		.byte	0x10
 1327 05d3 09       		.uleb128 0x9
 1328 05d4 960B0000 		.4byte	.LASF102
 1329 05d8 05       		.byte	0x5
 1330 05d9 450D     		.2byte	0xd45
 1331 05db C8000000 		.4byte	0xc8
 1332 05df 14       		.byte	0x14
 1333 05e0 09       		.uleb128 0x9
 1334 05e1 BA060000 		.4byte	.LASF103
 1335 05e5 05       		.byte	0x5
 1336 05e6 460D     		.2byte	0xd46
 1337 05e8 B8000000 		.4byte	0xb8
 1338 05ec 18       		.byte	0x18
 1339 05ed 09       		.uleb128 0x9
 1340 05ee 43090000 		.4byte	.LASF27
 1341 05f2 05       		.byte	0x5
 1342 05f3 470D     		.2byte	0xd47
 1343 05f5 57070000 		.4byte	0x757
 1344 05f9 1C       		.byte	0x1c
 1345 05fa 09       		.uleb128 0x9
 1346 05fb 76020000 		.4byte	.LASF104
 1347 05ff 05       		.byte	0x5
 1348 0600 480D     		.2byte	0xd48
 1349 0602 D3000000 		.4byte	0xd3
 1350 0606 20       		.byte	0x20
 1351 0607 09       		.uleb128 0x9
 1352 0608 09010000 		.4byte	.LASF105
 1353 060c 05       		.byte	0x5
 1354 060d 490D     		.2byte	0xd49
 1355 060f B8000000 		.4byte	0xb8
 1356 0613 24       		.byte	0x24
 1357 0614 09       		.uleb128 0x9
 1358 0615 F00B0000 		.4byte	.LASF106
 1359 0619 05       		.byte	0x5
 1360 061a 4A0D     		.2byte	0xd4a
 1361 061c D3000000 		.4byte	0xd3
 1362 0620 28       		.byte	0x28
 1363 0621 09       		.uleb128 0x9
ARM GAS  /tmp/ccscnHdD.s 			page 25


 1364 0622 61000000 		.4byte	.LASF107
 1365 0626 05       		.byte	0x5
 1366 0627 4B0D     		.2byte	0xd4b
 1367 0629 D3000000 		.4byte	0xd3
 1368 062d 2C       		.byte	0x2c
 1369 062e 09       		.uleb128 0x9
 1370 062f D7010000 		.4byte	.LASF108
 1371 0633 05       		.byte	0x5
 1372 0634 4C0D     		.2byte	0xd4c
 1373 0636 D3000000 		.4byte	0xd3
 1374 063a 30       		.byte	0x30
 1375 063b 09       		.uleb128 0x9
 1376 063c 4D090000 		.4byte	.LASF31
 1377 0640 05       		.byte	0x5
 1378 0641 4D0D     		.2byte	0xd4d
 1379 0643 5C070000 		.4byte	0x75c
 1380 0647 34       		.byte	0x34
 1381 0648 09       		.uleb128 0x9
 1382 0649 13000000 		.4byte	.LASF109
 1383 064d 05       		.byte	0x5
 1384 064e 4E0D     		.2byte	0xd4e
 1385 0650 D3000000 		.4byte	0xd3
 1386 0654 38       		.byte	0x38
 1387 0655 09       		.uleb128 0x9
 1388 0656 57090000 		.4byte	.LASF43
 1389 065a 05       		.byte	0x5
 1390 065b 4F0D     		.2byte	0xd4f
 1391 065d 61070000 		.4byte	0x761
 1392 0661 3C       		.byte	0x3c
 1393 0662 09       		.uleb128 0x9
 1394 0663 DF060000 		.4byte	.LASF110
 1395 0667 05       		.byte	0x5
 1396 0668 500D     		.2byte	0xd50
 1397 066a 76070000 		.4byte	0x776
 1398 066e 40       		.byte	0x40
 1399 066f 09       		.uleb128 0x9
 1400 0670 61090000 		.4byte	.LASF47
 1401 0674 05       		.byte	0x5
 1402 0675 510D     		.2byte	0xd51
 1403 0677 7B070000 		.4byte	0x77b
 1404 067b 4C       		.byte	0x4c
 1405 067c 09       		.uleb128 0x9
 1406 067d 36020000 		.4byte	.LASF111
 1407 0681 05       		.byte	0x5
 1408 0682 520D     		.2byte	0xd52
 1409 0684 C8000000 		.4byte	0xc8
 1410 0688 60       		.byte	0x60
 1411 0689 09       		.uleb128 0x9
 1412 068a 89010000 		.4byte	.LASF112
 1413 068e 05       		.byte	0x5
 1414 068f 530D     		.2byte	0xd53
 1415 0691 C8000000 		.4byte	0xc8
 1416 0695 64       		.byte	0x64
 1417 0696 09       		.uleb128 0x9
 1418 0697 440A0000 		.4byte	.LASF113
 1419 069b 05       		.byte	0x5
 1420 069c 540D     		.2byte	0xd54
ARM GAS  /tmp/ccscnHdD.s 			page 26


 1421 069e B8000000 		.4byte	0xb8
 1422 06a2 68       		.byte	0x68
 1423 06a3 09       		.uleb128 0x9
 1424 06a4 10060000 		.4byte	.LASF114
 1425 06a8 05       		.byte	0x5
 1426 06a9 550D     		.2byte	0xd55
 1427 06ab B8000000 		.4byte	0xb8
 1428 06af 6C       		.byte	0x6c
 1429 06b0 09       		.uleb128 0x9
 1430 06b1 ED0A0000 		.4byte	.LASF115
 1431 06b5 05       		.byte	0x5
 1432 06b6 560D     		.2byte	0xd56
 1433 06b8 D3000000 		.4byte	0xd3
 1434 06bc 70       		.byte	0x70
 1435 06bd 09       		.uleb128 0x9
 1436 06be 1B000000 		.4byte	.LASF116
 1437 06c2 05       		.byte	0x5
 1438 06c3 570D     		.2byte	0xd57
 1439 06c5 D3000000 		.4byte	0xd3
 1440 06c9 74       		.byte	0x74
 1441 06ca 09       		.uleb128 0x9
 1442 06cb 64070000 		.4byte	.LASF117
 1443 06cf 05       		.byte	0x5
 1444 06d0 580D     		.2byte	0xd58
 1445 06d2 C8000000 		.4byte	0xc8
 1446 06d6 78       		.byte	0x78
 1447 06d7 09       		.uleb128 0x9
 1448 06d8 6B090000 		.4byte	.LASF49
 1449 06dc 05       		.byte	0x5
 1450 06dd 590D     		.2byte	0xd59
 1451 06df 90070000 		.4byte	0x790
 1452 06e3 7C       		.byte	0x7c
 1453 06e4 09       		.uleb128 0x9
 1454 06e5 B10A0000 		.4byte	.LASF118
 1455 06e9 05       		.byte	0x5
 1456 06ea 5A0D     		.2byte	0xd5a
 1457 06ec D3000000 		.4byte	0xd3
 1458 06f0 E4       		.byte	0xe4
 1459 06f1 09       		.uleb128 0x9
 1460 06f2 00010000 		.4byte	.LASF119
 1461 06f6 05       		.byte	0x5
 1462 06f7 5B0D     		.2byte	0xd5b
 1463 06f9 B8000000 		.4byte	0xb8
 1464 06fd E8       		.byte	0xe8
 1465 06fe 09       		.uleb128 0x9
 1466 06ff 75090000 		.4byte	.LASF57
 1467 0703 05       		.byte	0x5
 1468 0704 5C0D     		.2byte	0xd5c
 1469 0706 95070000 		.4byte	0x795
 1470 070a EC       		.byte	0xec
 1471 070b 0A       		.uleb128 0xa
 1472 070c 27020000 		.4byte	.LASF120
 1473 0710 05       		.byte	0x5
 1474 0711 5D0D     		.2byte	0xd5d
 1475 0713 C8000000 		.4byte	0xc8
 1476 0717 0001     		.2byte	0x100
 1477 0719 0A       		.uleb128 0xa
ARM GAS  /tmp/ccscnHdD.s 			page 27


 1478 071a A00B0000 		.4byte	.LASF121
 1479 071e 05       		.byte	0x5
 1480 071f 5E0D     		.2byte	0xd5e
 1481 0721 C8000000 		.4byte	0xc8
 1482 0725 0401     		.2byte	0x104
 1483 0727 0A       		.uleb128 0xa
 1484 0728 D30B0000 		.4byte	.LASF122
 1485 072c 05       		.byte	0x5
 1486 072d 5F0D     		.2byte	0xd5f
 1487 072f B8000000 		.4byte	0xb8
 1488 0733 0801     		.2byte	0x108
 1489 0735 0A       		.uleb128 0xa
 1490 0736 7F090000 		.4byte	.LASF61
 1491 073a 05       		.byte	0x5
 1492 073b 600D     		.2byte	0xd60
 1493 073d 9A070000 		.4byte	0x79a
 1494 0741 0C01     		.2byte	0x10c
 1495 0743 0A       		.uleb128 0xa
 1496 0744 3B040000 		.4byte	.LASF123
 1497 0748 05       		.byte	0x5
 1498 0749 610D     		.2byte	0xd61
 1499 074b D3000000 		.4byte	0xd3
 1500 074f 1001     		.2byte	0x110
 1501 0751 00       		.byte	0
 1502 0752 05       		.uleb128 0x5
 1503 0753 F5000000 		.4byte	0xf5
 1504 0757 05       		.uleb128 0x5
 1505 0758 F5000000 		.4byte	0xf5
 1506 075c 05       		.uleb128 0x5
 1507 075d F5000000 		.4byte	0xf5
 1508 0761 05       		.uleb128 0x5
 1509 0762 F5000000 		.4byte	0xf5
 1510 0766 06       		.uleb128 0x6
 1511 0767 69000000 		.4byte	0x69
 1512 076b 76070000 		.4byte	0x776
 1513 076f 07       		.uleb128 0x7
 1514 0770 DE000000 		.4byte	0xde
 1515 0774 02       		.byte	0x2
 1516 0775 00       		.byte	0
 1517 0776 05       		.uleb128 0x5
 1518 0777 66070000 		.4byte	0x766
 1519 077b 05       		.uleb128 0x5
 1520 077c 15010000 		.4byte	0x115
 1521 0780 06       		.uleb128 0x6
 1522 0781 69000000 		.4byte	0x69
 1523 0785 90070000 		.4byte	0x790
 1524 0789 07       		.uleb128 0x7
 1525 078a DE000000 		.4byte	0xde
 1526 078e 19       		.byte	0x19
 1527 078f 00       		.byte	0
 1528 0790 05       		.uleb128 0x5
 1529 0791 80070000 		.4byte	0x780
 1530 0795 05       		.uleb128 0x5
 1531 0796 15010000 		.4byte	0x115
 1532 079a 05       		.uleb128 0x5
 1533 079b F5000000 		.4byte	0xf5
 1534 079f 0B       		.uleb128 0xb
ARM GAS  /tmp/ccscnHdD.s 			page 28


 1535 07a0 506D6300 		.ascii	"Pmc\000"
 1536 07a4 05       		.byte	0x5
 1537 07a5 620D     		.2byte	0xd62
 1538 07a7 84050000 		.4byte	0x584
 1539 07ab 08       		.uleb128 0x8
 1540 07ac 2801     		.2byte	0x128
 1541 07ae 05       		.byte	0x5
 1542 07af 5116     		.2byte	0x1651
 1543 07b1 B2080000 		.4byte	.LASF124
 1544 07b5 EF080000 		.4byte	0x8ef
 1545 07b9 09       		.uleb128 0x9
 1546 07ba 93070000 		.4byte	.LASF125
 1547 07be 05       		.byte	0x5
 1548 07bf 5216     		.2byte	0x1652
 1549 07c1 C8000000 		.4byte	0xc8
 1550 07c5 00       		.byte	0
 1551 07c6 09       		.uleb128 0x9
 1552 07c7 02080000 		.4byte	.LASF126
 1553 07cb 05       		.byte	0x5
 1554 07cc 5316     		.2byte	0x1653
 1555 07ce D3000000 		.4byte	0xd3
 1556 07d2 04       		.byte	0x4
 1557 07d3 09       		.uleb128 0x9
 1558 07d4 5C0A0000 		.4byte	.LASF127
 1559 07d8 05       		.byte	0x5
 1560 07d9 5416     		.2byte	0x1654
 1561 07db D3000000 		.4byte	0xd3
 1562 07df 08       		.byte	0x8
 1563 07e0 09       		.uleb128 0x9
 1564 07e1 B8020000 		.4byte	.LASF128
 1565 07e5 05       		.byte	0x5
 1566 07e6 5516     		.2byte	0x1655
 1567 07e8 D3000000 		.4byte	0xd3
 1568 07ec 0C       		.byte	0xc
 1569 07ed 09       		.uleb128 0x9
 1570 07ee B7080000 		.4byte	.LASF129
 1571 07f2 05       		.byte	0x5
 1572 07f3 5616     		.2byte	0x1656
 1573 07f5 D3000000 		.4byte	0xd3
 1574 07f9 10       		.byte	0x10
 1575 07fa 09       		.uleb128 0x9
 1576 07fb 39090000 		.4byte	.LASF23
 1577 07ff 05       		.byte	0x5
 1578 0800 5716     		.2byte	0x1657
 1579 0802 EF080000 		.4byte	0x8ef
 1580 0806 14       		.byte	0x14
 1581 0807 09       		.uleb128 0x9
 1582 0808 1B010000 		.4byte	.LASF130
 1583 080c 05       		.byte	0x5
 1584 080d 5816     		.2byte	0x1658
 1585 080f B8000000 		.4byte	0xb8
 1586 0813 20       		.byte	0x20
 1587 0814 09       		.uleb128 0x9
 1588 0815 84070000 		.4byte	.LASF131
 1589 0819 05       		.byte	0x5
 1590 081a 5916     		.2byte	0x1659
 1591 081c C8000000 		.4byte	0xc8
ARM GAS  /tmp/ccscnHdD.s 			page 29


 1592 0820 24       		.byte	0x24
 1593 0821 09       		.uleb128 0x9
 1594 0822 4E010000 		.4byte	.LASF132
 1595 0826 05       		.byte	0x5
 1596 0827 5A16     		.2byte	0x165a
 1597 0829 C8000000 		.4byte	0xc8
 1598 082d 28       		.byte	0x28
 1599 082e 09       		.uleb128 0x9
 1600 082f 3C0A0000 		.4byte	.LASF133
 1601 0833 05       		.byte	0x5
 1602 0834 5B16     		.2byte	0x165b
 1603 0836 B8000000 		.4byte	0xb8
 1604 083a 2C       		.byte	0x2c
 1605 083b 09       		.uleb128 0x9
 1606 083c 80060000 		.4byte	.LASF134
 1607 0840 05       		.byte	0x5
 1608 0841 5C16     		.2byte	0x165c
 1609 0843 B8000000 		.4byte	0xb8
 1610 0847 30       		.byte	0x30
 1611 0848 09       		.uleb128 0x9
 1612 0849 9B0A0000 		.4byte	.LASF135
 1613 084d 05       		.byte	0x5
 1614 084e 5D16     		.2byte	0x165d
 1615 0850 C8000000 		.4byte	0xc8
 1616 0854 34       		.byte	0x34
 1617 0855 09       		.uleb128 0x9
 1618 0856 43090000 		.4byte	.LASF27
 1619 085a 05       		.byte	0x5
 1620 085b 5E16     		.2byte	0x165e
 1621 085d 04090000 		.4byte	0x904
 1622 0861 38       		.byte	0x38
 1623 0862 0A       		.uleb128 0xa
 1624 0863 E1080000 		.4byte	.LASF136
 1625 0867 05       		.byte	0x5
 1626 0868 5F16     		.2byte	0x165f
 1627 086a D3000000 		.4byte	0xd3
 1628 086e 0001     		.2byte	0x100
 1629 0870 0A       		.uleb128 0xa
 1630 0871 43040000 		.4byte	.LASF137
 1631 0875 05       		.byte	0x5
 1632 0876 6016     		.2byte	0x1660
 1633 0878 D3000000 		.4byte	0xd3
 1634 087c 0401     		.2byte	0x104
 1635 087e 0A       		.uleb128 0xa
 1636 087f B5010000 		.4byte	.LASF138
 1637 0883 05       		.byte	0x5
 1638 0884 6116     		.2byte	0x1661
 1639 0886 D3000000 		.4byte	0xd3
 1640 088a 0801     		.2byte	0x108
 1641 088c 0A       		.uleb128 0xa
 1642 088d C0080000 		.4byte	.LASF139
 1643 0891 05       		.byte	0x5
 1644 0892 6216     		.2byte	0x1662
 1645 0894 D3000000 		.4byte	0xd3
 1646 0898 0C01     		.2byte	0x10c
 1647 089a 0A       		.uleb128 0xa
 1648 089b 11090000 		.4byte	.LASF140
ARM GAS  /tmp/ccscnHdD.s 			page 30


 1649 089f 05       		.byte	0x5
 1650 08a0 6316     		.2byte	0x1663
 1651 08a2 D3000000 		.4byte	0xd3
 1652 08a6 1001     		.2byte	0x110
 1653 08a8 0A       		.uleb128 0xa
 1654 08a9 98040000 		.4byte	.LASF141
 1655 08ad 05       		.byte	0x5
 1656 08ae 6416     		.2byte	0x1664
 1657 08b0 D3000000 		.4byte	0xd3
 1658 08b4 1401     		.2byte	0x114
 1659 08b6 0A       		.uleb128 0xa
 1660 08b7 B0090000 		.4byte	.LASF142
 1661 08bb 05       		.byte	0x5
 1662 08bc 6516     		.2byte	0x1665
 1663 08be D3000000 		.4byte	0xd3
 1664 08c2 1801     		.2byte	0x118
 1665 08c4 0A       		.uleb128 0xa
 1666 08c5 BF040000 		.4byte	.LASF143
 1667 08c9 05       		.byte	0x5
 1668 08ca 6616     		.2byte	0x1666
 1669 08cc D3000000 		.4byte	0xd3
 1670 08d0 1C01     		.2byte	0x11c
 1671 08d2 0A       		.uleb128 0xa
 1672 08d3 3B070000 		.4byte	.LASF144
 1673 08d7 05       		.byte	0x5
 1674 08d8 6716     		.2byte	0x1667
 1675 08da C8000000 		.4byte	0xc8
 1676 08de 2001     		.2byte	0x120
 1677 08e0 0A       		.uleb128 0xa
 1678 08e1 C3000000 		.4byte	.LASF145
 1679 08e5 05       		.byte	0x5
 1680 08e6 6816     		.2byte	0x1668
 1681 08e8 B8000000 		.4byte	0xb8
 1682 08ec 2401     		.2byte	0x124
 1683 08ee 00       		.byte	0
 1684 08ef 05       		.uleb128 0x5
 1685 08f0 66070000 		.4byte	0x766
 1686 08f4 06       		.uleb128 0x6
 1687 08f5 69000000 		.4byte	0x69
 1688 08f9 04090000 		.4byte	0x904
 1689 08fd 07       		.uleb128 0x7
 1690 08fe DE000000 		.4byte	0xde
 1691 0902 31       		.byte	0x31
 1692 0903 00       		.byte	0
 1693 0904 05       		.uleb128 0x5
 1694 0905 F4080000 		.4byte	0x8f4
 1695 0909 0B       		.uleb128 0xb
 1696 090a 54776900 		.ascii	"Twi\000"
 1697 090e 05       		.byte	0x5
 1698 090f 6916     		.2byte	0x1669
 1699 0911 AB070000 		.4byte	0x7ab
 1700 0915 08       		.uleb128 0x8
 1701 0916 2801     		.2byte	0x128
 1702 0918 05       		.byte	0x5
 1703 0919 0817     		.2byte	0x1708
 1704 091b F3080000 		.4byte	.LASF146
 1705 091f 320A0000 		.4byte	0xa32
ARM GAS  /tmp/ccscnHdD.s 			page 31


 1706 0923 09       		.uleb128 0x9
 1707 0924 4E070000 		.4byte	.LASF147
 1708 0928 05       		.byte	0x5
 1709 0929 0917     		.2byte	0x1709
 1710 092b C8000000 		.4byte	0xc8
 1711 092f 00       		.byte	0
 1712 0930 09       		.uleb128 0x9
 1713 0931 7A0A0000 		.4byte	.LASF148
 1714 0935 05       		.byte	0x5
 1715 0936 0A17     		.2byte	0x170a
 1716 0938 D3000000 		.4byte	0xd3
 1717 093c 04       		.byte	0x4
 1718 093d 09       		.uleb128 0x9
 1719 093e F2000000 		.4byte	.LASF149
 1720 0942 05       		.byte	0x5
 1721 0943 0B17     		.2byte	0x170b
 1722 0945 C8000000 		.4byte	0xc8
 1723 0949 08       		.byte	0x8
 1724 094a 09       		.uleb128 0x9
 1725 094b 9A000000 		.4byte	.LASF150
 1726 094f 05       		.byte	0x5
 1727 0950 0C17     		.2byte	0x170c
 1728 0952 C8000000 		.4byte	0xc8
 1729 0956 0C       		.byte	0xc
 1730 0957 09       		.uleb128 0x9
 1731 0958 8A040000 		.4byte	.LASF151
 1732 095c 05       		.byte	0x5
 1733 095d 0D17     		.2byte	0x170d
 1734 095f B8000000 		.4byte	0xb8
 1735 0963 10       		.byte	0x10
 1736 0964 09       		.uleb128 0x9
 1737 0965 CC000000 		.4byte	.LASF152
 1738 0969 05       		.byte	0x5
 1739 096a 0E17     		.2byte	0x170e
 1740 096c B8000000 		.4byte	0xb8
 1741 0970 14       		.byte	0x14
 1742 0971 09       		.uleb128 0x9
 1743 0972 DD0B0000 		.4byte	.LASF153
 1744 0976 05       		.byte	0x5
 1745 0977 0F17     		.2byte	0x170f
 1746 0979 B8000000 		.4byte	0xb8
 1747 097d 18       		.byte	0x18
 1748 097e 09       		.uleb128 0x9
 1749 097f E2040000 		.4byte	.LASF154
 1750 0983 05       		.byte	0x5
 1751 0984 1017     		.2byte	0x1710
 1752 0986 C8000000 		.4byte	0xc8
 1753 098a 1C       		.byte	0x1c
 1754 098b 09       		.uleb128 0x9
 1755 098c 25090000 		.4byte	.LASF155
 1756 0990 05       		.byte	0x5
 1757 0991 1117     		.2byte	0x1711
 1758 0993 D3000000 		.4byte	0xd3
 1759 0997 20       		.byte	0x20
 1760 0998 09       		.uleb128 0x9
 1761 0999 39090000 		.4byte	.LASF23
 1762 099d 05       		.byte	0x5
ARM GAS  /tmp/ccscnHdD.s 			page 32


 1763 099e 1217     		.2byte	0x1712
 1764 09a0 420A0000 		.4byte	0xa42
 1765 09a4 24       		.byte	0x24
 1766 09a5 0A       		.uleb128 0xa
 1767 09a6 80030000 		.4byte	.LASF156
 1768 09aa 05       		.byte	0x5
 1769 09ab 1317     		.2byte	0x1713
 1770 09ad D3000000 		.4byte	0xd3
 1771 09b1 0001     		.2byte	0x100
 1772 09b3 0A       		.uleb128 0xa
 1773 09b4 200A0000 		.4byte	.LASF157
 1774 09b8 05       		.byte	0x5
 1775 09b9 1417     		.2byte	0x1714
 1776 09bb D3000000 		.4byte	0xd3
 1777 09bf 0401     		.2byte	0x104
 1778 09c1 0A       		.uleb128 0xa
 1779 09c2 2F080000 		.4byte	.LASF158
 1780 09c6 05       		.byte	0x5
 1781 09c7 1517     		.2byte	0x1715
 1782 09c9 D3000000 		.4byte	0xd3
 1783 09cd 0801     		.2byte	0x108
 1784 09cf 0A       		.uleb128 0xa
 1785 09d0 05030000 		.4byte	.LASF159
 1786 09d4 05       		.byte	0x5
 1787 09d5 1617     		.2byte	0x1716
 1788 09d7 D3000000 		.4byte	0xd3
 1789 09db 0C01     		.2byte	0x10c
 1790 09dd 0A       		.uleb128 0xa
 1791 09de 80040000 		.4byte	.LASF160
 1792 09e2 05       		.byte	0x5
 1793 09e3 1717     		.2byte	0x1717
 1794 09e5 D3000000 		.4byte	0xd3
 1795 09e9 1001     		.2byte	0x110
 1796 09eb 0A       		.uleb128 0xa
 1797 09ec D60A0000 		.4byte	.LASF161
 1798 09f0 05       		.byte	0x5
 1799 09f1 1817     		.2byte	0x1718
 1800 09f3 D3000000 		.4byte	0xd3
 1801 09f7 1401     		.2byte	0x114
 1802 09f9 0A       		.uleb128 0xa
 1803 09fa A1040000 		.4byte	.LASF162
 1804 09fe 05       		.byte	0x5
 1805 09ff 1917     		.2byte	0x1719
 1806 0a01 D3000000 		.4byte	0xd3
 1807 0a05 1801     		.2byte	0x118
 1808 0a07 0A       		.uleb128 0xa
 1809 0a08 0E0B0000 		.4byte	.LASF163
 1810 0a0c 05       		.byte	0x5
 1811 0a0d 1A17     		.2byte	0x171a
 1812 0a0f D3000000 		.4byte	0xd3
 1813 0a13 1C01     		.2byte	0x11c
 1814 0a15 0A       		.uleb128 0xa
 1815 0a16 22010000 		.4byte	.LASF164
 1816 0a1a 05       		.byte	0x5
 1817 0a1b 1B17     		.2byte	0x171b
 1818 0a1d C8000000 		.4byte	0xc8
 1819 0a21 2001     		.2byte	0x120
ARM GAS  /tmp/ccscnHdD.s 			page 33


 1820 0a23 0A       		.uleb128 0xa
 1821 0a24 D5070000 		.4byte	.LASF165
 1822 0a28 05       		.byte	0x5
 1823 0a29 1C17     		.2byte	0x171c
 1824 0a2b B8000000 		.4byte	0xb8
 1825 0a2f 2401     		.2byte	0x124
 1826 0a31 00       		.byte	0
 1827 0a32 06       		.uleb128 0x6
 1828 0a33 69000000 		.4byte	0x69
 1829 0a37 420A0000 		.4byte	0xa42
 1830 0a3b 07       		.uleb128 0x7
 1831 0a3c DE000000 		.4byte	0xde
 1832 0a40 36       		.byte	0x36
 1833 0a41 00       		.byte	0
 1834 0a42 05       		.uleb128 0x5
 1835 0a43 320A0000 		.4byte	0xa32
 1836 0a47 0C       		.uleb128 0xc
 1837 0a48 93040000 		.4byte	.LASF166
 1838 0a4c 05       		.byte	0x5
 1839 0a4d 1D17     		.2byte	0x171d
 1840 0a4f 15090000 		.4byte	0x915
 1841 0a53 05       		.uleb128 0x5
 1842 0a54 8C000000 		.4byte	0x8c
 1843 0a58 03       		.uleb128 0x3
 1844 0a59 24000000 		.4byte	.LASF167
 1845 0a5d 06       		.byte	0x6
 1846 0a5e D4       		.byte	0xd4
 1847 0a5f 85000000 		.4byte	0x85
 1848 0a63 03       		.uleb128 0x3
 1849 0a64 820A0000 		.4byte	.LASF168
 1850 0a68 07       		.byte	0x7
 1851 0a69 2E       		.byte	0x2e
 1852 0a6a 97000000 		.4byte	0x97
 1853 0a6e 03       		.uleb128 0x3
 1854 0a6f CC060000 		.4byte	.LASF169
 1855 0a73 07       		.byte	0x7
 1856 0a74 2F       		.byte	0x2f
 1857 0a75 8C000000 		.4byte	0x8c
 1858 0a79 03       		.uleb128 0x3
 1859 0a7a 14020000 		.4byte	.LASF170
 1860 0a7e 07       		.byte	0x7
 1861 0a7f 30       		.byte	0x30
 1862 0a80 8C000000 		.4byte	0x8c
 1863 0a84 03       		.uleb128 0x3
 1864 0a85 930A0000 		.4byte	.LASF171
 1865 0a89 07       		.byte	0x7
 1866 0a8a 31       		.byte	0x31
 1867 0a8b 8C000000 		.4byte	0x8c
 1868 0a8f 03       		.uleb128 0x3
 1869 0a90 59000000 		.4byte	.LASF172
 1870 0a94 07       		.byte	0x7
 1871 0a95 32       		.byte	0x32
 1872 0a96 A2000000 		.4byte	0xa2
 1873 0a9a 03       		.uleb128 0x3
 1874 0a9b A3080000 		.4byte	.LASF173
 1875 0a9f 07       		.byte	0x7
 1876 0aa0 33       		.byte	0x33
ARM GAS  /tmp/ccscnHdD.s 			page 34


 1877 0aa1 97000000 		.4byte	0x97
 1878 0aa5 03       		.uleb128 0x3
 1879 0aa6 C1020000 		.4byte	.LASF174
 1880 0aaa 07       		.byte	0x7
 1881 0aab 35       		.byte	0x35
 1882 0aac A2000000 		.4byte	0xa2
 1883 0ab0 03       		.uleb128 0x3
 1884 0ab1 42000000 		.4byte	.LASF175
 1885 0ab5 07       		.byte	0x7
 1886 0ab6 36       		.byte	0x36
 1887 0ab7 A2000000 		.4byte	0xa2
 1888 0abb 03       		.uleb128 0x3
 1889 0abc 640A0000 		.4byte	.LASF176
 1890 0ac0 08       		.byte	0x8
 1891 0ac1 2A       		.byte	0x2a
 1892 0ac2 C60A0000 		.4byte	0xac6
 1893 0ac6 0D       		.uleb128 0xd
 1894 0ac7 640A0000 		.4byte	.LASF176
 1895 0acb 48       		.byte	0x48
 1896 0acc 09       		.byte	0x9
 1897 0acd 5E       		.byte	0x5e
 1898 0ace EC0B0000 		.4byte	0xbec
 1899 0ad2 0E       		.uleb128 0xe
 1900 0ad3 04       		.byte	0x4
 1901 0ad4 09       		.byte	0x9
 1902 0ad5 90       		.byte	0x90
 1903 0ad6 070B0000 		.4byte	0xb07
 1904 0ada 0F       		.uleb128 0xf
 1905 0adb 230B0000 		.4byte	.LASF177
 1906 0adf 09       		.byte	0x9
 1907 0ae0 97       		.byte	0x97
 1908 0ae1 9A0A0000 		.4byte	0xa9a
 1909 0ae5 0F       		.uleb128 0xf
 1910 0ae6 3B010000 		.4byte	.LASF178
 1911 0aea 09       		.byte	0x9
 1912 0aeb 9E       		.byte	0x9e
 1913 0aec 9A0A0000 		.4byte	0xa9a
 1914 0af0 0F       		.uleb128 0xf
 1915 0af1 F7030000 		.4byte	.LASF179
 1916 0af5 09       		.byte	0x9
 1917 0af6 A5       		.byte	0xa5
 1918 0af7 510C0000 		.4byte	0xc51
 1919 0afb 0F       		.uleb128 0xf
 1920 0afc A9020000 		.4byte	.LASF180
 1921 0b00 09       		.byte	0x9
 1922 0b01 AC       		.byte	0xac
 1923 0b02 A50A0000 		.4byte	0xaa5
 1924 0b06 00       		.byte	0
 1925 0b07 10       		.uleb128 0x10
 1926 0b08 BD010000 		.4byte	.LASF181
 1927 0b0c 09       		.byte	0x9
 1928 0b0d 5F       		.byte	0x5f
 1929 0b0e A20D0000 		.4byte	0xda2
 1930 0b12 00       		.byte	0
 1931 0b13 10       		.uleb128 0x10
 1932 0b14 E0010000 		.4byte	.LASF182
 1933 0b18 09       		.byte	0x9
ARM GAS  /tmp/ccscnHdD.s 			page 35


 1934 0b19 61       		.byte	0x61
 1935 0b1a A20D0000 		.4byte	0xda2
 1936 0b1e 04       		.byte	0x4
 1937 0b1f 10       		.uleb128 0x10
 1938 0b20 DA030000 		.4byte	.LASF183
 1939 0b24 09       		.byte	0x9
 1940 0b25 63       		.byte	0x63
 1941 0b26 8F0A0000 		.4byte	0xa8f
 1942 0b2a 08       		.byte	0x8
 1943 0b2b 10       		.uleb128 0x10
 1944 0b2c 53000000 		.4byte	.LASF184
 1945 0b30 09       		.byte	0x9
 1946 0b31 64       		.byte	0x64
 1947 0b32 CE0C0000 		.4byte	0xcce
 1948 0b36 0C       		.byte	0xc
 1949 0b37 10       		.uleb128 0x10
 1950 0b38 A4010000 		.4byte	.LASF185
 1951 0b3c 09       		.byte	0x9
 1952 0b3d 66       		.byte	0x66
 1953 0b3e A20D0000 		.4byte	0xda2
 1954 0b42 10       		.byte	0x10
 1955 0b43 10       		.uleb128 0x10
 1956 0b44 81080000 		.4byte	.LASF186
 1957 0b48 09       		.byte	0x9
 1958 0b49 67       		.byte	0x67
 1959 0b4a A20D0000 		.4byte	0xda2
 1960 0b4e 14       		.byte	0x14
 1961 0b4f 10       		.uleb128 0x10
 1962 0b50 AF0B0000 		.4byte	.LASF187
 1963 0b54 09       		.byte	0x9
 1964 0b55 6E       		.byte	0x6e
 1965 0b56 A80D0000 		.4byte	0xda8
 1966 0b5a 18       		.byte	0x18
 1967 0b5b 10       		.uleb128 0x10
 1968 0b5c 160C0000 		.4byte	.LASF188
 1969 0b60 09       		.byte	0x9
 1970 0b61 79       		.byte	0x79
 1971 0b62 790A0000 		.4byte	0xa79
 1972 0b66 1C       		.byte	0x1c
 1973 0b67 10       		.uleb128 0x10
 1974 0b68 5C070000 		.4byte	.LASF189
 1975 0b6c 09       		.byte	0x9
 1976 0b6d 7D       		.byte	0x7d
 1977 0b6e 6E0A0000 		.4byte	0xa6e
 1978 0b72 1D       		.byte	0x1d
 1979 0b73 10       		.uleb128 0x10
 1980 0b74 8C070000 		.4byte	.LASF190
 1981 0b78 09       		.byte	0x9
 1982 0b79 82       		.byte	0x82
 1983 0b7a 840A0000 		.4byte	0xa84
 1984 0b7e 1E       		.byte	0x1e
 1985 0b7f 10       		.uleb128 0x10
 1986 0b80 4C000000 		.4byte	.LASF191
 1987 0b84 09       		.byte	0x9
 1988 0b85 89       		.byte	0x89
 1989 0b86 EF0C0000 		.4byte	0xcef
 1990 0b8a 20       		.byte	0x20
ARM GAS  /tmp/ccscnHdD.s 			page 36


 1991 0b8b 11       		.uleb128 0x11
 1992 0b8c 705F7500 		.ascii	"p_u\000"
 1993 0b90 09       		.byte	0x9
 1994 0b91 AE       		.byte	0xae
 1995 0b92 D20A0000 		.4byte	0xad2
 1996 0b96 24       		.byte	0x24
 1997 0b97 10       		.uleb128 0x10
 1998 0b98 17030000 		.4byte	.LASF192
 1999 0b9c 09       		.byte	0x9
 2000 0b9d B3       		.byte	0xb3
 2001 0b9e 3B0C0000 		.4byte	0xc3b
 2002 0ba2 28       		.byte	0x28
 2003 0ba3 10       		.uleb128 0x10
 2004 0ba4 6C000000 		.4byte	.LASF193
 2005 0ba8 09       		.byte	0x9
 2006 0ba9 B9       		.byte	0xb9
 2007 0baa 170C0000 		.4byte	0xc17
 2008 0bae 2C       		.byte	0x2c
 2009 0baf 10       		.uleb128 0x10
 2010 0bb0 FB0B0000 		.4byte	.LASF194
 2011 0bb4 09       		.byte	0x9
 2012 0bb5 BD       		.byte	0xbd
 2013 0bb6 9A0A0000 		.4byte	0xa9a
 2014 0bba 34       		.byte	0x34
 2015 0bbb 10       		.uleb128 0x10
 2016 0bbc CF040000 		.4byte	.LASF195
 2017 0bc0 09       		.byte	0x9
 2018 0bc1 C3       		.byte	0xc3
 2019 0bc2 A50A0000 		.4byte	0xaa5
 2020 0bc6 38       		.byte	0x38
 2021 0bc7 10       		.uleb128 0x10
 2022 0bc8 040B0000 		.4byte	.LASF196
 2023 0bcc 09       		.byte	0x9
 2024 0bcd CA       		.byte	0xca
 2025 0bce BA0D0000 		.4byte	0xdba
 2026 0bd2 3C       		.byte	0x3c
 2027 0bd3 10       		.uleb128 0x10
 2028 0bd4 16080000 		.4byte	.LASF197
 2029 0bd8 09       		.byte	0x9
 2030 0bd9 CE       		.byte	0xce
 2031 0bda 8F0A0000 		.4byte	0xa8f
 2032 0bde 40       		.byte	0x40
 2033 0bdf 10       		.uleb128 0x10
 2034 0be0 62080000 		.4byte	.LASF198
 2035 0be4 09       		.byte	0x9
 2036 0be5 D4       		.byte	0xd4
 2037 0be6 510C0000 		.4byte	0xc51
 2038 0bea 44       		.byte	0x44
 2039 0beb 00       		.byte	0
 2040 0bec 12       		.uleb128 0x12
 2041 0bed 08       		.byte	0x8
 2042 0bee 08       		.byte	0x8
 2043 0bef 61       		.byte	0x61
 2044 0bf0 89030000 		.4byte	.LASF200
 2045 0bf4 110C0000 		.4byte	0xc11
 2046 0bf8 10       		.uleb128 0x10
 2047 0bf9 BD010000 		.4byte	.LASF181
ARM GAS  /tmp/ccscnHdD.s 			page 37


 2048 0bfd 08       		.byte	0x8
 2049 0bfe 62       		.byte	0x62
 2050 0bff 110C0000 		.4byte	0xc11
 2051 0c03 00       		.byte	0
 2052 0c04 10       		.uleb128 0x10
 2053 0c05 E0010000 		.4byte	.LASF182
 2054 0c09 08       		.byte	0x8
 2055 0c0a 64       		.byte	0x64
 2056 0c0b 110C0000 		.4byte	0xc11
 2057 0c0f 04       		.byte	0x4
 2058 0c10 00       		.byte	0
 2059 0c11 13       		.uleb128 0x13
 2060 0c12 04       		.byte	0x4
 2061 0c13 BB0A0000 		.4byte	0xabb
 2062 0c17 03       		.uleb128 0x3
 2063 0c18 E00A0000 		.4byte	.LASF199
 2064 0c1c 08       		.byte	0x8
 2065 0c1d 66       		.byte	0x66
 2066 0c1e EC0B0000 		.4byte	0xbec
 2067 0c22 12       		.uleb128 0x12
 2068 0c23 04       		.byte	0x4
 2069 0c24 08       		.byte	0x8
 2070 0c25 6B       		.byte	0x6b
 2071 0c26 720B0000 		.4byte	.LASF201
 2072 0c2a 3B0C0000 		.4byte	0xc3b
 2073 0c2e 10       		.uleb128 0x10
 2074 0c2f BD010000 		.4byte	.LASF181
 2075 0c33 08       		.byte	0x8
 2076 0c34 6D       		.byte	0x6d
 2077 0c35 110C0000 		.4byte	0xc11
 2078 0c39 00       		.byte	0
 2079 0c3a 00       		.byte	0
 2080 0c3b 03       		.uleb128 0x3
 2081 0c3c AC070000 		.4byte	.LASF202
 2082 0c40 08       		.byte	0x8
 2083 0c41 70       		.byte	0x70
 2084 0c42 220C0000 		.4byte	0xc22
 2085 0c46 03       		.uleb128 0x3
 2086 0c47 45020000 		.4byte	.LASF203
 2087 0c4b 0A       		.byte	0xa
 2088 0c4c D7       		.byte	0xd7
 2089 0c4d 510C0000 		.4byte	0xc51
 2090 0c51 14       		.uleb128 0x14
 2091 0c52 04       		.byte	0x4
 2092 0c53 0D       		.uleb128 0xd
 2093 0c54 C8040000 		.4byte	.LASF204
 2094 0c58 24       		.byte	0x24
 2095 0c59 0A       		.byte	0xa
 2096 0c5a FE       		.byte	0xfe
 2097 0c5b CE0C0000 		.4byte	0xcce
 2098 0c5f 15       		.uleb128 0x15
 2099 0c60 723400   		.ascii	"r4\000"
 2100 0c63 0A       		.byte	0xa
 2101 0c64 1101     		.2byte	0x111
 2102 0c66 460C0000 		.4byte	0xc46
 2103 0c6a 00       		.byte	0
 2104 0c6b 15       		.uleb128 0x15
ARM GAS  /tmp/ccscnHdD.s 			page 38


 2105 0c6c 723500   		.ascii	"r5\000"
 2106 0c6f 0A       		.byte	0xa
 2107 0c70 1201     		.2byte	0x112
 2108 0c72 460C0000 		.4byte	0xc46
 2109 0c76 04       		.byte	0x4
 2110 0c77 15       		.uleb128 0x15
 2111 0c78 723600   		.ascii	"r6\000"
 2112 0c7b 0A       		.byte	0xa
 2113 0c7c 1301     		.2byte	0x113
 2114 0c7e 460C0000 		.4byte	0xc46
 2115 0c82 08       		.byte	0x8
 2116 0c83 15       		.uleb128 0x15
 2117 0c84 723700   		.ascii	"r7\000"
 2118 0c87 0A       		.byte	0xa
 2119 0c88 1401     		.2byte	0x114
 2120 0c8a 460C0000 		.4byte	0xc46
 2121 0c8e 0C       		.byte	0xc
 2122 0c8f 15       		.uleb128 0x15
 2123 0c90 723800   		.ascii	"r8\000"
 2124 0c93 0A       		.byte	0xa
 2125 0c94 1501     		.2byte	0x115
 2126 0c96 460C0000 		.4byte	0xc46
 2127 0c9a 10       		.byte	0x10
 2128 0c9b 15       		.uleb128 0x15
 2129 0c9c 723900   		.ascii	"r9\000"
 2130 0c9f 0A       		.byte	0xa
 2131 0ca0 1601     		.2byte	0x116
 2132 0ca2 460C0000 		.4byte	0xc46
 2133 0ca6 14       		.byte	0x14
 2134 0ca7 15       		.uleb128 0x15
 2135 0ca8 72313000 		.ascii	"r10\000"
 2136 0cac 0A       		.byte	0xa
 2137 0cad 1701     		.2byte	0x117
 2138 0caf 460C0000 		.4byte	0xc46
 2139 0cb3 18       		.byte	0x18
 2140 0cb4 15       		.uleb128 0x15
 2141 0cb5 72313100 		.ascii	"r11\000"
 2142 0cb9 0A       		.byte	0xa
 2143 0cba 1801     		.2byte	0x118
 2144 0cbc 460C0000 		.4byte	0xc46
 2145 0cc0 1C       		.byte	0x1c
 2146 0cc1 15       		.uleb128 0x15
 2147 0cc2 6C7200   		.ascii	"lr\000"
 2148 0cc5 0A       		.byte	0xa
 2149 0cc6 1901     		.2byte	0x119
 2150 0cc8 460C0000 		.4byte	0xc46
 2151 0ccc 20       		.byte	0x20
 2152 0ccd 00       		.byte	0
 2153 0cce 16       		.uleb128 0x16
 2154 0ccf CD020000 		.4byte	.LASF205
 2155 0cd3 04       		.byte	0x4
 2156 0cd4 0A       		.byte	0xa
 2157 0cd5 2301     		.2byte	0x123
 2158 0cd7 E90C0000 		.4byte	0xce9
 2159 0cdb 15       		.uleb128 0x15
 2160 0cdc 72313300 		.ascii	"r13\000"
 2161 0ce0 0A       		.byte	0xa
ARM GAS  /tmp/ccscnHdD.s 			page 39


 2162 0ce1 2401     		.2byte	0x124
 2163 0ce3 E90C0000 		.4byte	0xce9
 2164 0ce7 00       		.byte	0
 2165 0ce8 00       		.byte	0
 2166 0ce9 13       		.uleb128 0x13
 2167 0cea 04       		.byte	0x4
 2168 0ceb 530C0000 		.4byte	0xc53
 2169 0cef 05       		.uleb128 0x5
 2170 0cf0 B00A0000 		.4byte	0xab0
 2171 0cf4 0D       		.uleb128 0xd
 2172 0cf5 9B060000 		.4byte	.LASF206
 2173 0cf9 10       		.byte	0x10
 2174 0cfa 0B       		.byte	0xb
 2175 0cfb 2C       		.byte	0x2c
 2176 0cfc 250D0000 		.4byte	0xd25
 2177 0d00 10       		.uleb128 0x10
 2178 0d01 C4060000 		.4byte	.LASF207
 2179 0d05 0B       		.byte	0xb
 2180 0d06 2D       		.byte	0x2d
 2181 0d07 170C0000 		.4byte	0xc17
 2182 0d0b 00       		.byte	0
 2183 0d0c 10       		.uleb128 0x10
 2184 0d0d D1080000 		.4byte	.LASF208
 2185 0d11 0B       		.byte	0xb
 2186 0d12 2F       		.byte	0x2f
 2187 0d13 110C0000 		.4byte	0xc11
 2188 0d17 08       		.byte	0x8
 2189 0d18 10       		.uleb128 0x10
 2190 0d19 BB0B0000 		.4byte	.LASF209
 2191 0d1d 0B       		.byte	0xb
 2192 0d1e 31       		.byte	0x31
 2193 0d1f 250D0000 		.4byte	0xd25
 2194 0d23 0C       		.byte	0xc
 2195 0d24 00       		.byte	0
 2196 0d25 13       		.uleb128 0x13
 2197 0d26 04       		.byte	0x4
 2198 0d27 F40C0000 		.4byte	0xcf4
 2199 0d2b 03       		.uleb128 0x3
 2200 0d2c 9B060000 		.4byte	.LASF206
 2201 0d30 0B       		.byte	0xb
 2202 0d31 33       		.byte	0x33
 2203 0d32 F40C0000 		.4byte	0xcf4
 2204 0d36 03       		.uleb128 0x3
 2205 0d37 A30A0000 		.4byte	.LASF210
 2206 0d3b 0C       		.byte	0xc
 2207 0d3c 29       		.byte	0x29
 2208 0d3d 410D0000 		.4byte	0xd41
 2209 0d41 0D       		.uleb128 0xd
 2210 0d42 A30A0000 		.4byte	.LASF210
 2211 0d46 0C       		.byte	0xc
 2212 0d47 0C       		.byte	0xc
 2213 0d48 2E       		.byte	0x2e
 2214 0d49 720D0000 		.4byte	0xd72
 2215 0d4d 10       		.uleb128 0x10
 2216 0d4e 18060000 		.4byte	.LASF211
 2217 0d52 0C       		.byte	0xc
 2218 0d53 2F       		.byte	0x2f
ARM GAS  /tmp/ccscnHdD.s 			page 40


 2219 0d54 720D0000 		.4byte	0xd72
 2220 0d58 00       		.byte	0
 2221 0d59 10       		.uleb128 0x10
 2222 0d5a 010C0000 		.4byte	.LASF212
 2223 0d5e 0C       		.byte	0xc
 2224 0d5f 32       		.byte	0x32
 2225 0d60 110C0000 		.4byte	0xc11
 2226 0d64 04       		.byte	0x4
 2227 0d65 10       		.uleb128 0x10
 2228 0d66 800B0000 		.4byte	.LASF213
 2229 0d6a 0C       		.byte	0xc
 2230 0d6b 34       		.byte	0x34
 2231 0d6c A50A0000 		.4byte	0xaa5
 2232 0d70 08       		.byte	0x8
 2233 0d71 00       		.byte	0
 2234 0d72 13       		.uleb128 0x13
 2235 0d73 04       		.byte	0x4
 2236 0d74 410D0000 		.4byte	0xd41
 2237 0d78 0D       		.uleb128 0xd
 2238 0d79 E3050000 		.4byte	.LASF214
 2239 0d7d 04       		.byte	0x4
 2240 0d7e 0C       		.byte	0xc
 2241 0d7f 3C       		.byte	0x3c
 2242 0d80 910D0000 		.4byte	0xd91
 2243 0d84 10       		.uleb128 0x10
 2244 0d85 EB040000 		.4byte	.LASF215
 2245 0d89 0C       		.byte	0xc
 2246 0d8a 3D       		.byte	0x3d
 2247 0d8b 910D0000 		.4byte	0xd91
 2248 0d8f 00       		.byte	0
 2249 0d90 00       		.byte	0
 2250 0d91 13       		.uleb128 0x13
 2251 0d92 04       		.byte	0x4
 2252 0d93 360D0000 		.4byte	0xd36
 2253 0d97 03       		.uleb128 0x3
 2254 0d98 E3050000 		.4byte	.LASF214
 2255 0d9c 0C       		.byte	0xc
 2256 0d9d 40       		.byte	0x40
 2257 0d9e 780D0000 		.4byte	0xd78
 2258 0da2 13       		.uleb128 0x13
 2259 0da3 04       		.byte	0x4
 2260 0da4 C60A0000 		.4byte	0xac6
 2261 0da8 13       		.uleb128 0x13
 2262 0da9 04       		.byte	0x4
 2263 0daa AE0D0000 		.4byte	0xdae
 2264 0dae 17       		.uleb128 0x17
 2265 0daf B30D0000 		.4byte	0xdb3
 2266 0db3 02       		.uleb128 0x2
 2267 0db4 01       		.byte	0x1
 2268 0db5 08       		.byte	0x8
 2269 0db6 A1030000 		.4byte	.LASF216
 2270 0dba 13       		.uleb128 0x13
 2271 0dbb 04       		.byte	0x4
 2272 0dbc 2B0D0000 		.4byte	0xd2b
 2273 0dc0 03       		.uleb128 0x3
 2274 0dc1 1F070000 		.4byte	.LASF217
 2275 0dc5 09       		.byte	0x9
ARM GAS  /tmp/ccscnHdD.s 			page 41


 2276 0dc6 DF       		.byte	0xdf
 2277 0dc7 CB0D0000 		.4byte	0xdcb
 2278 0dcb 13       		.uleb128 0x13
 2279 0dcc 04       		.byte	0x4
 2280 0dcd D10D0000 		.4byte	0xdd1
 2281 0dd1 18       		.uleb128 0x18
 2282 0dd2 9A0A0000 		.4byte	0xa9a
 2283 0dd6 E00D0000 		.4byte	0xde0
 2284 0dda 19       		.uleb128 0x19
 2285 0ddb 510C0000 		.4byte	0xc51
 2286 0ddf 00       		.byte	0
 2287 0de0 03       		.uleb128 0x3
 2288 0de1 E1030000 		.4byte	.LASF218
 2289 0de5 0D       		.byte	0xd
 2290 0de6 37       		.byte	0x37
 2291 0de7 EB0D0000 		.4byte	0xdeb
 2292 0deb 0D       		.uleb128 0xd
 2293 0dec E1030000 		.4byte	.LASF218
 2294 0df0 20       		.byte	0x20
 2295 0df1 0D       		.byte	0xd
 2296 0df2 45       		.byte	0x45
 2297 0df3 4C0E0000 		.4byte	0xe4c
 2298 0df7 10       		.uleb128 0x10
 2299 0df8 2F090000 		.4byte	.LASF219
 2300 0dfc 0D       		.byte	0xd
 2301 0dfd 46       		.byte	0x46
 2302 0dfe 170C0000 		.4byte	0xc17
 2303 0e02 00       		.byte	0
 2304 0e03 10       		.uleb128 0x10
 2305 0e04 F3040000 		.4byte	.LASF220
 2306 0e08 0D       		.byte	0xd
 2307 0e09 47       		.byte	0x47
 2308 0e0a 580A0000 		.4byte	0xa58
 2309 0e0e 08       		.byte	0x8
 2310 0e0f 10       		.uleb128 0x10
 2311 0e10 80010000 		.4byte	.LASF221
 2312 0e14 0D       		.byte	0xd
 2313 0e15 48       		.byte	0x48
 2314 0e16 6E0E0000 		.4byte	0xe6e
 2315 0e1a 0C       		.byte	0xc
 2316 0e1b 10       		.uleb128 0x10
 2317 0e1c 56010000 		.4byte	.LASF222
 2318 0e20 0D       		.byte	0xd
 2319 0e21 49       		.byte	0x49
 2320 0e22 6E0E0000 		.4byte	0xe6e
 2321 0e26 10       		.byte	0x10
 2322 0e27 10       		.uleb128 0x10
 2323 0e28 25060000 		.4byte	.LASF223
 2324 0e2c 0D       		.byte	0xd
 2325 0e2d 4B       		.byte	0x4b
 2326 0e2e 6E0E0000 		.4byte	0xe6e
 2327 0e32 14       		.byte	0x14
 2328 0e33 10       		.uleb128 0x10
 2329 0e34 C4010000 		.4byte	.LASF224
 2330 0e38 0D       		.byte	0xd
 2331 0e39 4C       		.byte	0x4c
 2332 0e3a 6E0E0000 		.4byte	0xe6e
ARM GAS  /tmp/ccscnHdD.s 			page 42


 2333 0e3e 18       		.byte	0x18
 2334 0e3f 10       		.uleb128 0x10
 2335 0e40 91010000 		.4byte	.LASF225
 2336 0e44 0D       		.byte	0xd
 2337 0e45 4D       		.byte	0x4d
 2338 0e46 4C0E0000 		.4byte	0xe4c
 2339 0e4a 1C       		.byte	0x1c
 2340 0e4b 00       		.byte	0
 2341 0e4c 03       		.uleb128 0x3
 2342 0e4d 44070000 		.4byte	.LASF226
 2343 0e51 0D       		.byte	0xd
 2344 0e52 3A       		.byte	0x3a
 2345 0e53 570E0000 		.4byte	0xe57
 2346 0e57 13       		.uleb128 0x13
 2347 0e58 04       		.byte	0x4
 2348 0e59 5D0E0000 		.4byte	0xe5d
 2349 0e5d 1A       		.uleb128 0x1a
 2350 0e5e 680E0000 		.4byte	0xe68
 2351 0e62 19       		.uleb128 0x19
 2352 0e63 680E0000 		.4byte	0xe68
 2353 0e67 00       		.byte	0
 2354 0e68 13       		.uleb128 0x13
 2355 0e69 04       		.byte	0x4
 2356 0e6a E00D0000 		.4byte	0xde0
 2357 0e6e 13       		.uleb128 0x13
 2358 0e6f 04       		.byte	0x4
 2359 0e70 8C000000 		.4byte	0x8c
 2360 0e74 03       		.uleb128 0x3
 2361 0e75 4C0B0000 		.4byte	.LASF227
 2362 0e79 0D       		.byte	0xd
 2363 0e7a 76       		.byte	0x76
 2364 0e7b E00D0000 		.4byte	0xde0
 2365 0e7f 03       		.uleb128 0x3
 2366 0e80 24040000 		.4byte	.LASF228
 2367 0e84 0D       		.byte	0xd
 2368 0e85 E6       		.byte	0xe6
 2369 0e86 E00D0000 		.4byte	0xde0
 2370 0e8a 18       		.uleb128 0x18
 2371 0e8b 580A0000 		.4byte	0xa58
 2372 0e8f A30E0000 		.4byte	0xea3
 2373 0e93 19       		.uleb128 0x19
 2374 0e94 510C0000 		.4byte	0xc51
 2375 0e98 19       		.uleb128 0x19
 2376 0e99 A30E0000 		.4byte	0xea3
 2377 0e9d 19       		.uleb128 0x19
 2378 0e9e 580A0000 		.4byte	0xa58
 2379 0ea2 00       		.byte	0
 2380 0ea3 13       		.uleb128 0x13
 2381 0ea4 04       		.byte	0x4
 2382 0ea5 A90E0000 		.4byte	0xea9
 2383 0ea9 17       		.uleb128 0x17
 2384 0eaa 8C000000 		.4byte	0x8c
 2385 0eae 13       		.uleb128 0x13
 2386 0eaf 04       		.byte	0x4
 2387 0eb0 8A0E0000 		.4byte	0xe8a
 2388 0eb4 18       		.uleb128 0x18
 2389 0eb5 580A0000 		.4byte	0xa58
ARM GAS  /tmp/ccscnHdD.s 			page 43


 2390 0eb9 CD0E0000 		.4byte	0xecd
 2391 0ebd 19       		.uleb128 0x19
 2392 0ebe 510C0000 		.4byte	0xc51
 2393 0ec2 19       		.uleb128 0x19
 2394 0ec3 6E0E0000 		.4byte	0xe6e
 2395 0ec7 19       		.uleb128 0x19
 2396 0ec8 580A0000 		.4byte	0xa58
 2397 0ecc 00       		.byte	0
 2398 0ecd 13       		.uleb128 0x13
 2399 0ece 04       		.byte	0x4
 2400 0ecf B40E0000 		.4byte	0xeb4
 2401 0ed3 18       		.uleb128 0x18
 2402 0ed4 630A0000 		.4byte	0xa63
 2403 0ed8 E20E0000 		.4byte	0xee2
 2404 0edc 19       		.uleb128 0x19
 2405 0edd 510C0000 		.4byte	0xc51
 2406 0ee1 00       		.byte	0
 2407 0ee2 13       		.uleb128 0x13
 2408 0ee3 04       		.byte	0x4
 2409 0ee4 D30E0000 		.4byte	0xed3
 2410 0ee8 18       		.uleb128 0x18
 2411 0ee9 9A0A0000 		.4byte	0xa9a
 2412 0eed 010F0000 		.4byte	0xf01
 2413 0ef1 19       		.uleb128 0x19
 2414 0ef2 510C0000 		.4byte	0xc51
 2415 0ef6 19       		.uleb128 0x19
 2416 0ef7 8C000000 		.4byte	0x8c
 2417 0efb 19       		.uleb128 0x19
 2418 0efc B00A0000 		.4byte	0xab0
 2419 0f00 00       		.byte	0
 2420 0f01 13       		.uleb128 0x13
 2421 0f02 04       		.byte	0x4
 2422 0f03 E80E0000 		.4byte	0xee8
 2423 0f07 18       		.uleb128 0x18
 2424 0f08 9A0A0000 		.4byte	0xa9a
 2425 0f0c 1B0F0000 		.4byte	0xf1b
 2426 0f10 19       		.uleb128 0x19
 2427 0f11 510C0000 		.4byte	0xc51
 2428 0f15 19       		.uleb128 0x19
 2429 0f16 B00A0000 		.4byte	0xab0
 2430 0f1a 00       		.byte	0
 2431 0f1b 13       		.uleb128 0x13
 2432 0f1c 04       		.byte	0x4
 2433 0f1d 070F0000 		.4byte	0xf07
 2434 0f21 18       		.uleb128 0x18
 2435 0f22 580A0000 		.4byte	0xa58
 2436 0f26 3F0F0000 		.4byte	0xf3f
 2437 0f2a 19       		.uleb128 0x19
 2438 0f2b 510C0000 		.4byte	0xc51
 2439 0f2f 19       		.uleb128 0x19
 2440 0f30 A30E0000 		.4byte	0xea3
 2441 0f34 19       		.uleb128 0x19
 2442 0f35 580A0000 		.4byte	0xa58
 2443 0f39 19       		.uleb128 0x19
 2444 0f3a B00A0000 		.4byte	0xab0
 2445 0f3e 00       		.byte	0
 2446 0f3f 13       		.uleb128 0x13
ARM GAS  /tmp/ccscnHdD.s 			page 44


 2447 0f40 04       		.byte	0x4
 2448 0f41 210F0000 		.4byte	0xf21
 2449 0f45 18       		.uleb128 0x18
 2450 0f46 580A0000 		.4byte	0xa58
 2451 0f4a 630F0000 		.4byte	0xf63
 2452 0f4e 19       		.uleb128 0x19
 2453 0f4f 510C0000 		.4byte	0xc51
 2454 0f53 19       		.uleb128 0x19
 2455 0f54 6E0E0000 		.4byte	0xe6e
 2456 0f58 19       		.uleb128 0x19
 2457 0f59 580A0000 		.4byte	0xa58
 2458 0f5d 19       		.uleb128 0x19
 2459 0f5e B00A0000 		.4byte	0xab0
 2460 0f62 00       		.byte	0
 2461 0f63 13       		.uleb128 0x13
 2462 0f64 04       		.byte	0x4
 2463 0f65 450F0000 		.4byte	0xf45
 2464 0f69 0C       		.uleb128 0xc
 2465 0f6a B8070000 		.4byte	.LASF229
 2466 0f6e 0E       		.byte	0xe
 2467 0f6f 0B01     		.2byte	0x10b
 2468 0f71 AD000000 		.4byte	0xad
 2469 0f75 18       		.uleb128 0x18
 2470 0f76 690F0000 		.4byte	0xf69
 2471 0f7a 840F0000 		.4byte	0xf84
 2472 0f7e 19       		.uleb128 0x19
 2473 0f7f 510C0000 		.4byte	0xc51
 2474 0f83 00       		.byte	0
 2475 0f84 13       		.uleb128 0x13
 2476 0f85 04       		.byte	0x4
 2477 0f86 750F0000 		.4byte	0xf75
 2478 0f8a 03       		.uleb128 0x3
 2479 0f8b 73040000 		.4byte	.LASF230
 2480 0f8f 0F       		.byte	0xf
 2481 0f90 5D       		.byte	0x5d
 2482 0f91 A2000000 		.4byte	0xa2
 2483 0f95 13       		.uleb128 0x13
 2484 0f96 04       		.byte	0x4
 2485 0f97 78050000 		.4byte	0x578
 2486 0f9b 1B       		.uleb128 0x1b
 2487 0f9c 01       		.byte	0x1
 2488 0f9d 10       		.byte	0x10
 2489 0f9e 64       		.byte	0x64
 2490 0f9f A1060000 		.4byte	.LASF297
 2491 0fa3 BA0F0000 		.4byte	0xfba
 2492 0fa7 1C       		.uleb128 0x1c
 2493 0fa8 6D030000 		.4byte	.LASF231
 2494 0fac 00       		.sleb128 0
 2495 0fad 1C       		.uleb128 0x1c
 2496 0fae 610B0000 		.4byte	.LASF232
 2497 0fb2 01       		.sleb128 1
 2498 0fb3 1C       		.uleb128 0x1c
 2499 0fb4 C1090000 		.4byte	.LASF233
 2500 0fb8 02       		.sleb128 2
 2501 0fb9 00       		.byte	0
 2502 0fba 03       		.uleb128 0x3
 2503 0fbb 9D090000 		.4byte	.LASF234
ARM GAS  /tmp/ccscnHdD.s 			page 45


 2504 0fbf 10       		.byte	0x10
 2505 0fc0 68       		.byte	0x68
 2506 0fc1 9B0F0000 		.4byte	0xf9b
 2507 0fc5 03       		.uleb128 0x3
 2508 0fc6 04090000 		.4byte	.LASF235
 2509 0fca 10       		.byte	0x10
 2510 0fcb 6D       		.byte	0x6d
 2511 0fcc D00F0000 		.4byte	0xfd0
 2512 0fd0 0D       		.uleb128 0xd
 2513 0fd1 04090000 		.4byte	.LASF235
 2514 0fd5 74       		.byte	0x74
 2515 0fd6 10       		.byte	0x10
 2516 0fd7 87       		.byte	0x87
 2517 0fd8 47100000 		.4byte	0x1047
 2518 0fdc 11       		.uleb128 0x11
 2519 0fdd 766D7400 		.ascii	"vmt\000"
 2520 0fe1 10       		.byte	0x10
 2521 0fe2 89       		.byte	0x89
 2522 0fe3 C0100000 		.4byte	0x10c0
 2523 0fe7 00       		.byte	0
 2524 0fe8 10       		.uleb128 0x10
 2525 0fe9 56070000 		.4byte	.LASF236
 2526 0fed 10       		.byte	0x10
 2527 0fee 8A       		.byte	0x8a
 2528 0fef 970D0000 		.4byte	0xd97
 2529 0ff3 04       		.byte	0x4
 2530 0ff4 10       		.uleb128 0x10
 2531 0ff5 13040000 		.4byte	.LASF237
 2532 0ff9 10       		.byte	0x10
 2533 0ffa 8A       		.byte	0x8a
 2534 0ffb 690F0000 		.4byte	0xf69
 2535 0fff 08       		.byte	0x8
 2536 1000 10       		.uleb128 0x10
 2537 1001 360A0000 		.4byte	.LASF238
 2538 1005 10       		.byte	0x10
 2539 1006 8A       		.byte	0x8a
 2540 1007 BA0F0000 		.4byte	0xfba
 2541 100b 0C       		.byte	0xc
 2542 100c 10       		.uleb128 0x10
 2543 100d 46080000 		.4byte	.LASF239
 2544 1011 10       		.byte	0x10
 2545 1012 8A       		.byte	0x8a
 2546 1013 740E0000 		.4byte	0xe74
 2547 1017 10       		.byte	0x10
 2548 1018 10       		.uleb128 0x10
 2549 1019 3E020000 		.4byte	.LASF240
 2550 101d 10       		.byte	0x10
 2551 101e 8A       		.byte	0x8a
 2552 101f 7F0E0000 		.4byte	0xe7f
 2553 1023 30       		.byte	0x30
 2554 1024 11       		.uleb128 0x11
 2555 1025 696200   		.ascii	"ib\000"
 2556 1028 10       		.byte	0x10
 2557 1029 8A       		.byte	0x8a
 2558 102a CB100000 		.4byte	0x10cb
 2559 102e 50       		.byte	0x50
 2560 102f 11       		.uleb128 0x11
ARM GAS  /tmp/ccscnHdD.s 			page 46


 2561 1030 6F6200   		.ascii	"ob\000"
 2562 1033 10       		.byte	0x10
 2563 1034 8A       		.byte	0x8a
 2564 1035 CB100000 		.4byte	0x10cb
 2565 1039 60       		.byte	0x60
 2566 103a 10       		.uleb128 0x10
 2567 103b 310A0000 		.4byte	.LASF241
 2568 103f 10       		.byte	0x10
 2569 1040 8A       		.byte	0x8a
 2570 1041 DB100000 		.4byte	0x10db
 2571 1045 70       		.byte	0x70
 2572 1046 00       		.byte	0
 2573 1047 0D       		.uleb128 0xd
 2574 1048 36060000 		.4byte	.LASF242
 2575 104c 24       		.byte	0x24
 2576 104d 10       		.byte	0x10
 2577 104e 7C       		.byte	0x7c
 2578 104f C0100000 		.4byte	0x10c0
 2579 1053 10       		.uleb128 0x10
 2580 1054 B2000000 		.4byte	.LASF243
 2581 1058 10       		.byte	0x10
 2582 1059 7D       		.byte	0x7d
 2583 105a AE0E0000 		.4byte	0xeae
 2584 105e 00       		.byte	0
 2585 105f 10       		.uleb128 0x10
 2586 1060 6D070000 		.4byte	.LASF244
 2587 1064 10       		.byte	0x10
 2588 1065 7D       		.byte	0x7d
 2589 1066 CD0E0000 		.4byte	0xecd
 2590 106a 04       		.byte	0x4
 2591 106b 10       		.uleb128 0x10
 2592 106c 65040000 		.4byte	.LASF245
 2593 1070 10       		.byte	0x10
 2594 1071 7D       		.byte	0x7d
 2595 1072 E20E0000 		.4byte	0xee2
 2596 1076 08       		.byte	0x8
 2597 1077 10       		.uleb128 0x10
 2598 1078 21080000 		.4byte	.LASF246
 2599 107c 10       		.byte	0x10
 2600 107d 7D       		.byte	0x7d
 2601 107e E20E0000 		.4byte	0xee2
 2602 1082 0C       		.byte	0xc
 2603 1083 11       		.uleb128 0x11
 2604 1084 70757400 		.ascii	"put\000"
 2605 1088 10       		.byte	0x10
 2606 1089 7D       		.byte	0x7d
 2607 108a 010F0000 		.4byte	0xf01
 2608 108e 10       		.byte	0x10
 2609 108f 11       		.uleb128 0x11
 2610 1090 67657400 		.ascii	"get\000"
 2611 1094 10       		.byte	0x10
 2612 1095 7D       		.byte	0x7d
 2613 1096 1B0F0000 		.4byte	0xf1b
 2614 109a 14       		.byte	0x14
 2615 109b 10       		.uleb128 0x10
 2616 109c 7F000000 		.4byte	.LASF247
 2617 10a0 10       		.byte	0x10
ARM GAS  /tmp/ccscnHdD.s 			page 47


 2618 10a1 7D       		.byte	0x7d
 2619 10a2 3F0F0000 		.4byte	0xf3f
 2620 10a6 18       		.byte	0x18
 2621 10a7 10       		.uleb128 0x10
 2622 10a8 65010000 		.4byte	.LASF248
 2623 10ac 10       		.byte	0x10
 2624 10ad 7D       		.byte	0x7d
 2625 10ae 630F0000 		.4byte	0xf63
 2626 10b2 1C       		.byte	0x1c
 2627 10b3 10       		.uleb128 0x10
 2628 10b4 710A0000 		.4byte	.LASF249
 2629 10b8 10       		.byte	0x10
 2630 10b9 7D       		.byte	0x7d
 2631 10ba 840F0000 		.4byte	0xf84
 2632 10be 20       		.byte	0x20
 2633 10bf 00       		.byte	0
 2634 10c0 13       		.uleb128 0x13
 2635 10c1 04       		.byte	0x4
 2636 10c2 C6100000 		.4byte	0x10c6
 2637 10c6 17       		.uleb128 0x17
 2638 10c7 47100000 		.4byte	0x1047
 2639 10cb 06       		.uleb128 0x6
 2640 10cc 37000000 		.4byte	0x37
 2641 10d0 DB100000 		.4byte	0x10db
 2642 10d4 07       		.uleb128 0x7
 2643 10d5 DE000000 		.4byte	0xde
 2644 10d9 0F       		.byte	0xf
 2645 10da 00       		.byte	0
 2646 10db 13       		.uleb128 0x13
 2647 10dc 04       		.byte	0x4
 2648 10dd 470A0000 		.4byte	0xa47
 2649 10e1 0D       		.uleb128 0xd
 2650 10e2 38080000 		.4byte	.LASF250
 2651 10e6 0C       		.byte	0xc
 2652 10e7 11       		.byte	0x11
 2653 10e8 C7       		.byte	0xc7
 2654 10e9 29110000 		.4byte	0x1129
 2655 10ed 10       		.uleb128 0x10
 2656 10ee 03070000 		.4byte	.LASF251
 2657 10f2 11       		.byte	0x11
 2658 10f3 CA       		.byte	0xca
 2659 10f4 A2000000 		.4byte	0xa2
 2660 10f8 00       		.byte	0
 2661 10f9 11       		.uleb128 0x11
 2662 10fa 70696F00 		.ascii	"pio\000"
 2663 10fe 11       		.byte	0x11
 2664 10ff CC       		.byte	0xcc
 2665 1100 950F0000 		.4byte	0xf95
 2666 1104 04       		.byte	0x4
 2667 1105 11       		.uleb128 0x11
 2668 1106 696400   		.ascii	"id\000"
 2669 1109 11       		.byte	0x11
 2670 110a CE       		.byte	0xce
 2671 110b 8C000000 		.4byte	0x8c
 2672 110f 08       		.byte	0x8
 2673 1110 10       		.uleb128 0x10
 2674 1111 FB000000 		.4byte	.LASF252
ARM GAS  /tmp/ccscnHdD.s 			page 48


 2675 1115 11       		.byte	0x11
 2676 1116 D0       		.byte	0xd0
 2677 1117 8C000000 		.4byte	0x8c
 2678 111b 09       		.byte	0x9
 2679 111c 10       		.uleb128 0x10
 2680 111d 89080000 		.4byte	.LASF253
 2681 1121 11       		.byte	0x11
 2682 1122 D2       		.byte	0xd2
 2683 1123 8C000000 		.4byte	0x8c
 2684 1127 0A       		.byte	0xa
 2685 1128 00       		.byte	0
 2686 1129 1D       		.uleb128 0x1d
 2687 112a 50696E00 		.ascii	"Pin\000"
 2688 112e 11       		.byte	0x11
 2689 112f D3       		.byte	0xd3
 2690 1130 E1100000 		.4byte	0x10e1
 2691 1134 0D       		.uleb128 0xd
 2692 1135 3D0B0000 		.4byte	.LASF254
 2693 1139 18       		.byte	0x18
 2694 113a 12       		.byte	0x12
 2695 113b 3C       		.byte	0x3c
 2696 113c 65110000 		.4byte	0x1165
 2697 1140 10       		.uleb128 0x10
 2698 1141 01060000 		.4byte	.LASF255
 2699 1145 12       		.byte	0x12
 2700 1146 3F       		.byte	0x3f
 2701 1147 530A0000 		.4byte	0xa53
 2702 114b 00       		.byte	0
 2703 114c 10       		.uleb128 0x10
 2704 114d F2090000 		.4byte	.LASF256
 2705 1151 12       		.byte	0x12
 2706 1152 41       		.byte	0x41
 2707 1153 510C0000 		.4byte	0xc51
 2708 1157 04       		.byte	0x4
 2709 1158 10       		.uleb128 0x10
 2710 1159 54040000 		.4byte	.LASF257
 2711 115d 12       		.byte	0x12
 2712 115e 43       		.byte	0x43
 2713 115f 25010000 		.4byte	0x125
 2714 1163 08       		.byte	0x8
 2715 1164 00       		.byte	0
 2716 1165 03       		.uleb128 0x3
 2717 1166 DF070000 		.4byte	.LASF258
 2718 116a 12       		.byte	0x12
 2719 116b 44       		.byte	0x44
 2720 116c 34110000 		.4byte	0x1134
 2721 1170 0D       		.uleb128 0xd
 2722 1171 FE080000 		.4byte	.LASF259
 2723 1175 08       		.byte	0x8
 2724 1176 13       		.byte	0x13
 2725 1177 3B       		.byte	0x3b
 2726 1178 95110000 		.4byte	0x1195
 2727 117c 10       		.uleb128 0x10
 2728 117d ED060000 		.4byte	.LASF260
 2729 1181 13       		.byte	0x13
 2730 1182 3E       		.byte	0x3e
 2731 1183 95110000 		.4byte	0x1195
ARM GAS  /tmp/ccscnHdD.s 			page 49


 2732 1187 00       		.byte	0
 2733 1188 10       		.uleb128 0x10
 2734 1189 76060000 		.4byte	.LASF261
 2735 118d 13       		.byte	0x13
 2736 118e 40       		.byte	0x40
 2737 118f 9B110000 		.4byte	0x119b
 2738 1193 04       		.byte	0x4
 2739 1194 00       		.byte	0
 2740 1195 13       		.uleb128 0x13
 2741 1196 04       		.byte	0x4
 2742 1197 09090000 		.4byte	0x909
 2743 119b 13       		.uleb128 0x13
 2744 119c 04       		.byte	0x4
 2745 119d 65110000 		.4byte	0x1165
 2746 11a1 03       		.uleb128 0x3
 2747 11a2 AA0B0000 		.4byte	.LASF262
 2748 11a6 13       		.byte	0x13
 2749 11a7 41       		.byte	0x41
 2750 11a8 70110000 		.4byte	0x1170
 2751 11ac 1E       		.uleb128 0x1e
 2752 11ad 0B000000 		.4byte	.LASF298
 2753 11b1 01       		.byte	0x1
 2754 11b2 5E       		.byte	0x5e
 2755 11b3 9A0A0000 		.4byte	0xa9a
 2756 11b7 00000000 		.4byte	.LFB42
 2757 11bb 24000000 		.4byte	.LFE42-.LFB42
 2758 11bf 01       		.uleb128 0x1
 2759 11c0 9C       		.byte	0x9c
 2760 11c1 FB110000 		.4byte	0x11fb
 2761 11c5 1F       		.uleb128 0x1f
 2762 11c6 61726700 		.ascii	"arg\000"
 2763 11ca 01       		.byte	0x1
 2764 11cb 5E       		.byte	0x5e
 2765 11cc 510C0000 		.4byte	0xc51
 2766 11d0 00000000 		.4byte	.LLST0
 2767 11d4 20       		.uleb128 0x20
 2768 11d5 14000000 		.4byte	.LVL2
 2769 11d9 6F170000 		.4byte	0x176f
 2770 11dd E9110000 		.4byte	0x11e9
 2771 11e1 21       		.uleb128 0x21
 2772 11e2 01       		.uleb128 0x1
 2773 11e3 50       		.byte	0x50
 2774 11e4 03       		.uleb128 0x3
 2775 11e5 0A       		.byte	0xa
 2776 11e6 E803     		.2byte	0x3e8
 2777 11e8 00       		.byte	0
 2778 11e9 22       		.uleb128 0x22
 2779 11ea 1E000000 		.4byte	.LVL3
 2780 11ee 6F170000 		.4byte	0x176f
 2781 11f2 21       		.uleb128 0x21
 2782 11f3 01       		.uleb128 0x1
 2783 11f4 50       		.byte	0x50
 2784 11f5 03       		.uleb128 0x3
 2785 11f6 0A       		.byte	0xa
 2786 11f7 E803     		.2byte	0x3e8
 2787 11f9 00       		.byte	0
 2788 11fa 00       		.byte	0
ARM GAS  /tmp/ccscnHdD.s 			page 50


 2789 11fb 23       		.uleb128 0x23
 2790 11fc 290A0000 		.4byte	.LASF266
 2791 1200 01       		.byte	0x1
 2792 1201 1F       		.byte	0x1f
 2793 1202 0A080000 		.4byte	.LASF268
 2794 1206 00000000 		.4byte	.LFB36
 2795 120a 60000000 		.4byte	.LFE36-.LFB36
 2796 120e 01       		.uleb128 0x1
 2797 120f 9C       		.byte	0x9c
 2798 1210 A6120000 		.4byte	0x12a6
 2799 1214 24       		.uleb128 0x24
 2800 1215 02000000 		.4byte	.LBB3
 2801 1219 06000000 		.4byte	.LBE3-.LBB3
 2802 121d 2F120000 		.4byte	0x122f
 2803 1221 25       		.uleb128 0x25
 2804 1222 746D7000 		.ascii	"tmp\000"
 2805 1226 01       		.byte	0x1
 2806 1227 21       		.byte	0x21
 2807 1228 A2000000 		.4byte	0xa2
 2808 122c 01       		.uleb128 0x1
 2809 122d 53       		.byte	0x53
 2810 122e 00       		.byte	0
 2811 122f 24       		.uleb128 0x24
 2812 1230 38000000 		.4byte	.LBB4
 2813 1234 28000000 		.4byte	.LBE4-.LBB4
 2814 1238 4A120000 		.4byte	0x124a
 2815 123c 25       		.uleb128 0x25
 2816 123d 746D7000 		.ascii	"tmp\000"
 2817 1241 01       		.byte	0x1
 2818 1242 28       		.byte	0x28
 2819 1243 A2000000 		.4byte	0xa2
 2820 1247 01       		.uleb128 0x1
 2821 1248 53       		.byte	0x53
 2822 1249 00       		.byte	0
 2823 124a 20       		.uleb128 0x20
 2824 124b 10000000 		.4byte	.LVL4
 2825 124f 81170000 		.4byte	0x1781
 2826 1253 66120000 		.4byte	0x1266
 2827 1257 21       		.uleb128 0x21
 2828 1258 01       		.uleb128 0x1
 2829 1259 51       		.byte	0x51
 2830 125a 01       		.uleb128 0x1
 2831 125b 32       		.byte	0x32
 2832 125c 21       		.uleb128 0x21
 2833 125d 01       		.uleb128 0x1
 2834 125e 50       		.byte	0x50
 2835 125f 05       		.uleb128 0x5
 2836 1260 03       		.byte	0x3
 2837 1261 00000000 		.4byte	.LANCHOR0
 2838 1265 00       		.byte	0
 2839 1266 20       		.uleb128 0x20
 2840 1267 30000000 		.4byte	.LVL5
 2841 126b A6170000 		.4byte	0x17a6
 2842 126f 8C120000 		.4byte	0x128c
 2843 1273 21       		.uleb128 0x21
 2844 1274 01       		.uleb128 0x1
 2845 1275 52       		.byte	0x52
ARM GAS  /tmp/ccscnHdD.s 			page 51


 2846 1276 05       		.uleb128 0x5
 2847 1277 0C       		.byte	0xc
 2848 1278 0090D003 		.4byte	0x3d09000
 2849 127c 21       		.uleb128 0x21
 2850 127d 01       		.uleb128 0x1
 2851 127e 51       		.byte	0x51
 2852 127f 05       		.uleb128 0x5
 2853 1280 0C       		.byte	0xc
 2854 1281 801A0600 		.4byte	0x61a80
 2855 1285 21       		.uleb128 0x21
 2856 1286 01       		.uleb128 0x1
 2857 1287 50       		.byte	0x50
 2858 1288 02       		.uleb128 0x2
 2859 1289 74       		.byte	0x74
 2860 128a 00       		.sleb128 0
 2861 128b 00       		.byte	0
 2862 128c 22       		.uleb128 0x22
 2863 128d 38000000 		.4byte	.LVL6
 2864 1291 C1170000 		.4byte	0x17c1
 2865 1295 21       		.uleb128 0x21
 2866 1296 01       		.uleb128 0x1
 2867 1297 51       		.byte	0x51
 2868 1298 02       		.uleb128 0x2
 2869 1299 74       		.byte	0x74
 2870 129a 00       		.sleb128 0
 2871 129b 21       		.uleb128 0x21
 2872 129c 01       		.uleb128 0x1
 2873 129d 50       		.byte	0x50
 2874 129e 05       		.uleb128 0x5
 2875 129f 03       		.byte	0x3
 2876 12a0 00000000 		.4byte	.LANCHOR1
 2877 12a4 00       		.byte	0
 2878 12a5 00       		.byte	0
 2879 12a6 26       		.uleb128 0x26
 2880 12a7 F9010000 		.4byte	.LASF270
 2881 12ab 01       		.byte	0x1
 2882 12ac 2B       		.byte	0x2b
 2883 12ad 4E020000 		.4byte	.LASF272
 2884 12b1 8C000000 		.4byte	0x8c
 2885 12b5 00000000 		.4byte	.LFB37
 2886 12b9 38000000 		.4byte	.LFE37-.LFB37
 2887 12bd 01       		.uleb128 0x1
 2888 12be 9C       		.byte	0x9c
 2889 12bf 6B130000 		.4byte	0x136b
 2890 12c3 27       		.uleb128 0x27
 2891 12c4 08060000 		.4byte	.LASF263
 2892 12c8 01       		.byte	0x1
 2893 12c9 2B       		.byte	0x2b
 2894 12ca 8C000000 		.4byte	0x8c
 2895 12ce 21000000 		.4byte	.LLST1
 2896 12d2 27       		.uleb128 0x27
 2897 12d3 B8000000 		.4byte	.LASF264
 2898 12d7 01       		.byte	0x1
 2899 12d8 2B       		.byte	0x2b
 2900 12d9 8C000000 		.4byte	0x8c
 2901 12dd 42000000 		.4byte	.LLST2
 2902 12e1 28       		.uleb128 0x28
ARM GAS  /tmp/ccscnHdD.s 			page 52


 2903 12e2 06000000 		.4byte	.LBB5
 2904 12e6 28000000 		.4byte	.LBE5-.LBB5
 2905 12ea 29       		.uleb128 0x29
 2906 12eb 72657400 		.ascii	"ret\000"
 2907 12ef 01       		.byte	0x1
 2908 12f0 2E       		.byte	0x2e
 2909 12f1 8C000000 		.4byte	0x8c
 2910 12f5 63000000 		.4byte	.LLST3
 2911 12f9 2A       		.uleb128 0x2a
 2912 12fa B60B0000 		.4byte	.LASF265
 2913 12fe 01       		.byte	0x1
 2914 12ff 2F       		.byte	0x2f
 2915 1300 8C000000 		.4byte	0x8c
 2916 1304 02       		.uleb128 0x2
 2917 1305 91       		.byte	0x91
 2918 1306 6F       		.sleb128 -17
 2919 1307 24       		.uleb128 0x24
 2920 1308 06000000 		.4byte	.LBB6
 2921 130c 06000000 		.4byte	.LBE6-.LBB6
 2922 1310 22130000 		.4byte	0x1322
 2923 1314 25       		.uleb128 0x25
 2924 1315 746D7000 		.ascii	"tmp\000"
 2925 1319 01       		.byte	0x1
 2926 131a 2D       		.byte	0x2d
 2927 131b A2000000 		.4byte	0xa2
 2928 131f 01       		.uleb128 0x1
 2929 1320 53       		.byte	0x53
 2930 1321 00       		.byte	0
 2931 1322 24       		.uleb128 0x24
 2932 1323 28000000 		.4byte	.LBB7
 2933 1327 06000000 		.4byte	.LBE7-.LBB7
 2934 132b 3D130000 		.4byte	0x133d
 2935 132f 25       		.uleb128 0x25
 2936 1330 746D7000 		.ascii	"tmp\000"
 2937 1334 01       		.byte	0x1
 2938 1335 32       		.byte	0x32
 2939 1336 A2000000 		.4byte	0xa2
 2940 133a 01       		.uleb128 0x1
 2941 133b 53       		.byte	0x53
 2942 133c 00       		.byte	0
 2943 133d 22       		.uleb128 0x22
 2944 133e 22000000 		.4byte	.LVL10
 2945 1342 DD170000 		.4byte	0x17dd
 2946 1346 21       		.uleb128 0x21
 2947 1347 01       		.uleb128 0x1
 2948 1348 53       		.byte	0x53
 2949 1349 01       		.uleb128 0x1
 2950 134a 31       		.byte	0x31
 2951 134b 21       		.uleb128 0x21
 2952 134c 01       		.uleb128 0x1
 2953 134d 50       		.byte	0x50
 2954 134e 05       		.uleb128 0x5
 2955 134f 03       		.byte	0x3
 2956 1350 00000000 		.4byte	.LANCHOR1
 2957 1354 21       		.uleb128 0x21
 2958 1355 02       		.uleb128 0x2
 2959 1356 7D       		.byte	0x7d
ARM GAS  /tmp/ccscnHdD.s 			page 53


 2960 1357 08       		.sleb128 8
 2961 1358 02       		.uleb128 0x2
 2962 1359 74       		.byte	0x74
 2963 135a 00       		.sleb128 0
 2964 135b 21       		.uleb128 0x21
 2965 135c 02       		.uleb128 0x2
 2966 135d 7D       		.byte	0x7d
 2967 135e 04       		.sleb128 4
 2968 135f 01       		.uleb128 0x1
 2969 1360 31       		.byte	0x31
 2970 1361 21       		.uleb128 0x21
 2971 1362 02       		.uleb128 0x2
 2972 1363 7D       		.byte	0x7d
 2973 1364 00       		.sleb128 0
 2974 1365 02       		.uleb128 0x2
 2975 1366 75       		.byte	0x75
 2976 1367 00       		.sleb128 0
 2977 1368 00       		.byte	0
 2978 1369 00       		.byte	0
 2979 136a 00       		.byte	0
 2980 136b 23       		.uleb128 0x23
 2981 136c 7F020000 		.4byte	.LASF267
 2982 1370 01       		.byte	0x1
 2983 1371 36       		.byte	0x36
 2984 1372 EF070000 		.4byte	.LASF269
 2985 1376 00000000 		.4byte	.LFB38
 2986 137a 34000000 		.4byte	.LFE38-.LFB38
 2987 137e 01       		.uleb128 0x1
 2988 137f 9C       		.byte	0x9c
 2989 1380 0C140000 		.4byte	0x140c
 2990 1384 27       		.uleb128 0x27
 2991 1385 08060000 		.4byte	.LASF263
 2992 1389 01       		.byte	0x1
 2993 138a 36       		.byte	0x36
 2994 138b 8C000000 		.4byte	0x8c
 2995 138f 76000000 		.4byte	.LLST4
 2996 1393 27       		.uleb128 0x27
 2997 1394 B60B0000 		.4byte	.LASF265
 2998 1398 01       		.byte	0x1
 2999 1399 36       		.byte	0x36
 3000 139a 8C000000 		.4byte	0x8c
 3001 139e 97000000 		.4byte	.LLST5
 3002 13a2 24       		.uleb128 0x24
 3003 13a3 0A000000 		.4byte	.LBB9
 3004 13a7 06000000 		.4byte	.LBE9-.LBB9
 3005 13ab BD130000 		.4byte	0x13bd
 3006 13af 25       		.uleb128 0x25
 3007 13b0 746D7000 		.ascii	"tmp\000"
 3008 13b4 01       		.byte	0x1
 3009 13b5 38       		.byte	0x38
 3010 13b6 A2000000 		.4byte	0xa2
 3011 13ba 01       		.uleb128 0x1
 3012 13bb 53       		.byte	0x53
 3013 13bc 00       		.byte	0
 3014 13bd 24       		.uleb128 0x24
 3015 13be 26000000 		.4byte	.LBB10
 3016 13c2 06000000 		.4byte	.LBE10-.LBB10
ARM GAS  /tmp/ccscnHdD.s 			page 54


 3017 13c6 D8130000 		.4byte	0x13d8
 3018 13ca 25       		.uleb128 0x25
 3019 13cb 746D7000 		.ascii	"tmp\000"
 3020 13cf 01       		.byte	0x1
 3021 13d0 3A       		.byte	0x3a
 3022 13d1 A2000000 		.4byte	0xa2
 3023 13d5 01       		.uleb128 0x1
 3024 13d6 53       		.byte	0x53
 3025 13d7 00       		.byte	0
 3026 13d8 22       		.uleb128 0x22
 3027 13d9 26000000 		.4byte	.LVL17
 3028 13dd 10180000 		.4byte	0x1810
 3029 13e1 21       		.uleb128 0x21
 3030 13e2 01       		.uleb128 0x1
 3031 13e3 53       		.byte	0x53
 3032 13e4 02       		.uleb128 0x2
 3033 13e5 74       		.byte	0x74
 3034 13e6 00       		.sleb128 0
 3035 13e7 21       		.uleb128 0x21
 3036 13e8 01       		.uleb128 0x1
 3037 13e9 52       		.byte	0x52
 3038 13ea 02       		.uleb128 0x2
 3039 13eb 74       		.byte	0x74
 3040 13ec 00       		.sleb128 0
 3041 13ed 21       		.uleb128 0x21
 3042 13ee 01       		.uleb128 0x1
 3043 13ef 50       		.byte	0x50
 3044 13f0 05       		.uleb128 0x5
 3045 13f1 03       		.byte	0x3
 3046 13f2 00000000 		.4byte	.LANCHOR1
 3047 13f6 21       		.uleb128 0x21
 3048 13f7 02       		.uleb128 0x2
 3049 13f8 7D       		.byte	0x7d
 3050 13f9 08       		.sleb128 8
 3051 13fa 02       		.uleb128 0x2
 3052 13fb 74       		.byte	0x74
 3053 13fc 00       		.sleb128 0
 3054 13fd 21       		.uleb128 0x21
 3055 13fe 02       		.uleb128 0x2
 3056 13ff 7D       		.byte	0x7d
 3057 1400 04       		.sleb128 4
 3058 1401 01       		.uleb128 0x1
 3059 1402 31       		.byte	0x31
 3060 1403 21       		.uleb128 0x21
 3061 1404 02       		.uleb128 0x2
 3062 1405 7D       		.byte	0x7d
 3063 1406 00       		.sleb128 0
 3064 1407 02       		.uleb128 0x2
 3065 1408 91       		.byte	0x91
 3066 1409 77       		.sleb128 -9
 3067 140a 00       		.byte	0
 3068 140b 00       		.byte	0
 3069 140c 26       		.uleb128 0x26
 3070 140d 07040000 		.4byte	.LASF271
 3071 1411 01       		.byte	0x1
 3072 1412 3D       		.byte	0x3d
 3073 1413 4B0A0000 		.4byte	.LASF273
ARM GAS  /tmp/ccscnHdD.s 			page 55


 3074 1417 8C000000 		.4byte	0x8c
 3075 141b 00000000 		.4byte	.LFB39
 3076 141f 38000000 		.4byte	.LFE39-.LFB39
 3077 1423 01       		.uleb128 0x1
 3078 1424 9C       		.byte	0x9c
 3079 1425 C6140000 		.4byte	0x14c6
 3080 1429 27       		.uleb128 0x27
 3081 142a 08060000 		.4byte	.LASF263
 3082 142e 01       		.byte	0x1
 3083 142f 3D       		.byte	0x3d
 3084 1430 8C000000 		.4byte	0x8c
 3085 1434 E7000000 		.4byte	.LLST6
 3086 1438 28       		.uleb128 0x28
 3087 1439 06000000 		.4byte	.LBB11
 3088 143d 28000000 		.4byte	.LBE11-.LBB11
 3089 1441 29       		.uleb128 0x29
 3090 1442 72657400 		.ascii	"ret\000"
 3091 1446 01       		.byte	0x1
 3092 1447 40       		.byte	0x40
 3093 1448 8C000000 		.4byte	0x8c
 3094 144c 08010000 		.4byte	.LLST7
 3095 1450 2A       		.uleb128 0x2a
 3096 1451 B60B0000 		.4byte	.LASF265
 3097 1455 01       		.byte	0x1
 3098 1456 41       		.byte	0x41
 3099 1457 8C000000 		.4byte	0x8c
 3100 145b 02       		.uleb128 0x2
 3101 145c 91       		.byte	0x91
 3102 145d 6F       		.sleb128 -17
 3103 145e 24       		.uleb128 0x24
 3104 145f 06000000 		.4byte	.LBB12
 3105 1463 06000000 		.4byte	.LBE12-.LBB12
 3106 1467 79140000 		.4byte	0x1479
 3107 146b 25       		.uleb128 0x25
 3108 146c 746D7000 		.ascii	"tmp\000"
 3109 1470 01       		.byte	0x1
 3110 1471 3F       		.byte	0x3f
 3111 1472 A2000000 		.4byte	0xa2
 3112 1476 01       		.uleb128 0x1
 3113 1477 53       		.byte	0x53
 3114 1478 00       		.byte	0
 3115 1479 24       		.uleb128 0x24
 3116 147a 28000000 		.4byte	.LBB13
 3117 147e 06000000 		.4byte	.LBE13-.LBB13
 3118 1482 94140000 		.4byte	0x1494
 3119 1486 25       		.uleb128 0x25
 3120 1487 746D7000 		.ascii	"tmp\000"
 3121 148b 01       		.byte	0x1
 3122 148c 44       		.byte	0x44
 3123 148d A2000000 		.4byte	0xa2
 3124 1491 01       		.uleb128 0x1
 3125 1492 53       		.byte	0x53
 3126 1493 00       		.byte	0
 3127 1494 22       		.uleb128 0x22
 3128 1495 22000000 		.4byte	.LVL22
 3129 1499 DD170000 		.4byte	0x17dd
 3130 149d 21       		.uleb128 0x21
ARM GAS  /tmp/ccscnHdD.s 			page 56


 3131 149e 01       		.uleb128 0x1
 3132 149f 53       		.byte	0x53
 3133 14a0 01       		.uleb128 0x1
 3134 14a1 30       		.byte	0x30
 3135 14a2 21       		.uleb128 0x21
 3136 14a3 01       		.uleb128 0x1
 3137 14a4 52       		.byte	0x52
 3138 14a5 01       		.uleb128 0x1
 3139 14a6 30       		.byte	0x30
 3140 14a7 21       		.uleb128 0x21
 3141 14a8 01       		.uleb128 0x1
 3142 14a9 50       		.byte	0x50
 3143 14aa 05       		.uleb128 0x5
 3144 14ab 03       		.byte	0x3
 3145 14ac 00000000 		.4byte	.LANCHOR1
 3146 14b0 21       		.uleb128 0x21
 3147 14b1 02       		.uleb128 0x2
 3148 14b2 7D       		.byte	0x7d
 3149 14b3 08       		.sleb128 8
 3150 14b4 01       		.uleb128 0x1
 3151 14b5 30       		.byte	0x30
 3152 14b6 21       		.uleb128 0x21
 3153 14b7 02       		.uleb128 0x2
 3154 14b8 7D       		.byte	0x7d
 3155 14b9 04       		.sleb128 4
 3156 14ba 01       		.uleb128 0x1
 3157 14bb 31       		.byte	0x31
 3158 14bc 21       		.uleb128 0x21
 3159 14bd 02       		.uleb128 0x2
 3160 14be 7D       		.byte	0x7d
 3161 14bf 00       		.sleb128 0
 3162 14c0 02       		.uleb128 0x2
 3163 14c1 74       		.byte	0x74
 3164 14c2 00       		.sleb128 0
 3165 14c3 00       		.byte	0
 3166 14c4 00       		.byte	0
 3167 14c5 00       		.byte	0
 3168 14c6 23       		.uleb128 0x23
 3169 14c7 880B0000 		.4byte	.LASF274
 3170 14cb 01       		.byte	0x1
 3171 14cc 48       		.byte	0x48
 3172 14cd 6B010000 		.4byte	.LASF275
 3173 14d1 00000000 		.4byte	.LFB40
 3174 14d5 34000000 		.4byte	.LFE40-.LFB40
 3175 14d9 01       		.uleb128 0x1
 3176 14da 9C       		.byte	0x9c
 3177 14db 75150000 		.4byte	0x1575
 3178 14df 27       		.uleb128 0x27
 3179 14e0 08060000 		.4byte	.LASF263
 3180 14e4 01       		.byte	0x1
 3181 14e5 48       		.byte	0x48
 3182 14e6 8C000000 		.4byte	0x8c
 3183 14ea 1B010000 		.4byte	.LLST8
 3184 14ee 27       		.uleb128 0x27
 3185 14ef B8000000 		.4byte	.LASF264
 3186 14f3 01       		.byte	0x1
 3187 14f4 48       		.byte	0x48
ARM GAS  /tmp/ccscnHdD.s 			page 57


 3188 14f5 8C000000 		.4byte	0x8c
 3189 14f9 3C010000 		.4byte	.LLST9
 3190 14fd 27       		.uleb128 0x27
 3191 14fe B60B0000 		.4byte	.LASF265
 3192 1502 01       		.byte	0x1
 3193 1503 48       		.byte	0x48
 3194 1504 8C000000 		.4byte	0x8c
 3195 1508 5D010000 		.4byte	.LLST10
 3196 150c 24       		.uleb128 0x24
 3197 150d 0C000000 		.4byte	.LBB15
 3198 1511 06000000 		.4byte	.LBE15-.LBB15
 3199 1515 27150000 		.4byte	0x1527
 3200 1519 25       		.uleb128 0x25
 3201 151a 746D7000 		.ascii	"tmp\000"
 3202 151e 01       		.byte	0x1
 3203 151f 4A       		.byte	0x4a
 3204 1520 A2000000 		.4byte	0xa2
 3205 1524 01       		.uleb128 0x1
 3206 1525 53       		.byte	0x53
 3207 1526 00       		.byte	0
 3208 1527 24       		.uleb128 0x24
 3209 1528 26000000 		.4byte	.LBB16
 3210 152c 06000000 		.4byte	.LBE16-.LBB16
 3211 1530 42150000 		.4byte	0x1542
 3212 1534 25       		.uleb128 0x25
 3213 1535 746D7000 		.ascii	"tmp\000"
 3214 1539 01       		.byte	0x1
 3215 153a 4C       		.byte	0x4c
 3216 153b A2000000 		.4byte	0xa2
 3217 153f 01       		.uleb128 0x1
 3218 1540 53       		.byte	0x53
 3219 1541 00       		.byte	0
 3220 1542 22       		.uleb128 0x22
 3221 1543 26000000 		.4byte	.LVL29
 3222 1547 10180000 		.4byte	0x1810
 3223 154b 21       		.uleb128 0x21
 3224 154c 01       		.uleb128 0x1
 3225 154d 53       		.byte	0x53
 3226 154e 01       		.uleb128 0x1
 3227 154f 31       		.byte	0x31
 3228 1550 21       		.uleb128 0x21
 3229 1551 01       		.uleb128 0x1
 3230 1552 52       		.byte	0x52
 3231 1553 02       		.uleb128 0x2
 3232 1554 76       		.byte	0x76
 3233 1555 00       		.sleb128 0
 3234 1556 21       		.uleb128 0x21
 3235 1557 01       		.uleb128 0x1
 3236 1558 50       		.byte	0x50
 3237 1559 05       		.uleb128 0x5
 3238 155a 03       		.byte	0x3
 3239 155b 00000000 		.4byte	.LANCHOR1
 3240 155f 21       		.uleb128 0x21
 3241 1560 02       		.uleb128 0x2
 3242 1561 7D       		.byte	0x7d
 3243 1562 08       		.sleb128 8
 3244 1563 02       		.uleb128 0x2
ARM GAS  /tmp/ccscnHdD.s 			page 58


 3245 1564 75       		.byte	0x75
 3246 1565 00       		.sleb128 0
 3247 1566 21       		.uleb128 0x21
 3248 1567 02       		.uleb128 0x2
 3249 1568 7D       		.byte	0x7d
 3250 1569 04       		.sleb128 4
 3251 156a 01       		.uleb128 0x1
 3252 156b 31       		.byte	0x31
 3253 156c 21       		.uleb128 0x21
 3254 156d 02       		.uleb128 0x2
 3255 156e 7D       		.byte	0x7d
 3256 156f 00       		.sleb128 0
 3257 1570 02       		.uleb128 0x2
 3258 1571 74       		.byte	0x74
 3259 1572 00       		.sleb128 0
 3260 1573 00       		.byte	0
 3261 1574 00       		.byte	0
 3262 1575 26       		.uleb128 0x26
 3263 1576 55080000 		.4byte	.LASF276
 3264 157a 01       		.byte	0x1
 3265 157b 50       		.byte	0x50
 3266 157c DC090000 		.4byte	.LASF277
 3267 1580 8C000000 		.4byte	0x8c
 3268 1584 00000000 		.4byte	.LFB41
 3269 1588 38000000 		.4byte	.LFE41-.LFB41
 3270 158c 01       		.uleb128 0x1
 3271 158d 9C       		.byte	0x9c
 3272 158e 52160000 		.4byte	0x1652
 3273 1592 27       		.uleb128 0x27
 3274 1593 08060000 		.4byte	.LASF263
 3275 1597 01       		.byte	0x1
 3276 1598 50       		.byte	0x50
 3277 1599 8C000000 		.4byte	0x8c
 3278 159d 88010000 		.4byte	.LLST11
 3279 15a1 27       		.uleb128 0x27
 3280 15a2 B8000000 		.4byte	.LASF264
 3281 15a6 01       		.byte	0x1
 3282 15a7 50       		.byte	0x50
 3283 15a8 8C000000 		.4byte	0x8c
 3284 15ac A9010000 		.4byte	.LLST12
 3285 15b0 27       		.uleb128 0x27
 3286 15b1 F9080000 		.4byte	.LASF278
 3287 15b5 01       		.byte	0x1
 3288 15b6 50       		.byte	0x50
 3289 15b7 6E0E0000 		.4byte	0xe6e
 3290 15bb CA010000 		.4byte	.LLST13
 3291 15bf 27       		.uleb128 0x27
 3292 15c0 2C010000 		.4byte	.LASF279
 3293 15c4 01       		.byte	0x1
 3294 15c5 51       		.byte	0x51
 3295 15c6 8C000000 		.4byte	0x8c
 3296 15ca F7010000 		.4byte	.LLST14
 3297 15ce 28       		.uleb128 0x28
 3298 15cf 08000000 		.4byte	.LBB17
 3299 15d3 26000000 		.4byte	.LBE17-.LBB17
 3300 15d7 29       		.uleb128 0x29
 3301 15d8 72657400 		.ascii	"ret\000"
ARM GAS  /tmp/ccscnHdD.s 			page 59


 3302 15dc 01       		.byte	0x1
 3303 15dd 53       		.byte	0x53
 3304 15de 8C000000 		.4byte	0x8c
 3305 15e2 18020000 		.4byte	.LLST15
 3306 15e6 24       		.uleb128 0x24
 3307 15e7 08000000 		.4byte	.LBB18
 3308 15eb 06000000 		.4byte	.LBE18-.LBB18
 3309 15ef 01160000 		.4byte	0x1601
 3310 15f3 25       		.uleb128 0x25
 3311 15f4 746D7000 		.ascii	"tmp\000"
 3312 15f8 01       		.byte	0x1
 3313 15f9 52       		.byte	0x52
 3314 15fa A2000000 		.4byte	0xa2
 3315 15fe 01       		.uleb128 0x1
 3316 15ff 53       		.byte	0x53
 3317 1600 00       		.byte	0
 3318 1601 24       		.uleb128 0x24
 3319 1602 28000000 		.4byte	.LBB19
 3320 1606 06000000 		.4byte	.LBE19-.LBB19
 3321 160a 1C160000 		.4byte	0x161c
 3322 160e 25       		.uleb128 0x25
 3323 160f 746D7000 		.ascii	"tmp\000"
 3324 1613 01       		.byte	0x1
 3325 1614 58       		.byte	0x58
 3326 1615 A2000000 		.4byte	0xa2
 3327 1619 01       		.uleb128 0x1
 3328 161a 53       		.byte	0x53
 3329 161b 00       		.byte	0
 3330 161c 22       		.uleb128 0x22
 3331 161d 22000000 		.4byte	.LVL37
 3332 1621 DD170000 		.4byte	0x17dd
 3333 1625 21       		.uleb128 0x21
 3334 1626 01       		.uleb128 0x1
 3335 1627 53       		.byte	0x53
 3336 1628 01       		.uleb128 0x1
 3337 1629 31       		.byte	0x31
 3338 162a 21       		.uleb128 0x21
 3339 162b 01       		.uleb128 0x1
 3340 162c 52       		.byte	0x52
 3341 162d 02       		.uleb128 0x2
 3342 162e 76       		.byte	0x76
 3343 162f 00       		.sleb128 0
 3344 1630 21       		.uleb128 0x21
 3345 1631 01       		.uleb128 0x1
 3346 1632 50       		.byte	0x50
 3347 1633 05       		.uleb128 0x5
 3348 1634 03       		.byte	0x3
 3349 1635 00000000 		.4byte	.LANCHOR1
 3350 1639 21       		.uleb128 0x21
 3351 163a 02       		.uleb128 0x2
 3352 163b 7D       		.byte	0x7d
 3353 163c 08       		.sleb128 8
 3354 163d 02       		.uleb128 0x2
 3355 163e 75       		.byte	0x75
 3356 163f 00       		.sleb128 0
 3357 1640 21       		.uleb128 0x21
 3358 1641 02       		.uleb128 0x2
ARM GAS  /tmp/ccscnHdD.s 			page 60


 3359 1642 7D       		.byte	0x7d
 3360 1643 04       		.sleb128 4
 3361 1644 02       		.uleb128 0x2
 3362 1645 74       		.byte	0x74
 3363 1646 00       		.sleb128 0
 3364 1647 21       		.uleb128 0x21
 3365 1648 02       		.uleb128 0x2
 3366 1649 7D       		.byte	0x7d
 3367 164a 00       		.sleb128 0
 3368 164b 03       		.uleb128 0x3
 3369 164c F3       		.byte	0xf3
 3370 164d 01       		.uleb128 0x1
 3371 164e 52       		.byte	0x52
 3372 164f 00       		.byte	0
 3373 1650 00       		.byte	0
 3374 1651 00       		.byte	0
 3375 1652 2B       		.uleb128 0x2b
 3376 1653 31020000 		.4byte	.LASF280
 3377 1657 01       		.byte	0x1
 3378 1658 B4       		.byte	0xb4
 3379 1659 7E000000 		.4byte	0x7e
 3380 165d 00000000 		.4byte	.LFB44
 3381 1661 38000000 		.4byte	.LFE44-.LFB44
 3382 1665 01       		.uleb128 0x1
 3383 1666 9C       		.byte	0x9c
 3384 1667 D5160000 		.4byte	0x16d5
 3385 166b 2C       		.uleb128 0x2c
 3386 166c 08000000 		.4byte	.LVL40
 3387 1670 43180000 		.4byte	0x1843
 3388 1674 2C       		.uleb128 0x2c
 3389 1675 0C000000 		.4byte	.LVL41
 3390 1679 4A180000 		.4byte	0x184a
 3391 167d 2C       		.uleb128 0x2c
 3392 167e 10000000 		.4byte	.LVL42
 3393 1682 FB110000 		.4byte	0x11fb
 3394 1686 20       		.uleb128 0x20
 3395 1687 22000000 		.4byte	.LVL43
 3396 168b 51180000 		.4byte	0x1851
 3397 168f B9160000 		.4byte	0x16b9
 3398 1693 21       		.uleb128 0x21
 3399 1694 01       		.uleb128 0x1
 3400 1695 53       		.byte	0x53
 3401 1696 05       		.uleb128 0x5
 3402 1697 03       		.byte	0x3
 3403 1698 00000000 		.4byte	_ZL7Thread1Pv
 3404 169c 21       		.uleb128 0x21
 3405 169d 01       		.uleb128 0x1
 3406 169e 52       		.byte	0x52
 3407 169f 02       		.uleb128 0x2
 3408 16a0 08       		.byte	0x8
 3409 16a1 40       		.byte	0x40
 3410 16a2 21       		.uleb128 0x21
 3411 16a3 01       		.uleb128 0x1
 3412 16a4 51       		.byte	0x51
 3413 16a5 03       		.uleb128 0x3
 3414 16a6 0A       		.byte	0xa
 3415 16a7 3001     		.2byte	0x130
ARM GAS  /tmp/ccscnHdD.s 			page 61


 3416 16a9 21       		.uleb128 0x21
 3417 16aa 01       		.uleb128 0x1
 3418 16ab 50       		.byte	0x50
 3419 16ac 05       		.uleb128 0x5
 3420 16ad 03       		.byte	0x3
 3421 16ae 00000000 		.4byte	.LANCHOR2
 3422 16b2 21       		.uleb128 0x21
 3423 16b3 02       		.uleb128 0x2
 3424 16b4 7D       		.byte	0x7d
 3425 16b5 00       		.sleb128 0
 3426 16b6 01       		.uleb128 0x1
 3427 16b7 30       		.byte	0x30
 3428 16b8 00       		.byte	0
 3429 16b9 22       		.uleb128 0x22
 3430 16ba 2C000000 		.4byte	.LVL44
 3431 16be C6140000 		.4byte	0x14c6
 3432 16c2 21       		.uleb128 0x21
 3433 16c3 01       		.uleb128 0x1
 3434 16c4 52       		.byte	0x52
 3435 16c5 01       		.uleb128 0x1
 3436 16c6 30       		.byte	0x30
 3437 16c7 21       		.uleb128 0x21
 3438 16c8 01       		.uleb128 0x1
 3439 16c9 51       		.byte	0x51
 3440 16ca 02       		.uleb128 0x2
 3441 16cb 08       		.byte	0x8
 3442 16cc 6B       		.byte	0x6b
 3443 16cd 21       		.uleb128 0x21
 3444 16ce 01       		.uleb128 0x1
 3445 16cf 50       		.byte	0x50
 3446 16d0 02       		.uleb128 0x2
 3447 16d1 08       		.byte	0x8
 3448 16d2 68       		.byte	0x68
 3449 16d3 00       		.byte	0
 3450 16d4 00       		.byte	0
 3451 16d5 2D       		.uleb128 0x2d
 3452 16d6 12070000 		.4byte	.LASF281
 3453 16da 15       		.byte	0x15
 3454 16db CE06     		.2byte	0x6ce
 3455 16dd E1160000 		.4byte	0x16e1
 3456 16e1 05       		.uleb128 0x5
 3457 16e2 7E000000 		.4byte	0x7e
 3458 16e6 2E       		.uleb128 0x2e
 3459 16e7 53443100 		.ascii	"SD1\000"
 3460 16eb 14       		.byte	0x14
 3461 16ec 81       		.byte	0x81
 3462 16ed C50F0000 		.4byte	0xfc5
 3463 16f1 2E       		.uleb128 0x2e
 3464 16f2 53443200 		.ascii	"SD2\000"
 3465 16f6 14       		.byte	0x14
 3466 16f7 85       		.byte	0x85
 3467 16f8 C50F0000 		.4byte	0xfc5
 3468 16fc 2F       		.uleb128 0x2f
 3469 16fd E7060000 		.4byte	.LASF282
 3470 1701 01       		.byte	0x1
 3471 1702 16       		.byte	0x16
 3472 1703 A1110000 		.4byte	0x11a1
ARM GAS  /tmp/ccscnHdD.s 			page 62


 3473 1707 05       		.uleb128 0x5
 3474 1708 03       		.byte	0x3
 3475 1709 00000000 		.4byte	twid_
 3476 170d 06       		.uleb128 0x6
 3477 170e E1100000 		.4byte	0x10e1
 3478 1712 1D170000 		.4byte	0x171d
 3479 1716 07       		.uleb128 0x7
 3480 1717 DE000000 		.4byte	0xde
 3481 171b 01       		.byte	0x1
 3482 171c 00       		.byte	0
 3483 171d 2A       		.uleb128 0x2a
 3484 171e 69060000 		.4byte	.LASF283
 3485 1722 01       		.byte	0x1
 3486 1723 1C       		.byte	0x1c
 3487 1724 2E170000 		.4byte	0x172e
 3488 1728 05       		.uleb128 0x5
 3489 1729 03       		.byte	0x3
 3490 172a 00000000 		.4byte	_ZL4pins
 3491 172e 17       		.uleb128 0x17
 3492 172f 0D170000 		.4byte	0x170d
 3493 1733 06       		.uleb128 0x6
 3494 1734 77000000 		.4byte	0x77
 3495 1738 43170000 		.4byte	0x1743
 3496 173c 07       		.uleb128 0x7
 3497 173d DE000000 		.4byte	0xde
 3498 1741 25       		.byte	0x25
 3499 1742 00       		.byte	0
 3500 1743 2A       		.uleb128 0x2a
 3501 1744 E60B0000 		.4byte	.LASF284
 3502 1748 01       		.byte	0x1
 3503 1749 5C       		.byte	0x5c
 3504 174a 33170000 		.4byte	0x1733
 3505 174e 05       		.uleb128 0x5
 3506 174f 03       		.byte	0x3
 3507 1750 00000000 		.4byte	_ZL9waThread1
 3508 1754 06       		.uleb128 0x6
 3509 1755 77000000 		.4byte	0x77
 3510 1759 64170000 		.4byte	0x1764
 3511 175d 07       		.uleb128 0x7
 3512 175e DE000000 		.4byte	0xde
 3513 1762 95       		.byte	0x95
 3514 1763 00       		.byte	0
 3515 1764 30       		.uleb128 0x30
 3516 1765 6E060000 		.4byte	.LASF299
 3517 1769 01       		.byte	0x1
 3518 176a 6B       		.byte	0x6b
 3519 176b 54170000 		.4byte	0x1754
 3520 176f 31       		.uleb128 0x31
 3521 1770 AB040000 		.4byte	.LASF285
 3522 1774 09       		.byte	0x9
 3523 1775 6901     		.2byte	0x169
 3524 1777 81170000 		.4byte	0x1781
 3525 177b 19       		.uleb128 0x19
 3526 177c B00A0000 		.4byte	0xab0
 3527 1780 00       		.byte	0
 3528 1781 32       		.uleb128 0x32
 3529 1782 2B000000 		.4byte	.LASF288
ARM GAS  /tmp/ccscnHdD.s 			page 63


 3530 1786 11       		.byte	0x11
 3531 1787 DD       		.byte	0xdd
 3532 1788 8C000000 		.4byte	0x8c
 3533 178c 9B170000 		.4byte	0x179b
 3534 1790 19       		.uleb128 0x19
 3535 1791 9B170000 		.4byte	0x179b
 3536 1795 19       		.uleb128 0x19
 3537 1796 A2000000 		.4byte	0xa2
 3538 179a 00       		.byte	0
 3539 179b 13       		.uleb128 0x13
 3540 179c 04       		.byte	0x4
 3541 179d A1170000 		.4byte	0x17a1
 3542 17a1 17       		.uleb128 0x17
 3543 17a2 29110000 		.4byte	0x1129
 3544 17a6 33       		.uleb128 0x33
 3545 17a7 DE000000 		.4byte	.LASF286
 3546 17ab 16       		.byte	0x16
 3547 17ac 44       		.byte	0x44
 3548 17ad C1170000 		.4byte	0x17c1
 3549 17b1 19       		.uleb128 0x19
 3550 17b2 95110000 		.4byte	0x1195
 3551 17b6 19       		.uleb128 0x19
 3552 17b7 A2000000 		.4byte	0xa2
 3553 17bb 19       		.uleb128 0x19
 3554 17bc A2000000 		.4byte	0xa2
 3555 17c0 00       		.byte	0
 3556 17c1 33       		.uleb128 0x33
 3557 17c2 F5020000 		.4byte	.LASF287
 3558 17c6 13       		.byte	0x13
 3559 17c7 46       		.byte	0x46
 3560 17c8 D7170000 		.4byte	0x17d7
 3561 17cc 19       		.uleb128 0x19
 3562 17cd D7170000 		.4byte	0x17d7
 3563 17d1 19       		.uleb128 0x19
 3564 17d2 95110000 		.4byte	0x1195
 3565 17d6 00       		.byte	0
 3566 17d7 13       		.uleb128 0x13
 3567 17d8 04       		.byte	0x4
 3568 17d9 A1110000 		.4byte	0x11a1
 3569 17dd 32       		.uleb128 0x32
 3570 17de 90000000 		.4byte	.LASF289
 3571 17e2 13       		.byte	0x13
 3572 17e3 4A       		.byte	0x4a
 3573 17e4 8C000000 		.4byte	0x8c
 3574 17e8 10180000 		.4byte	0x1810
 3575 17ec 19       		.uleb128 0x19
 3576 17ed D7170000 		.4byte	0x17d7
 3577 17f1 19       		.uleb128 0x19
 3578 17f2 8C000000 		.4byte	0x8c
 3579 17f6 19       		.uleb128 0x19
 3580 17f7 A2000000 		.4byte	0xa2
 3581 17fb 19       		.uleb128 0x19
 3582 17fc 8C000000 		.4byte	0x8c
 3583 1800 19       		.uleb128 0x19
 3584 1801 6E0E0000 		.4byte	0xe6e
 3585 1805 19       		.uleb128 0x19
 3586 1806 A2000000 		.4byte	0xa2
ARM GAS  /tmp/ccscnHdD.s 			page 64


 3587 180a 19       		.uleb128 0x19
 3588 180b 9B110000 		.4byte	0x119b
 3589 180f 00       		.byte	0
 3590 1810 32       		.uleb128 0x32
 3591 1811 CC010000 		.4byte	.LASF290
 3592 1815 13       		.byte	0x13
 3593 1816 53       		.byte	0x53
 3594 1817 8C000000 		.4byte	0x8c
 3595 181b 43180000 		.4byte	0x1843
 3596 181f 19       		.uleb128 0x19
 3597 1820 D7170000 		.4byte	0x17d7
 3598 1824 19       		.uleb128 0x19
 3599 1825 8C000000 		.4byte	0x8c
 3600 1829 19       		.uleb128 0x19
 3601 182a A2000000 		.4byte	0xa2
 3602 182e 19       		.uleb128 0x19
 3603 182f 8C000000 		.4byte	0x8c
 3604 1833 19       		.uleb128 0x19
 3605 1834 6E0E0000 		.4byte	0xe6e
 3606 1838 19       		.uleb128 0x19
 3607 1839 A2000000 		.4byte	0xa2
 3608 183d 19       		.uleb128 0x19
 3609 183e 9B110000 		.4byte	0x119b
 3610 1842 00       		.byte	0
 3611 1843 34       		.uleb128 0x34
 3612 1844 61060000 		.4byte	.LASF291
 3613 1848 17       		.byte	0x17
 3614 1849 A4       		.byte	0xa4
 3615 184a 34       		.uleb128 0x34
 3616 184b C30A0000 		.4byte	.LASF292
 3617 184f 18       		.byte	0x18
 3618 1850 F6       		.byte	0xf6
 3619 1851 35       		.uleb128 0x35
 3620 1852 4F060000 		.4byte	.LASF293
 3621 1856 09       		.byte	0x9
 3622 1857 6401     		.2byte	0x164
 3623 1859 110C0000 		.4byte	0xc11
 3624 185d 19       		.uleb128 0x19
 3625 185e 510C0000 		.4byte	0xc51
 3626 1862 19       		.uleb128 0x19
 3627 1863 580A0000 		.4byte	0xa58
 3628 1867 19       		.uleb128 0x19
 3629 1868 8F0A0000 		.4byte	0xa8f
 3630 186c 19       		.uleb128 0x19
 3631 186d C00D0000 		.4byte	0xdc0
 3632 1871 19       		.uleb128 0x19
 3633 1872 510C0000 		.4byte	0xc51
 3634 1876 00       		.byte	0
 3635 1877 00       		.byte	0
 3636              		.section	.debug_abbrev,"",%progbits
 3637              	.Ldebug_abbrev0:
 3638 0000 01       		.uleb128 0x1
 3639 0001 11       		.uleb128 0x11
 3640 0002 01       		.byte	0x1
 3641 0003 25       		.uleb128 0x25
 3642 0004 0E       		.uleb128 0xe
 3643 0005 13       		.uleb128 0x13
ARM GAS  /tmp/ccscnHdD.s 			page 65


 3644 0006 0B       		.uleb128 0xb
 3645 0007 03       		.uleb128 0x3
 3646 0008 0E       		.uleb128 0xe
 3647 0009 1B       		.uleb128 0x1b
 3648 000a 0E       		.uleb128 0xe
 3649 000b 55       		.uleb128 0x55
 3650 000c 17       		.uleb128 0x17
 3651 000d 11       		.uleb128 0x11
 3652 000e 01       		.uleb128 0x1
 3653 000f 10       		.uleb128 0x10
 3654 0010 17       		.uleb128 0x17
 3655 0011 00       		.byte	0
 3656 0012 00       		.byte	0
 3657 0013 02       		.uleb128 0x2
 3658 0014 24       		.uleb128 0x24
 3659 0015 00       		.byte	0
 3660 0016 0B       		.uleb128 0xb
 3661 0017 0B       		.uleb128 0xb
 3662 0018 3E       		.uleb128 0x3e
 3663 0019 0B       		.uleb128 0xb
 3664 001a 03       		.uleb128 0x3
 3665 001b 0E       		.uleb128 0xe
 3666 001c 00       		.byte	0
 3667 001d 00       		.byte	0
 3668 001e 03       		.uleb128 0x3
 3669 001f 16       		.uleb128 0x16
 3670 0020 00       		.byte	0
 3671 0021 03       		.uleb128 0x3
 3672 0022 0E       		.uleb128 0xe
 3673 0023 3A       		.uleb128 0x3a
 3674 0024 0B       		.uleb128 0xb
 3675 0025 3B       		.uleb128 0x3b
 3676 0026 0B       		.uleb128 0xb
 3677 0027 49       		.uleb128 0x49
 3678 0028 13       		.uleb128 0x13
 3679 0029 00       		.byte	0
 3680 002a 00       		.byte	0
 3681 002b 04       		.uleb128 0x4
 3682 002c 24       		.uleb128 0x24
 3683 002d 00       		.byte	0
 3684 002e 0B       		.uleb128 0xb
 3685 002f 0B       		.uleb128 0xb
 3686 0030 3E       		.uleb128 0x3e
 3687 0031 0B       		.uleb128 0xb
 3688 0032 03       		.uleb128 0x3
 3689 0033 08       		.uleb128 0x8
 3690 0034 00       		.byte	0
 3691 0035 00       		.byte	0
 3692 0036 05       		.uleb128 0x5
 3693 0037 35       		.uleb128 0x35
 3694 0038 00       		.byte	0
 3695 0039 49       		.uleb128 0x49
 3696 003a 13       		.uleb128 0x13
 3697 003b 00       		.byte	0
 3698 003c 00       		.byte	0
 3699 003d 06       		.uleb128 0x6
 3700 003e 01       		.uleb128 0x1
ARM GAS  /tmp/ccscnHdD.s 			page 66


 3701 003f 01       		.byte	0x1
 3702 0040 49       		.uleb128 0x49
 3703 0041 13       		.uleb128 0x13
 3704 0042 01       		.uleb128 0x1
 3705 0043 13       		.uleb128 0x13
 3706 0044 00       		.byte	0
 3707 0045 00       		.byte	0
 3708 0046 07       		.uleb128 0x7
 3709 0047 21       		.uleb128 0x21
 3710 0048 00       		.byte	0
 3711 0049 49       		.uleb128 0x49
 3712 004a 13       		.uleb128 0x13
 3713 004b 2F       		.uleb128 0x2f
 3714 004c 0B       		.uleb128 0xb
 3715 004d 00       		.byte	0
 3716 004e 00       		.byte	0
 3717 004f 08       		.uleb128 0x8
 3718 0050 13       		.uleb128 0x13
 3719 0051 01       		.byte	0x1
 3720 0052 0B       		.uleb128 0xb
 3721 0053 05       		.uleb128 0x5
 3722 0054 3A       		.uleb128 0x3a
 3723 0055 0B       		.uleb128 0xb
 3724 0056 3B       		.uleb128 0x3b
 3725 0057 05       		.uleb128 0x5
 3726 0058 6E       		.uleb128 0x6e
 3727 0059 0E       		.uleb128 0xe
 3728 005a 01       		.uleb128 0x1
 3729 005b 13       		.uleb128 0x13
 3730 005c 00       		.byte	0
 3731 005d 00       		.byte	0
 3732 005e 09       		.uleb128 0x9
 3733 005f 0D       		.uleb128 0xd
 3734 0060 00       		.byte	0
 3735 0061 03       		.uleb128 0x3
 3736 0062 0E       		.uleb128 0xe
 3737 0063 3A       		.uleb128 0x3a
 3738 0064 0B       		.uleb128 0xb
 3739 0065 3B       		.uleb128 0x3b
 3740 0066 05       		.uleb128 0x5
 3741 0067 49       		.uleb128 0x49
 3742 0068 13       		.uleb128 0x13
 3743 0069 38       		.uleb128 0x38
 3744 006a 0B       		.uleb128 0xb
 3745 006b 00       		.byte	0
 3746 006c 00       		.byte	0
 3747 006d 0A       		.uleb128 0xa
 3748 006e 0D       		.uleb128 0xd
 3749 006f 00       		.byte	0
 3750 0070 03       		.uleb128 0x3
 3751 0071 0E       		.uleb128 0xe
 3752 0072 3A       		.uleb128 0x3a
 3753 0073 0B       		.uleb128 0xb
 3754 0074 3B       		.uleb128 0x3b
 3755 0075 05       		.uleb128 0x5
 3756 0076 49       		.uleb128 0x49
 3757 0077 13       		.uleb128 0x13
ARM GAS  /tmp/ccscnHdD.s 			page 67


 3758 0078 38       		.uleb128 0x38
 3759 0079 05       		.uleb128 0x5
 3760 007a 00       		.byte	0
 3761 007b 00       		.byte	0
 3762 007c 0B       		.uleb128 0xb
 3763 007d 16       		.uleb128 0x16
 3764 007e 00       		.byte	0
 3765 007f 03       		.uleb128 0x3
 3766 0080 08       		.uleb128 0x8
 3767 0081 3A       		.uleb128 0x3a
 3768 0082 0B       		.uleb128 0xb
 3769 0083 3B       		.uleb128 0x3b
 3770 0084 05       		.uleb128 0x5
 3771 0085 49       		.uleb128 0x49
 3772 0086 13       		.uleb128 0x13
 3773 0087 00       		.byte	0
 3774 0088 00       		.byte	0
 3775 0089 0C       		.uleb128 0xc
 3776 008a 16       		.uleb128 0x16
 3777 008b 00       		.byte	0
 3778 008c 03       		.uleb128 0x3
 3779 008d 0E       		.uleb128 0xe
 3780 008e 3A       		.uleb128 0x3a
 3781 008f 0B       		.uleb128 0xb
 3782 0090 3B       		.uleb128 0x3b
 3783 0091 05       		.uleb128 0x5
 3784 0092 49       		.uleb128 0x49
 3785 0093 13       		.uleb128 0x13
 3786 0094 00       		.byte	0
 3787 0095 00       		.byte	0
 3788 0096 0D       		.uleb128 0xd
 3789 0097 13       		.uleb128 0x13
 3790 0098 01       		.byte	0x1
 3791 0099 03       		.uleb128 0x3
 3792 009a 0E       		.uleb128 0xe
 3793 009b 0B       		.uleb128 0xb
 3794 009c 0B       		.uleb128 0xb
 3795 009d 3A       		.uleb128 0x3a
 3796 009e 0B       		.uleb128 0xb
 3797 009f 3B       		.uleb128 0x3b
 3798 00a0 0B       		.uleb128 0xb
 3799 00a1 01       		.uleb128 0x1
 3800 00a2 13       		.uleb128 0x13
 3801 00a3 00       		.byte	0
 3802 00a4 00       		.byte	0
 3803 00a5 0E       		.uleb128 0xe
 3804 00a6 17       		.uleb128 0x17
 3805 00a7 01       		.byte	0x1
 3806 00a8 0B       		.uleb128 0xb
 3807 00a9 0B       		.uleb128 0xb
 3808 00aa 3A       		.uleb128 0x3a
 3809 00ab 0B       		.uleb128 0xb
 3810 00ac 3B       		.uleb128 0x3b
 3811 00ad 0B       		.uleb128 0xb
 3812 00ae 01       		.uleb128 0x1
 3813 00af 13       		.uleb128 0x13
 3814 00b0 00       		.byte	0
ARM GAS  /tmp/ccscnHdD.s 			page 68


 3815 00b1 00       		.byte	0
 3816 00b2 0F       		.uleb128 0xf
 3817 00b3 0D       		.uleb128 0xd
 3818 00b4 00       		.byte	0
 3819 00b5 03       		.uleb128 0x3
 3820 00b6 0E       		.uleb128 0xe
 3821 00b7 3A       		.uleb128 0x3a
 3822 00b8 0B       		.uleb128 0xb
 3823 00b9 3B       		.uleb128 0x3b
 3824 00ba 0B       		.uleb128 0xb
 3825 00bb 49       		.uleb128 0x49
 3826 00bc 13       		.uleb128 0x13
 3827 00bd 00       		.byte	0
 3828 00be 00       		.byte	0
 3829 00bf 10       		.uleb128 0x10
 3830 00c0 0D       		.uleb128 0xd
 3831 00c1 00       		.byte	0
 3832 00c2 03       		.uleb128 0x3
 3833 00c3 0E       		.uleb128 0xe
 3834 00c4 3A       		.uleb128 0x3a
 3835 00c5 0B       		.uleb128 0xb
 3836 00c6 3B       		.uleb128 0x3b
 3837 00c7 0B       		.uleb128 0xb
 3838 00c8 49       		.uleb128 0x49
 3839 00c9 13       		.uleb128 0x13
 3840 00ca 38       		.uleb128 0x38
 3841 00cb 0B       		.uleb128 0xb
 3842 00cc 00       		.byte	0
 3843 00cd 00       		.byte	0
 3844 00ce 11       		.uleb128 0x11
 3845 00cf 0D       		.uleb128 0xd
 3846 00d0 00       		.byte	0
 3847 00d1 03       		.uleb128 0x3
 3848 00d2 08       		.uleb128 0x8
 3849 00d3 3A       		.uleb128 0x3a
 3850 00d4 0B       		.uleb128 0xb
 3851 00d5 3B       		.uleb128 0x3b
 3852 00d6 0B       		.uleb128 0xb
 3853 00d7 49       		.uleb128 0x49
 3854 00d8 13       		.uleb128 0x13
 3855 00d9 38       		.uleb128 0x38
 3856 00da 0B       		.uleb128 0xb
 3857 00db 00       		.byte	0
 3858 00dc 00       		.byte	0
 3859 00dd 12       		.uleb128 0x12
 3860 00de 13       		.uleb128 0x13
 3861 00df 01       		.byte	0x1
 3862 00e0 0B       		.uleb128 0xb
 3863 00e1 0B       		.uleb128 0xb
 3864 00e2 3A       		.uleb128 0x3a
 3865 00e3 0B       		.uleb128 0xb
 3866 00e4 3B       		.uleb128 0x3b
 3867 00e5 0B       		.uleb128 0xb
 3868 00e6 6E       		.uleb128 0x6e
 3869 00e7 0E       		.uleb128 0xe
 3870 00e8 01       		.uleb128 0x1
 3871 00e9 13       		.uleb128 0x13
ARM GAS  /tmp/ccscnHdD.s 			page 69


 3872 00ea 00       		.byte	0
 3873 00eb 00       		.byte	0
 3874 00ec 13       		.uleb128 0x13
 3875 00ed 0F       		.uleb128 0xf
 3876 00ee 00       		.byte	0
 3877 00ef 0B       		.uleb128 0xb
 3878 00f0 0B       		.uleb128 0xb
 3879 00f1 49       		.uleb128 0x49
 3880 00f2 13       		.uleb128 0x13
 3881 00f3 00       		.byte	0
 3882 00f4 00       		.byte	0
 3883 00f5 14       		.uleb128 0x14
 3884 00f6 0F       		.uleb128 0xf
 3885 00f7 00       		.byte	0
 3886 00f8 0B       		.uleb128 0xb
 3887 00f9 0B       		.uleb128 0xb
 3888 00fa 00       		.byte	0
 3889 00fb 00       		.byte	0
 3890 00fc 15       		.uleb128 0x15
 3891 00fd 0D       		.uleb128 0xd
 3892 00fe 00       		.byte	0
 3893 00ff 03       		.uleb128 0x3
 3894 0100 08       		.uleb128 0x8
 3895 0101 3A       		.uleb128 0x3a
 3896 0102 0B       		.uleb128 0xb
 3897 0103 3B       		.uleb128 0x3b
 3898 0104 05       		.uleb128 0x5
 3899 0105 49       		.uleb128 0x49
 3900 0106 13       		.uleb128 0x13
 3901 0107 38       		.uleb128 0x38
 3902 0108 0B       		.uleb128 0xb
 3903 0109 00       		.byte	0
 3904 010a 00       		.byte	0
 3905 010b 16       		.uleb128 0x16
 3906 010c 13       		.uleb128 0x13
 3907 010d 01       		.byte	0x1
 3908 010e 03       		.uleb128 0x3
 3909 010f 0E       		.uleb128 0xe
 3910 0110 0B       		.uleb128 0xb
 3911 0111 0B       		.uleb128 0xb
 3912 0112 3A       		.uleb128 0x3a
 3913 0113 0B       		.uleb128 0xb
 3914 0114 3B       		.uleb128 0x3b
 3915 0115 05       		.uleb128 0x5
 3916 0116 01       		.uleb128 0x1
 3917 0117 13       		.uleb128 0x13
 3918 0118 00       		.byte	0
 3919 0119 00       		.byte	0
 3920 011a 17       		.uleb128 0x17
 3921 011b 26       		.uleb128 0x26
 3922 011c 00       		.byte	0
 3923 011d 49       		.uleb128 0x49
 3924 011e 13       		.uleb128 0x13
 3925 011f 00       		.byte	0
 3926 0120 00       		.byte	0
 3927 0121 18       		.uleb128 0x18
 3928 0122 15       		.uleb128 0x15
ARM GAS  /tmp/ccscnHdD.s 			page 70


 3929 0123 01       		.byte	0x1
 3930 0124 49       		.uleb128 0x49
 3931 0125 13       		.uleb128 0x13
 3932 0126 01       		.uleb128 0x1
 3933 0127 13       		.uleb128 0x13
 3934 0128 00       		.byte	0
 3935 0129 00       		.byte	0
 3936 012a 19       		.uleb128 0x19
 3937 012b 05       		.uleb128 0x5
 3938 012c 00       		.byte	0
 3939 012d 49       		.uleb128 0x49
 3940 012e 13       		.uleb128 0x13
 3941 012f 00       		.byte	0
 3942 0130 00       		.byte	0
 3943 0131 1A       		.uleb128 0x1a
 3944 0132 15       		.uleb128 0x15
 3945 0133 01       		.byte	0x1
 3946 0134 01       		.uleb128 0x1
 3947 0135 13       		.uleb128 0x13
 3948 0136 00       		.byte	0
 3949 0137 00       		.byte	0
 3950 0138 1B       		.uleb128 0x1b
 3951 0139 04       		.uleb128 0x4
 3952 013a 01       		.byte	0x1
 3953 013b 0B       		.uleb128 0xb
 3954 013c 0B       		.uleb128 0xb
 3955 013d 3A       		.uleb128 0x3a
 3956 013e 0B       		.uleb128 0xb
 3957 013f 3B       		.uleb128 0x3b
 3958 0140 0B       		.uleb128 0xb
 3959 0141 6E       		.uleb128 0x6e
 3960 0142 0E       		.uleb128 0xe
 3961 0143 01       		.uleb128 0x1
 3962 0144 13       		.uleb128 0x13
 3963 0145 00       		.byte	0
 3964 0146 00       		.byte	0
 3965 0147 1C       		.uleb128 0x1c
 3966 0148 28       		.uleb128 0x28
 3967 0149 00       		.byte	0
 3968 014a 03       		.uleb128 0x3
 3969 014b 0E       		.uleb128 0xe
 3970 014c 1C       		.uleb128 0x1c
 3971 014d 0D       		.uleb128 0xd
 3972 014e 00       		.byte	0
 3973 014f 00       		.byte	0
 3974 0150 1D       		.uleb128 0x1d
 3975 0151 16       		.uleb128 0x16
 3976 0152 00       		.byte	0
 3977 0153 03       		.uleb128 0x3
 3978 0154 08       		.uleb128 0x8
 3979 0155 3A       		.uleb128 0x3a
 3980 0156 0B       		.uleb128 0xb
 3981 0157 3B       		.uleb128 0x3b
 3982 0158 0B       		.uleb128 0xb
 3983 0159 49       		.uleb128 0x49
 3984 015a 13       		.uleb128 0x13
 3985 015b 00       		.byte	0
ARM GAS  /tmp/ccscnHdD.s 			page 71


 3986 015c 00       		.byte	0
 3987 015d 1E       		.uleb128 0x1e
 3988 015e 2E       		.uleb128 0x2e
 3989 015f 01       		.byte	0x1
 3990 0160 03       		.uleb128 0x3
 3991 0161 0E       		.uleb128 0xe
 3992 0162 3A       		.uleb128 0x3a
 3993 0163 0B       		.uleb128 0xb
 3994 0164 3B       		.uleb128 0x3b
 3995 0165 0B       		.uleb128 0xb
 3996 0166 49       		.uleb128 0x49
 3997 0167 13       		.uleb128 0x13
 3998 0168 11       		.uleb128 0x11
 3999 0169 01       		.uleb128 0x1
 4000 016a 12       		.uleb128 0x12
 4001 016b 06       		.uleb128 0x6
 4002 016c 40       		.uleb128 0x40
 4003 016d 18       		.uleb128 0x18
 4004 016e 9742     		.uleb128 0x2117
 4005 0170 19       		.uleb128 0x19
 4006 0171 01       		.uleb128 0x1
 4007 0172 13       		.uleb128 0x13
 4008 0173 00       		.byte	0
 4009 0174 00       		.byte	0
 4010 0175 1F       		.uleb128 0x1f
 4011 0176 05       		.uleb128 0x5
 4012 0177 00       		.byte	0
 4013 0178 03       		.uleb128 0x3
 4014 0179 08       		.uleb128 0x8
 4015 017a 3A       		.uleb128 0x3a
 4016 017b 0B       		.uleb128 0xb
 4017 017c 3B       		.uleb128 0x3b
 4018 017d 0B       		.uleb128 0xb
 4019 017e 49       		.uleb128 0x49
 4020 017f 13       		.uleb128 0x13
 4021 0180 02       		.uleb128 0x2
 4022 0181 17       		.uleb128 0x17
 4023 0182 00       		.byte	0
 4024 0183 00       		.byte	0
 4025 0184 20       		.uleb128 0x20
 4026 0185 898201   		.uleb128 0x4109
 4027 0188 01       		.byte	0x1
 4028 0189 11       		.uleb128 0x11
 4029 018a 01       		.uleb128 0x1
 4030 018b 31       		.uleb128 0x31
 4031 018c 13       		.uleb128 0x13
 4032 018d 01       		.uleb128 0x1
 4033 018e 13       		.uleb128 0x13
 4034 018f 00       		.byte	0
 4035 0190 00       		.byte	0
 4036 0191 21       		.uleb128 0x21
 4037 0192 8A8201   		.uleb128 0x410a
 4038 0195 00       		.byte	0
 4039 0196 02       		.uleb128 0x2
 4040 0197 18       		.uleb128 0x18
 4041 0198 9142     		.uleb128 0x2111
 4042 019a 18       		.uleb128 0x18
ARM GAS  /tmp/ccscnHdD.s 			page 72


 4043 019b 00       		.byte	0
 4044 019c 00       		.byte	0
 4045 019d 22       		.uleb128 0x22
 4046 019e 898201   		.uleb128 0x4109
 4047 01a1 01       		.byte	0x1
 4048 01a2 11       		.uleb128 0x11
 4049 01a3 01       		.uleb128 0x1
 4050 01a4 31       		.uleb128 0x31
 4051 01a5 13       		.uleb128 0x13
 4052 01a6 00       		.byte	0
 4053 01a7 00       		.byte	0
 4054 01a8 23       		.uleb128 0x23
 4055 01a9 2E       		.uleb128 0x2e
 4056 01aa 01       		.byte	0x1
 4057 01ab 3F       		.uleb128 0x3f
 4058 01ac 19       		.uleb128 0x19
 4059 01ad 03       		.uleb128 0x3
 4060 01ae 0E       		.uleb128 0xe
 4061 01af 3A       		.uleb128 0x3a
 4062 01b0 0B       		.uleb128 0xb
 4063 01b1 3B       		.uleb128 0x3b
 4064 01b2 0B       		.uleb128 0xb
 4065 01b3 6E       		.uleb128 0x6e
 4066 01b4 0E       		.uleb128 0xe
 4067 01b5 11       		.uleb128 0x11
 4068 01b6 01       		.uleb128 0x1
 4069 01b7 12       		.uleb128 0x12
 4070 01b8 06       		.uleb128 0x6
 4071 01b9 40       		.uleb128 0x40
 4072 01ba 18       		.uleb128 0x18
 4073 01bb 9742     		.uleb128 0x2117
 4074 01bd 19       		.uleb128 0x19
 4075 01be 01       		.uleb128 0x1
 4076 01bf 13       		.uleb128 0x13
 4077 01c0 00       		.byte	0
 4078 01c1 00       		.byte	0
 4079 01c2 24       		.uleb128 0x24
 4080 01c3 0B       		.uleb128 0xb
 4081 01c4 01       		.byte	0x1
 4082 01c5 11       		.uleb128 0x11
 4083 01c6 01       		.uleb128 0x1
 4084 01c7 12       		.uleb128 0x12
 4085 01c8 06       		.uleb128 0x6
 4086 01c9 01       		.uleb128 0x1
 4087 01ca 13       		.uleb128 0x13
 4088 01cb 00       		.byte	0
 4089 01cc 00       		.byte	0
 4090 01cd 25       		.uleb128 0x25
 4091 01ce 34       		.uleb128 0x34
 4092 01cf 00       		.byte	0
 4093 01d0 03       		.uleb128 0x3
 4094 01d1 08       		.uleb128 0x8
 4095 01d2 3A       		.uleb128 0x3a
 4096 01d3 0B       		.uleb128 0xb
 4097 01d4 3B       		.uleb128 0x3b
 4098 01d5 0B       		.uleb128 0xb
 4099 01d6 49       		.uleb128 0x49
ARM GAS  /tmp/ccscnHdD.s 			page 73


 4100 01d7 13       		.uleb128 0x13
 4101 01d8 02       		.uleb128 0x2
 4102 01d9 18       		.uleb128 0x18
 4103 01da 00       		.byte	0
 4104 01db 00       		.byte	0
 4105 01dc 26       		.uleb128 0x26
 4106 01dd 2E       		.uleb128 0x2e
 4107 01de 01       		.byte	0x1
 4108 01df 3F       		.uleb128 0x3f
 4109 01e0 19       		.uleb128 0x19
 4110 01e1 03       		.uleb128 0x3
 4111 01e2 0E       		.uleb128 0xe
 4112 01e3 3A       		.uleb128 0x3a
 4113 01e4 0B       		.uleb128 0xb
 4114 01e5 3B       		.uleb128 0x3b
 4115 01e6 0B       		.uleb128 0xb
 4116 01e7 6E       		.uleb128 0x6e
 4117 01e8 0E       		.uleb128 0xe
 4118 01e9 49       		.uleb128 0x49
 4119 01ea 13       		.uleb128 0x13
 4120 01eb 11       		.uleb128 0x11
 4121 01ec 01       		.uleb128 0x1
 4122 01ed 12       		.uleb128 0x12
 4123 01ee 06       		.uleb128 0x6
 4124 01ef 40       		.uleb128 0x40
 4125 01f0 18       		.uleb128 0x18
 4126 01f1 9742     		.uleb128 0x2117
 4127 01f3 19       		.uleb128 0x19
 4128 01f4 01       		.uleb128 0x1
 4129 01f5 13       		.uleb128 0x13
 4130 01f6 00       		.byte	0
 4131 01f7 00       		.byte	0
 4132 01f8 27       		.uleb128 0x27
 4133 01f9 05       		.uleb128 0x5
 4134 01fa 00       		.byte	0
 4135 01fb 03       		.uleb128 0x3
 4136 01fc 0E       		.uleb128 0xe
 4137 01fd 3A       		.uleb128 0x3a
 4138 01fe 0B       		.uleb128 0xb
 4139 01ff 3B       		.uleb128 0x3b
 4140 0200 0B       		.uleb128 0xb
 4141 0201 49       		.uleb128 0x49
 4142 0202 13       		.uleb128 0x13
 4143 0203 02       		.uleb128 0x2
 4144 0204 17       		.uleb128 0x17
 4145 0205 00       		.byte	0
 4146 0206 00       		.byte	0
 4147 0207 28       		.uleb128 0x28
 4148 0208 0B       		.uleb128 0xb
 4149 0209 01       		.byte	0x1
 4150 020a 11       		.uleb128 0x11
 4151 020b 01       		.uleb128 0x1
 4152 020c 12       		.uleb128 0x12
 4153 020d 06       		.uleb128 0x6
 4154 020e 00       		.byte	0
 4155 020f 00       		.byte	0
 4156 0210 29       		.uleb128 0x29
ARM GAS  /tmp/ccscnHdD.s 			page 74


 4157 0211 34       		.uleb128 0x34
 4158 0212 00       		.byte	0
 4159 0213 03       		.uleb128 0x3
 4160 0214 08       		.uleb128 0x8
 4161 0215 3A       		.uleb128 0x3a
 4162 0216 0B       		.uleb128 0xb
 4163 0217 3B       		.uleb128 0x3b
 4164 0218 0B       		.uleb128 0xb
 4165 0219 49       		.uleb128 0x49
 4166 021a 13       		.uleb128 0x13
 4167 021b 02       		.uleb128 0x2
 4168 021c 17       		.uleb128 0x17
 4169 021d 00       		.byte	0
 4170 021e 00       		.byte	0
 4171 021f 2A       		.uleb128 0x2a
 4172 0220 34       		.uleb128 0x34
 4173 0221 00       		.byte	0
 4174 0222 03       		.uleb128 0x3
 4175 0223 0E       		.uleb128 0xe
 4176 0224 3A       		.uleb128 0x3a
 4177 0225 0B       		.uleb128 0xb
 4178 0226 3B       		.uleb128 0x3b
 4179 0227 0B       		.uleb128 0xb
 4180 0228 49       		.uleb128 0x49
 4181 0229 13       		.uleb128 0x13
 4182 022a 02       		.uleb128 0x2
 4183 022b 18       		.uleb128 0x18
 4184 022c 00       		.byte	0
 4185 022d 00       		.byte	0
 4186 022e 2B       		.uleb128 0x2b
 4187 022f 2E       		.uleb128 0x2e
 4188 0230 01       		.byte	0x1
 4189 0231 3F       		.uleb128 0x3f
 4190 0232 19       		.uleb128 0x19
 4191 0233 03       		.uleb128 0x3
 4192 0234 0E       		.uleb128 0xe
 4193 0235 3A       		.uleb128 0x3a
 4194 0236 0B       		.uleb128 0xb
 4195 0237 3B       		.uleb128 0x3b
 4196 0238 0B       		.uleb128 0xb
 4197 0239 49       		.uleb128 0x49
 4198 023a 13       		.uleb128 0x13
 4199 023b 11       		.uleb128 0x11
 4200 023c 01       		.uleb128 0x1
 4201 023d 12       		.uleb128 0x12
 4202 023e 06       		.uleb128 0x6
 4203 023f 40       		.uleb128 0x40
 4204 0240 18       		.uleb128 0x18
 4205 0241 9742     		.uleb128 0x2117
 4206 0243 19       		.uleb128 0x19
 4207 0244 01       		.uleb128 0x1
 4208 0245 13       		.uleb128 0x13
 4209 0246 00       		.byte	0
 4210 0247 00       		.byte	0
 4211 0248 2C       		.uleb128 0x2c
 4212 0249 898201   		.uleb128 0x4109
 4213 024c 00       		.byte	0
ARM GAS  /tmp/ccscnHdD.s 			page 75


 4214 024d 11       		.uleb128 0x11
 4215 024e 01       		.uleb128 0x1
 4216 024f 31       		.uleb128 0x31
 4217 0250 13       		.uleb128 0x13
 4218 0251 00       		.byte	0
 4219 0252 00       		.byte	0
 4220 0253 2D       		.uleb128 0x2d
 4221 0254 34       		.uleb128 0x34
 4222 0255 00       		.byte	0
 4223 0256 03       		.uleb128 0x3
 4224 0257 0E       		.uleb128 0xe
 4225 0258 3A       		.uleb128 0x3a
 4226 0259 0B       		.uleb128 0xb
 4227 025a 3B       		.uleb128 0x3b
 4228 025b 05       		.uleb128 0x5
 4229 025c 49       		.uleb128 0x49
 4230 025d 13       		.uleb128 0x13
 4231 025e 3F       		.uleb128 0x3f
 4232 025f 19       		.uleb128 0x19
 4233 0260 3C       		.uleb128 0x3c
 4234 0261 19       		.uleb128 0x19
 4235 0262 00       		.byte	0
 4236 0263 00       		.byte	0
 4237 0264 2E       		.uleb128 0x2e
 4238 0265 34       		.uleb128 0x34
 4239 0266 00       		.byte	0
 4240 0267 03       		.uleb128 0x3
 4241 0268 08       		.uleb128 0x8
 4242 0269 3A       		.uleb128 0x3a
 4243 026a 0B       		.uleb128 0xb
 4244 026b 3B       		.uleb128 0x3b
 4245 026c 0B       		.uleb128 0xb
 4246 026d 49       		.uleb128 0x49
 4247 026e 13       		.uleb128 0x13
 4248 026f 3F       		.uleb128 0x3f
 4249 0270 19       		.uleb128 0x19
 4250 0271 3C       		.uleb128 0x3c
 4251 0272 19       		.uleb128 0x19
 4252 0273 00       		.byte	0
 4253 0274 00       		.byte	0
 4254 0275 2F       		.uleb128 0x2f
 4255 0276 34       		.uleb128 0x34
 4256 0277 00       		.byte	0
 4257 0278 03       		.uleb128 0x3
 4258 0279 0E       		.uleb128 0xe
 4259 027a 3A       		.uleb128 0x3a
 4260 027b 0B       		.uleb128 0xb
 4261 027c 3B       		.uleb128 0x3b
 4262 027d 0B       		.uleb128 0xb
 4263 027e 49       		.uleb128 0x49
 4264 027f 13       		.uleb128 0x13
 4265 0280 3F       		.uleb128 0x3f
 4266 0281 19       		.uleb128 0x19
 4267 0282 02       		.uleb128 0x2
 4268 0283 18       		.uleb128 0x18
 4269 0284 00       		.byte	0
 4270 0285 00       		.byte	0
ARM GAS  /tmp/ccscnHdD.s 			page 76


 4271 0286 30       		.uleb128 0x30
 4272 0287 34       		.uleb128 0x34
 4273 0288 00       		.byte	0
 4274 0289 03       		.uleb128 0x3
 4275 028a 0E       		.uleb128 0xe
 4276 028b 3A       		.uleb128 0x3a
 4277 028c 0B       		.uleb128 0xb
 4278 028d 3B       		.uleb128 0x3b
 4279 028e 0B       		.uleb128 0xb
 4280 028f 49       		.uleb128 0x49
 4281 0290 13       		.uleb128 0x13
 4282 0291 00       		.byte	0
 4283 0292 00       		.byte	0
 4284 0293 31       		.uleb128 0x31
 4285 0294 2E       		.uleb128 0x2e
 4286 0295 01       		.byte	0x1
 4287 0296 3F       		.uleb128 0x3f
 4288 0297 19       		.uleb128 0x19
 4289 0298 03       		.uleb128 0x3
 4290 0299 0E       		.uleb128 0xe
 4291 029a 3A       		.uleb128 0x3a
 4292 029b 0B       		.uleb128 0xb
 4293 029c 3B       		.uleb128 0x3b
 4294 029d 05       		.uleb128 0x5
 4295 029e 3C       		.uleb128 0x3c
 4296 029f 19       		.uleb128 0x19
 4297 02a0 01       		.uleb128 0x1
 4298 02a1 13       		.uleb128 0x13
 4299 02a2 00       		.byte	0
 4300 02a3 00       		.byte	0
 4301 02a4 32       		.uleb128 0x32
 4302 02a5 2E       		.uleb128 0x2e
 4303 02a6 01       		.byte	0x1
 4304 02a7 3F       		.uleb128 0x3f
 4305 02a8 19       		.uleb128 0x19
 4306 02a9 03       		.uleb128 0x3
 4307 02aa 0E       		.uleb128 0xe
 4308 02ab 3A       		.uleb128 0x3a
 4309 02ac 0B       		.uleb128 0xb
 4310 02ad 3B       		.uleb128 0x3b
 4311 02ae 0B       		.uleb128 0xb
 4312 02af 49       		.uleb128 0x49
 4313 02b0 13       		.uleb128 0x13
 4314 02b1 3C       		.uleb128 0x3c
 4315 02b2 19       		.uleb128 0x19
 4316 02b3 01       		.uleb128 0x1
 4317 02b4 13       		.uleb128 0x13
 4318 02b5 00       		.byte	0
 4319 02b6 00       		.byte	0
 4320 02b7 33       		.uleb128 0x33
 4321 02b8 2E       		.uleb128 0x2e
 4322 02b9 01       		.byte	0x1
 4323 02ba 3F       		.uleb128 0x3f
 4324 02bb 19       		.uleb128 0x19
 4325 02bc 03       		.uleb128 0x3
 4326 02bd 0E       		.uleb128 0xe
 4327 02be 3A       		.uleb128 0x3a
ARM GAS  /tmp/ccscnHdD.s 			page 77


 4328 02bf 0B       		.uleb128 0xb
 4329 02c0 3B       		.uleb128 0x3b
 4330 02c1 0B       		.uleb128 0xb
 4331 02c2 3C       		.uleb128 0x3c
 4332 02c3 19       		.uleb128 0x19
 4333 02c4 01       		.uleb128 0x1
 4334 02c5 13       		.uleb128 0x13
 4335 02c6 00       		.byte	0
 4336 02c7 00       		.byte	0
 4337 02c8 34       		.uleb128 0x34
 4338 02c9 2E       		.uleb128 0x2e
 4339 02ca 00       		.byte	0
 4340 02cb 3F       		.uleb128 0x3f
 4341 02cc 19       		.uleb128 0x19
 4342 02cd 03       		.uleb128 0x3
 4343 02ce 0E       		.uleb128 0xe
 4344 02cf 3A       		.uleb128 0x3a
 4345 02d0 0B       		.uleb128 0xb
 4346 02d1 3B       		.uleb128 0x3b
 4347 02d2 0B       		.uleb128 0xb
 4348 02d3 3C       		.uleb128 0x3c
 4349 02d4 19       		.uleb128 0x19
 4350 02d5 00       		.byte	0
 4351 02d6 00       		.byte	0
 4352 02d7 35       		.uleb128 0x35
 4353 02d8 2E       		.uleb128 0x2e
 4354 02d9 01       		.byte	0x1
 4355 02da 3F       		.uleb128 0x3f
 4356 02db 19       		.uleb128 0x19
 4357 02dc 03       		.uleb128 0x3
 4358 02dd 0E       		.uleb128 0xe
 4359 02de 3A       		.uleb128 0x3a
 4360 02df 0B       		.uleb128 0xb
 4361 02e0 3B       		.uleb128 0x3b
 4362 02e1 05       		.uleb128 0x5
 4363 02e2 49       		.uleb128 0x49
 4364 02e3 13       		.uleb128 0x13
 4365 02e4 3C       		.uleb128 0x3c
 4366 02e5 19       		.uleb128 0x19
 4367 02e6 00       		.byte	0
 4368 02e7 00       		.byte	0
 4369 02e8 00       		.byte	0
 4370              		.section	.debug_loc,"",%progbits
 4371              	.Ldebug_loc0:
 4372              	.LLST0:
 4373 0000 00000000 		.4byte	.LVL0
 4374 0004 0A000000 		.4byte	.LVL1
 4375 0008 0100     		.2byte	0x1
 4376 000a 50       		.byte	0x50
 4377 000b 0A000000 		.4byte	.LVL1
 4378 000f 24000000 		.4byte	.LFE42
 4379 0013 0400     		.2byte	0x4
 4380 0015 F3       		.byte	0xf3
 4381 0016 01       		.uleb128 0x1
 4382 0017 50       		.byte	0x50
 4383 0018 9F       		.byte	0x9f
 4384 0019 00000000 		.4byte	0
ARM GAS  /tmp/ccscnHdD.s 			page 78


 4385 001d 00000000 		.4byte	0
 4386              	.LLST1:
 4387 0021 00000000 		.4byte	.LVL7
 4388 0025 1E000000 		.4byte	.LVL9
 4389 0029 0100     		.2byte	0x1
 4390 002b 50       		.byte	0x50
 4391 002c 1E000000 		.4byte	.LVL9
 4392 0030 38000000 		.4byte	.LFE37
 4393 0034 0400     		.2byte	0x4
 4394 0036 F3       		.byte	0xf3
 4395 0037 01       		.uleb128 0x1
 4396 0038 50       		.byte	0x50
 4397 0039 9F       		.byte	0x9f
 4398 003a 00000000 		.4byte	0
 4399 003e 00000000 		.4byte	0
 4400              	.LLST2:
 4401 0042 00000000 		.4byte	.LVL7
 4402 0046 16000000 		.4byte	.LVL8
 4403 004a 0100     		.2byte	0x1
 4404 004c 51       		.byte	0x51
 4405 004d 16000000 		.4byte	.LVL8
 4406 0051 38000000 		.4byte	.LFE37
 4407 0055 0400     		.2byte	0x4
 4408 0057 F3       		.byte	0xf3
 4409 0058 01       		.uleb128 0x1
 4410 0059 51       		.byte	0x51
 4411 005a 9F       		.byte	0x9f
 4412 005b 00000000 		.4byte	0
 4413 005f 00000000 		.4byte	0
 4414              	.LLST3:
 4415 0063 28000000 		.4byte	.LVL11
 4416 0067 34000000 		.4byte	.LVL12
 4417 006b 0100     		.2byte	0x1
 4418 006d 56       		.byte	0x56
 4419 006e 00000000 		.4byte	0
 4420 0072 00000000 		.4byte	0
 4421              	.LLST4:
 4422 0076 00000000 		.4byte	.LVL13
 4423 007a 22000000 		.4byte	.LVL16
 4424 007e 0100     		.2byte	0x1
 4425 0080 50       		.byte	0x50
 4426 0081 22000000 		.4byte	.LVL16
 4427 0085 34000000 		.4byte	.LFE38
 4428 0089 0400     		.2byte	0x4
 4429 008b F3       		.byte	0xf3
 4430 008c 01       		.uleb128 0x1
 4431 008d 50       		.byte	0x50
 4432 008e 9F       		.byte	0x9f
 4433 008f 00000000 		.4byte	0
 4434 0093 00000000 		.4byte	0
 4435              	.LLST5:
 4436 0097 00000000 		.4byte	.LVL13
 4437 009b 18000000 		.4byte	.LVL14
 4438 009f 0100     		.2byte	0x1
 4439 00a1 51       		.byte	0x51
 4440 00a2 18000000 		.4byte	.LVL14
 4441 00a6 20000000 		.4byte	.LVL15
ARM GAS  /tmp/ccscnHdD.s 			page 79


 4442 00aa 0200     		.2byte	0x2
 4443 00ac 72       		.byte	0x72
 4444 00ad 00       		.sleb128 0
 4445 00ae 20000000 		.4byte	.LVL15
 4446 00b2 25000000 		.4byte	.LVL17-1
 4447 00b6 0300     		.2byte	0x3
 4448 00b8 7D       		.byte	0x7d
 4449 00b9 00       		.sleb128 0
 4450 00ba 06       		.byte	0x6
 4451 00bb 25000000 		.4byte	.LVL17-1
 4452 00bf 2E000000 		.4byte	.LVL18
 4453 00c3 0200     		.2byte	0x2
 4454 00c5 91       		.byte	0x91
 4455 00c6 77       		.sleb128 -9
 4456 00c7 2E000000 		.4byte	.LVL18
 4457 00cb 30000000 		.4byte	.LVL19
 4458 00cf 0200     		.2byte	0x2
 4459 00d1 7D       		.byte	0x7d
 4460 00d2 7F       		.sleb128 -1
 4461 00d3 30000000 		.4byte	.LVL19
 4462 00d7 34000000 		.4byte	.LFE38
 4463 00db 0200     		.2byte	0x2
 4464 00dd 7D       		.byte	0x7d
 4465 00de 77       		.sleb128 -9
 4466 00df 00000000 		.4byte	0
 4467 00e3 00000000 		.4byte	0
 4468              	.LLST6:
 4469 00e7 00000000 		.4byte	.LVL20
 4470 00eb 1E000000 		.4byte	.LVL21
 4471 00ef 0100     		.2byte	0x1
 4472 00f1 50       		.byte	0x50
 4473 00f2 1E000000 		.4byte	.LVL21
 4474 00f6 38000000 		.4byte	.LFE39
 4475 00fa 0400     		.2byte	0x4
 4476 00fc F3       		.byte	0xf3
 4477 00fd 01       		.uleb128 0x1
 4478 00fe 50       		.byte	0x50
 4479 00ff 9F       		.byte	0x9f
 4480 0100 00000000 		.4byte	0
 4481 0104 00000000 		.4byte	0
 4482              	.LLST7:
 4483 0108 28000000 		.4byte	.LVL23
 4484 010c 34000000 		.4byte	.LVL24
 4485 0110 0100     		.2byte	0x1
 4486 0112 55       		.byte	0x55
 4487 0113 00000000 		.4byte	0
 4488 0117 00000000 		.4byte	0
 4489              	.LLST8:
 4490 011b 00000000 		.4byte	.LVL25
 4491 011f 22000000 		.4byte	.LVL28
 4492 0123 0100     		.2byte	0x1
 4493 0125 50       		.byte	0x50
 4494 0126 22000000 		.4byte	.LVL28
 4495 012a 34000000 		.4byte	.LFE40
 4496 012e 0400     		.2byte	0x4
 4497 0130 F3       		.byte	0xf3
 4498 0131 01       		.uleb128 0x1
ARM GAS  /tmp/ccscnHdD.s 			page 80


 4499 0132 50       		.byte	0x50
 4500 0133 9F       		.byte	0x9f
 4501 0134 00000000 		.4byte	0
 4502 0138 00000000 		.4byte	0
 4503              	.LLST9:
 4504 013c 00000000 		.4byte	.LVL25
 4505 0140 18000000 		.4byte	.LVL26
 4506 0144 0100     		.2byte	0x1
 4507 0146 51       		.byte	0x51
 4508 0147 18000000 		.4byte	.LVL26
 4509 014b 34000000 		.4byte	.LFE40
 4510 014f 0400     		.2byte	0x4
 4511 0151 F3       		.byte	0xf3
 4512 0152 01       		.uleb128 0x1
 4513 0153 51       		.byte	0x51
 4514 0154 9F       		.byte	0x9f
 4515 0155 00000000 		.4byte	0
 4516 0159 00000000 		.4byte	0
 4517              	.LLST10:
 4518 015d 00000000 		.4byte	.LVL25
 4519 0161 1E000000 		.4byte	.LVL27
 4520 0165 0100     		.2byte	0x1
 4521 0167 52       		.byte	0x52
 4522 0168 1E000000 		.4byte	.LVL27
 4523 016c 30000000 		.4byte	.LVL30
 4524 0170 0200     		.2byte	0x2
 4525 0172 74       		.byte	0x74
 4526 0173 00       		.sleb128 0
 4527 0174 30000000 		.4byte	.LVL30
 4528 0178 34000000 		.4byte	.LFE40
 4529 017c 0200     		.2byte	0x2
 4530 017e 7D       		.byte	0x7d
 4531 017f 6F       		.sleb128 -17
 4532 0180 00000000 		.4byte	0
 4533 0184 00000000 		.4byte	0
 4534              	.LLST11:
 4535 0188 00000000 		.4byte	.LVL31
 4536 018c 1E000000 		.4byte	.LVL36
 4537 0190 0100     		.2byte	0x1
 4538 0192 50       		.byte	0x50
 4539 0193 1E000000 		.4byte	.LVL36
 4540 0197 38000000 		.4byte	.LFE41
 4541 019b 0400     		.2byte	0x4
 4542 019d F3       		.byte	0xf3
 4543 019e 01       		.uleb128 0x1
 4544 019f 50       		.byte	0x50
 4545 01a0 9F       		.byte	0x9f
 4546 01a1 00000000 		.4byte	0
 4547 01a5 00000000 		.4byte	0
 4548              	.LLST12:
 4549 01a9 00000000 		.4byte	.LVL31
 4550 01ad 16000000 		.4byte	.LVL34
 4551 01b1 0100     		.2byte	0x1
 4552 01b3 51       		.byte	0x51
 4553 01b4 16000000 		.4byte	.LVL34
 4554 01b8 38000000 		.4byte	.LFE41
 4555 01bc 0400     		.2byte	0x4
ARM GAS  /tmp/ccscnHdD.s 			page 81


 4556 01be F3       		.byte	0xf3
 4557 01bf 01       		.uleb128 0x1
 4558 01c0 51       		.byte	0x51
 4559 01c1 9F       		.byte	0x9f
 4560 01c2 00000000 		.4byte	0
 4561 01c6 00000000 		.4byte	0
 4562              	.LLST13:
 4563 01ca 00000000 		.4byte	.LVL31
 4564 01ce 18000000 		.4byte	.LVL35
 4565 01d2 0100     		.2byte	0x1
 4566 01d4 52       		.byte	0x52
 4567 01d5 18000000 		.4byte	.LVL35
 4568 01d9 21000000 		.4byte	.LVL37-1
 4569 01dd 0200     		.2byte	0x2
 4570 01df 7D       		.byte	0x7d
 4571 01e0 00       		.sleb128 0
 4572 01e1 21000000 		.4byte	.LVL37-1
 4573 01e5 38000000 		.4byte	.LFE41
 4574 01e9 0400     		.2byte	0x4
 4575 01eb F3       		.byte	0xf3
 4576 01ec 01       		.uleb128 0x1
 4577 01ed 52       		.byte	0x52
 4578 01ee 9F       		.byte	0x9f
 4579 01ef 00000000 		.4byte	0
 4580 01f3 00000000 		.4byte	0
 4581              	.LLST14:
 4582 01f7 00000000 		.4byte	.LVL31
 4583 01fb 0A000000 		.4byte	.LVL32
 4584 01ff 0100     		.2byte	0x1
 4585 0201 53       		.byte	0x53
 4586 0202 0A000000 		.4byte	.LVL32
 4587 0206 38000000 		.4byte	.LFE41
 4588 020a 0400     		.2byte	0x4
 4589 020c F3       		.byte	0xf3
 4590 020d 01       		.uleb128 0x1
 4591 020e 53       		.byte	0x53
 4592 020f 9F       		.byte	0x9f
 4593 0210 00000000 		.4byte	0
 4594 0214 00000000 		.4byte	0
 4595              	.LLST15:
 4596 0218 0E000000 		.4byte	.LVL33
 4597 021c 28000000 		.4byte	.LVL38
 4598 0220 0200     		.2byte	0x2
 4599 0222 30       		.byte	0x30
 4600 0223 9F       		.byte	0x9f
 4601 0224 28000000 		.4byte	.LVL38
 4602 0228 34000000 		.4byte	.LVL39
 4603 022c 0100     		.2byte	0x1
 4604 022e 54       		.byte	0x54
 4605 022f 34000000 		.4byte	.LVL39
 4606 0233 38000000 		.4byte	.LFE41
 4607 0237 0100     		.2byte	0x1
 4608 0239 50       		.byte	0x50
 4609 023a 00000000 		.4byte	0
 4610 023e 00000000 		.4byte	0
 4611              		.section	.debug_aranges,"",%progbits
 4612 0000 54000000 		.4byte	0x54
ARM GAS  /tmp/ccscnHdD.s 			page 82


 4613 0004 0200     		.2byte	0x2
 4614 0006 00000000 		.4byte	.Ldebug_info0
 4615 000a 04       		.byte	0x4
 4616 000b 00       		.byte	0
 4617 000c 0000     		.2byte	0
 4618 000e 0000     		.2byte	0
 4619 0010 00000000 		.4byte	.LFB42
 4620 0014 24000000 		.4byte	.LFE42-.LFB42
 4621 0018 00000000 		.4byte	.LFB36
 4622 001c 60000000 		.4byte	.LFE36-.LFB36
 4623 0020 00000000 		.4byte	.LFB37
 4624 0024 38000000 		.4byte	.LFE37-.LFB37
 4625 0028 00000000 		.4byte	.LFB38
 4626 002c 34000000 		.4byte	.LFE38-.LFB38
 4627 0030 00000000 		.4byte	.LFB39
 4628 0034 38000000 		.4byte	.LFE39-.LFB39
 4629 0038 00000000 		.4byte	.LFB40
 4630 003c 34000000 		.4byte	.LFE40-.LFB40
 4631 0040 00000000 		.4byte	.LFB41
 4632 0044 38000000 		.4byte	.LFE41-.LFB41
 4633 0048 00000000 		.4byte	.LFB44
 4634 004c 38000000 		.4byte	.LFE44-.LFB44
 4635 0050 00000000 		.4byte	0
 4636 0054 00000000 		.4byte	0
 4637              		.section	.debug_ranges,"",%progbits
 4638              	.Ldebug_ranges0:
 4639 0000 00000000 		.4byte	.LFB42
 4640 0004 24000000 		.4byte	.LFE42
 4641 0008 00000000 		.4byte	.LFB36
 4642 000c 60000000 		.4byte	.LFE36
 4643 0010 00000000 		.4byte	.LFB37
 4644 0014 38000000 		.4byte	.LFE37
 4645 0018 00000000 		.4byte	.LFB38
 4646 001c 34000000 		.4byte	.LFE38
 4647 0020 00000000 		.4byte	.LFB39
 4648 0024 38000000 		.4byte	.LFE39
 4649 0028 00000000 		.4byte	.LFB40
 4650 002c 34000000 		.4byte	.LFE40
 4651 0030 00000000 		.4byte	.LFB41
 4652 0034 38000000 		.4byte	.LFE41
 4653 0038 00000000 		.4byte	.LFB44
 4654 003c 38000000 		.4byte	.LFE44
 4655 0040 00000000 		.4byte	0
 4656 0044 00000000 		.4byte	0
 4657              		.section	.debug_line,"",%progbits
 4658              	.Ldebug_line0:
 4659 0000 2F040000 		.section	.debug_str,"MS",%progbits,1
 4659      02004C03 
 4659      00000201 
 4659      FB0E0D00 
 4659      01010101 
 4660              	.LASF52:
 4661 0000 50494F5F 		.ascii	"PIO_IFSCSR\000"
 4661      49465343 
 4661      535200
 4662              	.LASF298:
 4663 000b 54687265 		.ascii	"Thread1\000"
ARM GAS  /tmp/ccscnHdD.s 			page 83


 4663      61643100 
 4664              	.LASF109:
 4665 0013 504D435F 		.ascii	"PMC_USB\000"
 4665      55534200 
 4666              	.LASF116:
 4667 001b 504D435F 		.ascii	"PMC_FSPR\000"
 4667      46535052 
 4667      00
 4668              	.LASF167:
 4669 0024 73697A65 		.ascii	"size_t\000"
 4669      5F7400
 4670              	.LASF288:
 4671 002b 50494F5F 		.ascii	"PIO_Configure\000"
 4671      436F6E66 
 4671      69677572 
 4671      6500
 4672              	.LASF19:
 4673 0039 73697A65 		.ascii	"sizetype\000"
 4673      74797065 
 4673      00
 4674              	.LASF175:
 4675 0042 73797374 		.ascii	"systime_t\000"
 4675      696D655F 
 4675      7400
 4676              	.LASF191:
 4677 004c 705F7469 		.ascii	"p_time\000"
 4677      6D6500
 4678              	.LASF184:
 4679 0053 705F6374 		.ascii	"p_ctx\000"
 4679      7800
 4680              	.LASF172:
 4681 0059 74707269 		.ascii	"tprio_t\000"
 4681      6F5F7400 
 4682              	.LASF107:
 4683 0061 434B4752 		.ascii	"CKGR_PLLBR\000"
 4683      5F504C4C 
 4683      425200
 4684              	.LASF193:
 4685 006c 705F6D73 		.ascii	"p_msgqueue\000"
 4685      67717565 
 4685      756500
 4686              	.LASF13:
 4687 0077 696E7433 		.ascii	"int32_t\000"
 4687      325F7400 
 4688              	.LASF247:
 4689 007f 77726974 		.ascii	"writet\000"
 4689      657400
 4690              	.LASF64:
 4691 0086 50494F5F 		.ascii	"PIO_AIMMR\000"
 4691      41494D4D 
 4691      5200
 4692              	.LASF289:
 4693 0090 54574944 		.ascii	"TWID_Read\000"
 4693      5F526561 
 4693      6400
 4694              	.LASF150:
 4695 009a 55415254 		.ascii	"UART_IDR\000"
ARM GAS  /tmp/ccscnHdD.s 			page 84


 4695      5F494452 
 4695      00
 4696              	.LASF17:
 4697 00a3 576F5265 		.ascii	"WoReg\000"
 4697      6700
 4698              	.LASF75:
 4699 00a9 50494F5F 		.ascii	"PIO_WPMR\000"
 4699      57504D52 
 4699      00
 4700              	.LASF243:
 4701 00b2 77726974 		.ascii	"write\000"
 4701      6500
 4702              	.LASF264:
 4703 00b8 73756241 		.ascii	"subAddress\000"
 4703      64647265 
 4703      737300
 4704              	.LASF145:
 4705 00c3 5457495F 		.ascii	"TWI_PTSR\000"
 4705      50545352 
 4705      00
 4706              	.LASF152:
 4707 00cc 55415254 		.ascii	"UART_SR\000"
 4707      5F535200 
 4708              	.LASF84:
 4709 00d4 50494F5F 		.ascii	"PIO_PCISR\000"
 4709      50434953 
 4709      5200
 4710              	.LASF286:
 4711 00de 5457495F 		.ascii	"TWI_ConfigureMaster\000"
 4711      436F6E66 
 4711      69677572 
 4711      654D6173 
 4711      74657200 
 4712              	.LASF149:
 4713 00f2 55415254 		.ascii	"UART_IER\000"
 4713      5F494552 
 4713      00
 4714              	.LASF252:
 4715 00fb 74797065 		.ascii	"type\000"
 4715      00
 4716              	.LASF119:
 4717 0100 504D435F 		.ascii	"PMC_WPSR\000"
 4717      57505352 
 4717      00
 4718              	.LASF105:
 4719 0109 434B4752 		.ascii	"CKGR_MCFR\000"
 4719      5F4D4346 
 4719      5200
 4720              	.LASF88:
 4721 0113 50494F5F 		.ascii	"PIO_TPR\000"
 4721      54505200 
 4722              	.LASF130:
 4723 011b 5457495F 		.ascii	"TWI_SR\000"
 4723      535200
 4724              	.LASF164:
 4725 0122 55415254 		.ascii	"UART_PTCR\000"
 4725      5F505443 
ARM GAS  /tmp/ccscnHdD.s 			page 85


 4725      5200
 4726              	.LASF279:
 4727 012c 636F756E 		.ascii	"count\000"
 4727      7400
 4728              	.LASF53:
 4729 0132 50494F5F 		.ascii	"PIO_SCDR\000"
 4729      53434452 
 4729      00
 4730              	.LASF178:
 4731 013b 65786974 		.ascii	"exitcode\000"
 4731      636F6465 
 4731      00
 4732              	.LASF4:
 4733 0144 5F5F7569 		.ascii	"__uint8_t\000"
 4733      6E74385F 
 4733      7400
 4734              	.LASF132:
 4735 014e 5457495F 		.ascii	"TWI_IDR\000"
 4735      49445200 
 4736              	.LASF222:
 4737 0156 715F746F 		.ascii	"q_top\000"
 4737      7000
 4738              	.LASF59:
 4739 015c 50494F5F 		.ascii	"PIO_OWDR\000"
 4739      4F574452 
 4739      00
 4740              	.LASF248:
 4741 0165 72656164 		.ascii	"readt\000"
 4741      7400
 4742              	.LASF275:
 4743 016b 5F5A3133 		.ascii	"_Z13I2CWriteByteshhh\000"
 4743      49324357 
 4743      72697465 
 4743      42797465 
 4743      73686868 
 4744              	.LASF221:
 4745 0180 715F6275 		.ascii	"q_buffer\000"
 4745      66666572 
 4745      00
 4746              	.LASF112:
 4747 0189 504D435F 		.ascii	"PMC_IDR\000"
 4747      49445200 
 4748              	.LASF225:
 4749 0191 715F6E6F 		.ascii	"q_notify\000"
 4749      74696679 
 4749      00
 4750              	.LASF54:
 4751 019a 50494F5F 		.ascii	"PIO_PPDDR\000"
 4751      50504444 
 4751      5200
 4752              	.LASF185:
 4753 01a4 705F6E65 		.ascii	"p_newer\000"
 4753      77657200 
 4754              	.LASF6:
 4755 01ac 6C6F6E67 		.ascii	"long int\000"
 4755      20696E74 
 4755      00
ARM GAS  /tmp/ccscnHdD.s 			page 86


 4756              	.LASF138:
 4757 01b5 5457495F 		.ascii	"TWI_TPR\000"
 4757      54505200 
 4758              	.LASF181:
 4759 01bd 705F6E65 		.ascii	"p_next\000"
 4759      787400
 4760              	.LASF224:
 4761 01c4 715F7264 		.ascii	"q_rdptr\000"
 4761      70747200 
 4762              	.LASF290:
 4763 01cc 54574944 		.ascii	"TWID_Write\000"
 4763      5F577269 
 4763      746500
 4764              	.LASF108:
 4765 01d7 504D435F 		.ascii	"PMC_MCKR\000"
 4765      4D434B52 
 4765      00
 4766              	.LASF182:
 4767 01e0 705F7072 		.ascii	"p_prev\000"
 4767      657600
 4768              	.LASF58:
 4769 01e7 50494F5F 		.ascii	"PIO_OWER\000"
 4769      4F574552 
 4769      00
 4770              	.LASF30:
 4771 01f0 50494F5F 		.ascii	"PIO_IFSR\000"
 4771      49465352 
 4771      00
 4772              	.LASF270:
 4773 01f9 49324352 		.ascii	"I2CReadByte_sub\000"
 4773      65616442 
 4773      7974655F 
 4773      73756200 
 4774              	.LASF48:
 4775 0209 50494F5F 		.ascii	"PIO_ABCDSR\000"
 4775      41424344 
 4775      535200
 4776              	.LASF170:
 4777 0214 74737461 		.ascii	"tstate_t\000"
 4777      74655F74 
 4777      00
 4778              	.LASF101:
 4779 021d 504D435F 		.ascii	"PMC_PCER0\000"
 4779      50434552 
 4779      3000
 4780              	.LASF120:
 4781 0227 504D435F 		.ascii	"PMC_PCER1\000"
 4781      50434552 
 4781      3100
 4782              	.LASF280:
 4783 0231 6D61696E 		.ascii	"main\000"
 4783      00
 4784              	.LASF111:
 4785 0236 504D435F 		.ascii	"PMC_IER\000"
 4785      49455200 
 4786              	.LASF240:
 4787 023e 6F717565 		.ascii	"oqueue\000"
ARM GAS  /tmp/ccscnHdD.s 			page 87


 4787      756500
 4788              	.LASF203:
 4789 0245 72656761 		.ascii	"regarm_t\000"
 4789      726D5F74 
 4789      00
 4790              	.LASF272:
 4791 024e 5F5A3135 		.ascii	"_Z15I2CReadByte_subhh\000"
 4791      49324352 
 4791      65616442 
 4791      7974655F 
 4791      73756268 
 4792              	.LASF55:
 4793 0264 50494F5F 		.ascii	"PIO_PPDER\000"
 4793      50504445 
 4793      5200
 4794              	.LASF66:
 4795 026e 50494F5F 		.ascii	"PIO_ESR\000"
 4795      45535200 
 4796              	.LASF104:
 4797 0276 434B4752 		.ascii	"CKGR_MOR\000"
 4797      5F4D4F52 
 4797      00
 4798              	.LASF267:
 4799 027f 49324357 		.ascii	"I2CWriteByte\000"
 4799      72697465 
 4799      42797465 
 4799      00
 4800              	.LASF26:
 4801 028c 50494F5F 		.ascii	"PIO_OSR\000"
 4801      4F535200 
 4802              	.LASF295:
 4803 0294 6D61696E 		.ascii	"main.cpp\000"
 4803      2E637070 
 4803      00
 4804              	.LASF0:
 4805 029d 7369676E 		.ascii	"signed char\000"
 4805      65642063 
 4805      68617200 
 4806              	.LASF180:
 4807 02a9 65776D61 		.ascii	"ewmask\000"
 4807      736B00
 4808              	.LASF12:
 4809 02b0 75696E74 		.ascii	"uint8_t\000"
 4809      385F7400 
 4810              	.LASF128:
 4811 02b8 5457495F 		.ascii	"TWI_IADR\000"
 4811      49414452 
 4811      00
 4812              	.LASF174:
 4813 02c1 6576656E 		.ascii	"eventmask_t\000"
 4813      746D6173 
 4813      6B5F7400 
 4814              	.LASF205:
 4815 02cd 636F6E74 		.ascii	"context\000"
 4815      65787400 
 4816              	.LASF90:
 4817 02d5 50494F5F 		.ascii	"PIO_RNPR\000"
ARM GAS  /tmp/ccscnHdD.s 			page 88


 4817      524E5052 
 4817      00
 4818              	.LASF1:
 4819 02de 756E7369 		.ascii	"unsigned char\000"
 4819      676E6564 
 4819      20636861 
 4819      7200
 4820              	.LASF44:
 4821 02ec 50494F5F 		.ascii	"PIO_PUDR\000"
 4821      50554452 
 4821      00
 4822              	.LASF287:
 4823 02f5 54574944 		.ascii	"TWID_Initialize\000"
 4823      5F496E69 
 4823      7469616C 
 4823      697A6500 
 4824              	.LASF159:
 4825 0305 55415254 		.ascii	"UART_TCR\000"
 4825      5F544352 
 4825      00
 4826              	.LASF92:
 4827 030e 50494F5F 		.ascii	"PIO_TNPR\000"
 4827      544E5052 
 4827      00
 4828              	.LASF192:
 4829 0317 705F7761 		.ascii	"p_waiting\000"
 4829      6974696E 
 4829      6700
 4830              	.LASF296:
 4831 0321 2F686F6D 		.ascii	"/home/nixtropy/Documents/Embebidos/stamp_repo_2/fil"
 4831      652F6E69 
 4831      7874726F 
 4831      70792F44 
 4831      6F63756D 
 4832 0354 65732F63 		.ascii	"es/code/src/chibios_i2c2\000"
 4832      6F64652F 
 4832      7372632F 
 4832      63686962 
 4832      696F735F 
 4833              	.LASF231:
 4834 036d 53445F55 		.ascii	"SD_UNINIT\000"
 4834      4E494E49 
 4834      5400
 4835              	.LASF76:
 4836 0377 50494F5F 		.ascii	"PIO_WPSR\000"
 4836      57505352 
 4836      00
 4837              	.LASF156:
 4838 0380 55415254 		.ascii	"UART_RPR\000"
 4838      5F525052 
 4838      00
 4839              	.LASF200:
 4840 0389 31325468 		.ascii	"12ThreadsQueue\000"
 4840      72656164 
 4840      73517565 
 4840      756500
 4841              	.LASF45:
ARM GAS  /tmp/ccscnHdD.s 			page 89


 4842 0398 50494F5F 		.ascii	"PIO_PUER\000"
 4842      50554552 
 4842      00
 4843              	.LASF216:
 4844 03a1 63686172 		.ascii	"char\000"
 4844      00
 4845              	.LASF87:
 4846 03a6 50494F5F 		.ascii	"PIO_RCR\000"
 4846      52435200 
 4847              	.LASF69:
 4848 03ae 52657365 		.ascii	"Reserved10\000"
 4848      72766564 
 4848      313000
 4849              	.LASF73:
 4850 03b9 52657365 		.ascii	"Reserved11\000"
 4850      72766564 
 4850      313100
 4851              	.LASF77:
 4852 03c4 52657365 		.ascii	"Reserved12\000"
 4852      72766564 
 4852      313200
 4853              	.LASF79:
 4854 03cf 52657365 		.ascii	"Reserved13\000"
 4854      72766564 
 4854      313300
 4855              	.LASF183:
 4856 03da 705F7072 		.ascii	"p_prio\000"
 4856      696F00
 4857              	.LASF218:
 4858 03e1 47656E65 		.ascii	"GenericQueue\000"
 4858      72696351 
 4858      75657565 
 4858      00
 4859              	.LASF41:
 4860 03ee 50494F5F 		.ascii	"PIO_MDDR\000"
 4860      4D444452 
 4860      00
 4861              	.LASF179:
 4862 03f7 77746F62 		.ascii	"wtobjp\000"
 4862      6A7000
 4863              	.LASF35:
 4864 03fe 50494F5F 		.ascii	"PIO_PDSR\000"
 4864      50445352 
 4864      00
 4865              	.LASF271:
 4866 0407 49324352 		.ascii	"I2CReadByte\000"
 4866      65616442 
 4866      79746500 
 4867              	.LASF237:
 4868 0413 666C6167 		.ascii	"flags\000"
 4868      7300
 4869              	.LASF74:
 4870 0419 50494F5F 		.ascii	"PIO_LOCKSR\000"
 4870      4C4F434B 
 4870      535200
 4871              	.LASF228:
 4872 0424 4F757470 		.ascii	"OutputQueue\000"
ARM GAS  /tmp/ccscnHdD.s 			page 90


 4872      75745175 
 4872      65756500 
 4873              	.LASF70:
 4874 0430 50494F5F 		.ascii	"PIO_FELLSR\000"
 4874      46454C4C 
 4874      535200
 4875              	.LASF123:
 4876 043b 504D435F 		.ascii	"PMC_OCR\000"
 4876      4F435200 
 4877              	.LASF137:
 4878 0443 5457495F 		.ascii	"TWI_RCR\000"
 4878      52435200 
 4879              	.LASF40:
 4880 044b 50494F5F 		.ascii	"PIO_MDER\000"
 4880      4D444552 
 4880      00
 4881              	.LASF257:
 4882 0454 7053746F 		.ascii	"pStorage\000"
 4882      72616765 
 4882      00
 4883              	.LASF21:
 4884 045d 50494F5F 		.ascii	"PIO_PDR\000"
 4884      50445200 
 4885              	.LASF245:
 4886 0465 70757477 		.ascii	"putwouldblock\000"
 4886      6F756C64 
 4886      626C6F63 
 4886      6B00
 4887              	.LASF230:
 4888 0473 696F706F 		.ascii	"ioportmask_t\000"
 4888      72746D61 
 4888      736B5F74 
 4888      00
 4889              	.LASF160:
 4890 0480 55415254 		.ascii	"UART_RNPR\000"
 4890      5F524E50 
 4890      5200
 4891              	.LASF151:
 4892 048a 55415254 		.ascii	"UART_IMR\000"
 4892      5F494D52 
 4892      00
 4893              	.LASF166:
 4894 0493 55617274 		.ascii	"Uart\000"
 4894      00
 4895              	.LASF141:
 4896 0498 5457495F 		.ascii	"TWI_RNCR\000"
 4896      524E4352 
 4896      00
 4897              	.LASF162:
 4898 04a1 55415254 		.ascii	"UART_TNPR\000"
 4898      5F544E50 
 4898      5200
 4899              	.LASF285:
 4900 04ab 63685468 		.ascii	"chThdSleep\000"
 4900      64536C65 
 4900      657000
 4901              	.LASF68:
ARM GAS  /tmp/ccscnHdD.s 			page 91


 4902 04b6 50494F5F 		.ascii	"PIO_ELSR\000"
 4902      454C5352 
 4902      00
 4903              	.LASF143:
 4904 04bf 5457495F 		.ascii	"TWI_TNCR\000"
 4904      544E4352 
 4904      00
 4905              	.LASF204:
 4906 04c8 696E7463 		.ascii	"intctx\000"
 4906      747800
 4907              	.LASF195:
 4908 04cf 705F6570 		.ascii	"p_epending\000"
 4908      656E6469 
 4908      6E6700
 4909              	.LASF22:
 4910 04da 50494F5F 		.ascii	"PIO_PSR\000"
 4910      50535200 
 4911              	.LASF154:
 4912 04e2 55415254 		.ascii	"UART_THR\000"
 4912      5F544852 
 4912      00
 4913              	.LASF215:
 4914 04eb 65735F6E 		.ascii	"es_next\000"
 4914      65787400 
 4915              	.LASF220:
 4916 04f3 715F636F 		.ascii	"q_counter\000"
 4916      756E7465 
 4916      7200
 4917              	.LASF294:
 4918 04fd 474E5520 		.ascii	"GNU C++ 4.9.3 20150529 (release) [ARM/embedded-4_9-"
 4918      432B2B20 
 4918      342E392E 
 4918      33203230 
 4918      31353035 
 4919 0530 6272616E 		.ascii	"branch revision 227977] -mcpu=cortex-m3 -mno-thumb-"
 4919      63682072 
 4919      65766973 
 4919      696F6E20 
 4919      32323739 
 4920 0563 696E7465 		.ascii	"interwork -mthumb -ggdb -O2 -fomit-frame-pointer -f"
 4920      72776F72 
 4920      6B202D6D 
 4920      7468756D 
 4920      62202D67 
 4921 0596 616C6967 		.ascii	"align-functions=16 -ffunction-sections -fdata-secti"
 4921      6E2D6675 
 4921      6E637469 
 4921      6F6E733D 
 4921      3136202D 
 4922 05c9 6F6E7320 		.ascii	"ons -fno-common -fno-rtti\000"
 4922      2D666E6F 
 4922      2D636F6D 
 4922      6D6F6E20 
 4922      2D666E6F 
 4923              	.LASF214:
 4924 05e3 4576656E 		.ascii	"EventSource\000"
 4924      74536F75 
ARM GAS  /tmp/ccscnHdD.s 			page 92


 4924      72636500 
 4925              	.LASF8:
 4926 05ef 6C6F6E67 		.ascii	"long unsigned int\000"
 4926      20756E73 
 4926      69676E65 
 4926      6420696E 
 4926      7400
 4927              	.LASF255:
 4928 0601 73746174 		.ascii	"status\000"
 4928      757300
 4929              	.LASF263:
 4930 0608 61646472 		.ascii	"address\000"
 4930      65737300 
 4931              	.LASF114:
 4932 0610 504D435F 		.ascii	"PMC_IMR\000"
 4932      494D5200 
 4933              	.LASF211:
 4934 0618 656C5F6E 		.ascii	"el_next\000"
 4934      65787400 
 4935              	.LASF96:
 4936 0620 3350696F 		.ascii	"3Pio\000"
 4936      00
 4937              	.LASF223:
 4938 0625 715F7772 		.ascii	"q_wrptr\000"
 4938      70747200 
 4939              	.LASF100:
 4940 062d 504D435F 		.ascii	"PMC_SCSR\000"
 4940      53435352 
 4940      00
 4941              	.LASF242:
 4942 0636 53657269 		.ascii	"SerialDriverVMT\000"
 4942      616C4472 
 4942      69766572 
 4942      564D5400 
 4943              	.LASF33:
 4944 0646 50494F5F 		.ascii	"PIO_CODR\000"
 4944      434F4452 
 4944      00
 4945              	.LASF293:
 4946 064f 63685468 		.ascii	"chThdCreateStatic\000"
 4946      64437265 
 4946      61746553 
 4946      74617469 
 4946      6300
 4947              	.LASF291:
 4948 0661 68616C49 		.ascii	"halInit\000"
 4948      6E697400 
 4949              	.LASF283:
 4950 0669 70696E73 		.ascii	"pins\000"
 4950      00
 4951              	.LASF299:
 4952 066e 41726561 		.ascii	"AreaGPS\000"
 4952      47505300 
 4953              	.LASF261:
 4954 0676 70547261 		.ascii	"pTransfer\000"
 4954      6E736665 
 4954      7200
ARM GAS  /tmp/ccscnHdD.s 			page 93


 4955              	.LASF134:
 4956 0680 5457495F 		.ascii	"TWI_RHR\000"
 4956      52485200 
 4957              	.LASF7:
 4958 0688 5F5F7569 		.ascii	"__uint32_t\000"
 4958      6E743332 
 4958      5F7400
 4959              	.LASF37:
 4960 0693 50494F5F 		.ascii	"PIO_IDR\000"
 4960      49445200 
 4961              	.LASF206:
 4962 069b 4D757465 		.ascii	"Mutex\000"
 4962      7800
 4963              	.LASF297:
 4964 06a1 39736473 		.ascii	"9sdstate_t\000"
 4964      74617465 
 4964      5F7400
 4965              	.LASF9:
 4966 06ac 6C6F6E67 		.ascii	"long long int\000"
 4966      206C6F6E 
 4966      6720696E 
 4966      7400
 4967              	.LASF103:
 4968 06ba 504D435F 		.ascii	"PMC_PCSR0\000"
 4968      50435352 
 4968      3000
 4969              	.LASF207:
 4970 06c4 6D5F7175 		.ascii	"m_queue\000"
 4970      65756500 
 4971              	.LASF169:
 4972 06cc 746D6F64 		.ascii	"tmode_t\000"
 4972      655F7400 
 4973              	.LASF50:
 4974 06d4 50494F5F 		.ascii	"PIO_IFSCDR\000"
 4974      49465343 
 4974      445200
 4975              	.LASF110:
 4976 06df 504D435F 		.ascii	"PMC_PCK\000"
 4976      50434B00 
 4977              	.LASF282:
 4978 06e7 74776964 		.ascii	"twid_\000"
 4978      5F00
 4979              	.LASF260:
 4980 06ed 70547769 		.ascii	"pTwi\000"
 4980      00
 4981              	.LASF95:
 4982 06f2 50494F5F 		.ascii	"PIO_PTSR\000"
 4982      50545352 
 4982      00
 4983              	.LASF36:
 4984 06fb 50494F5F 		.ascii	"PIO_IER\000"
 4984      49455200 
 4985              	.LASF251:
 4986 0703 6D61736B 		.ascii	"mask\000"
 4986      00
 4987              	.LASF85:
 4988 0708 50494F5F 		.ascii	"PIO_PCRHR\000"
ARM GAS  /tmp/ccscnHdD.s 			page 94


 4988      50435248 
 4988      5200
 4989              	.LASF281:
 4990 0712 49544D5F 		.ascii	"ITM_RxBuffer\000"
 4990      52784275 
 4990      66666572 
 4990      00
 4991              	.LASF217:
 4992 071f 7466756E 		.ascii	"tfunc_t\000"
 4992      635F7400 
 4993              	.LASF32:
 4994 0727 50494F5F 		.ascii	"PIO_SODR\000"
 4994      534F4452 
 4994      00
 4995              	.LASF51:
 4996 0730 50494F5F 		.ascii	"PIO_IFSCER\000"
 4996      49465343 
 4996      455200
 4997              	.LASF144:
 4998 073b 5457495F 		.ascii	"TWI_PTCR\000"
 4998      50544352 
 4998      00
 4999              	.LASF226:
 5000 0744 716E6F74 		.ascii	"qnotify_t\000"
 5000      6966795F 
 5000      7400
 5001              	.LASF147:
 5002 074e 55415254 		.ascii	"UART_CR\000"
 5002      5F435200 
 5003              	.LASF236:
 5004 0756 6576656E 		.ascii	"event\000"
 5004      7400
 5005              	.LASF189:
 5006 075c 705F666C 		.ascii	"p_flags\000"
 5006      61677300 
 5007              	.LASF117:
 5008 0764 504D435F 		.ascii	"PMC_FOCR\000"
 5008      464F4352 
 5008      00
 5009              	.LASF244:
 5010 076d 72656164 		.ascii	"read\000"
 5010      00
 5011              	.LASF11:
 5012 0772 756E7369 		.ascii	"unsigned int\000"
 5012      676E6564 
 5012      20696E74 
 5012      00
 5013              	.LASF97:
 5014 077f 33506D63 		.ascii	"3Pmc\000"
 5014      00
 5015              	.LASF131:
 5016 0784 5457495F 		.ascii	"TWI_IER\000"
 5016      49455200 
 5017              	.LASF190:
 5018 078c 705F7265 		.ascii	"p_refs\000"
 5018      667300
 5019              	.LASF125:
ARM GAS  /tmp/ccscnHdD.s 			page 95


 5020 0793 5457495F 		.ascii	"TWI_CR\000"
 5020      435200
 5021              	.LASF82:
 5022 079a 50494F5F 		.ascii	"PIO_PCIDR\000"
 5022      50434944 
 5022      5200
 5023              	.LASF67:
 5024 07a4 50494F5F 		.ascii	"PIO_LSR\000"
 5024      4C535200 
 5025              	.LASF202:
 5026 07ac 54687265 		.ascii	"ThreadsList\000"
 5026      6164734C 
 5026      69737400 
 5027              	.LASF229:
 5028 07b8 696F666C 		.ascii	"ioflags_t\000"
 5028      6167735F 
 5028      7400
 5029              	.LASF81:
 5030 07c2 50494F5F 		.ascii	"PIO_PCIER\000"
 5030      50434945 
 5030      5200
 5031              	.LASF60:
 5032 07cc 50494F5F 		.ascii	"PIO_OWSR\000"
 5032      4F575352 
 5032      00
 5033              	.LASF165:
 5034 07d5 55415254 		.ascii	"UART_PTSR\000"
 5034      5F505453 
 5034      5200
 5035              	.LASF258:
 5036 07df 4173796E 		.ascii	"Async\000"
 5036      6300
 5037              	.LASF56:
 5038 07e5 50494F5F 		.ascii	"PIO_PPDSR\000"
 5038      50504453 
 5038      5200
 5039              	.LASF269:
 5040 07ef 5F5A3132 		.ascii	"_Z12I2CWriteBytehh\000"
 5040      49324357 
 5040      72697465 
 5040      42797465 
 5040      686800
 5041              	.LASF126:
 5042 0802 5457495F 		.ascii	"TWI_MMR\000"
 5042      4D4D5200 
 5043              	.LASF268:
 5044 080a 5F5A3749 		.ascii	"_Z7I2CInitv\000"
 5044      3243496E 
 5044      69747600 
 5045              	.LASF197:
 5046 0816 705F7265 		.ascii	"p_realprio\000"
 5046      616C7072 
 5046      696F00
 5047              	.LASF246:
 5048 0821 67657477 		.ascii	"getwouldblock\000"
 5048      6F756C64 
 5048      626C6F63 
ARM GAS  /tmp/ccscnHdD.s 			page 96


 5048      6B00
 5049              	.LASF158:
 5050 082f 55415254 		.ascii	"UART_TPR\000"
 5050      5F545052 
 5050      00
 5051              	.LASF250:
 5052 0838 5F50696E 		.ascii	"_Pin\000"
 5052      00
 5053              	.LASF29:
 5054 083d 50494F5F 		.ascii	"PIO_IFDR\000"
 5054      49464452 
 5054      00
 5055              	.LASF239:
 5056 0846 69717565 		.ascii	"iqueue\000"
 5056      756500
 5057              	.LASF89:
 5058 084d 50494F5F 		.ascii	"PIO_TCR\000"
 5058      54435200 
 5059              	.LASF276:
 5060 0855 49324352 		.ascii	"I2CReadBytes\000"
 5060      65616442 
 5060      79746573 
 5060      00
 5061              	.LASF198:
 5062 0862 705F6D70 		.ascii	"p_mpool\000"
 5062      6F6F6C00 
 5063              	.LASF10:
 5064 086a 6C6F6E67 		.ascii	"long long unsigned int\000"
 5064      206C6F6E 
 5064      6720756E 
 5064      7369676E 
 5064      65642069 
 5065              	.LASF186:
 5066 0881 705F6F6C 		.ascii	"p_older\000"
 5066      64657200 
 5067              	.LASF253:
 5068 0889 61747472 		.ascii	"attribute\000"
 5068      69627574 
 5068      6500
 5069              	.LASF86:
 5070 0893 50494F5F 		.ascii	"PIO_RPR\000"
 5070      52505200 
 5071              	.LASF25:
 5072 089b 50494F5F 		.ascii	"PIO_ODR\000"
 5072      4F445200 
 5073              	.LASF173:
 5074 08a3 6D73675F 		.ascii	"msg_t\000"
 5074      7400
 5075              	.LASF28:
 5076 08a9 50494F5F 		.ascii	"PIO_IFER\000"
 5076      49464552 
 5076      00
 5077              	.LASF124:
 5078 08b2 33547769 		.ascii	"3Twi\000"
 5078      00
 5079              	.LASF129:
 5080 08b7 5457495F 		.ascii	"TWI_CWGR\000"
ARM GAS  /tmp/ccscnHdD.s 			page 97


 5080      43574752 
 5080      00
 5081              	.LASF139:
 5082 08c0 5457495F 		.ascii	"TWI_TCR\000"
 5082      54435200 
 5083              	.LASF46:
 5084 08c8 50494F5F 		.ascii	"PIO_PUSR\000"
 5084      50555352 
 5084      00
 5085              	.LASF208:
 5086 08d1 6D5F6F77 		.ascii	"m_owner\000"
 5086      6E657200 
 5087              	.LASF24:
 5088 08d9 50494F5F 		.ascii	"PIO_OER\000"
 5088      4F455200 
 5089              	.LASF136:
 5090 08e1 5457495F 		.ascii	"TWI_RPR\000"
 5090      52505200 
 5091              	.LASF63:
 5092 08e9 50494F5F 		.ascii	"PIO_AIMDR\000"
 5092      41494D44 
 5092      5200
 5093              	.LASF146:
 5094 08f3 34556172 		.ascii	"4Uart\000"
 5094      7400
 5095              	.LASF278:
 5096 08f9 64657374 		.ascii	"dest\000"
 5096      00
 5097              	.LASF259:
 5098 08fe 5F547769 		.ascii	"_Twid\000"
 5098      6400
 5099              	.LASF235:
 5100 0904 53657269 		.ascii	"SerialDriver\000"
 5100      616C4472 
 5100      69766572 
 5100      00
 5101              	.LASF140:
 5102 0911 5457495F 		.ascii	"TWI_RNPR\000"
 5102      524E5052 
 5102      00
 5103              	.LASF72:
 5104 091a 50494F5F 		.ascii	"PIO_FRLHSR\000"
 5104      46524C48 
 5104      535200
 5105              	.LASF155:
 5106 0925 55415254 		.ascii	"UART_BRGR\000"
 5106      5F425247 
 5106      5200
 5107              	.LASF219:
 5108 092f 715F7761 		.ascii	"q_waiting\000"
 5108      6974696E 
 5108      6700
 5109              	.LASF23:
 5110 0939 52657365 		.ascii	"Reserved1\000"
 5110      72766564 
 5110      3100
 5111              	.LASF27:
ARM GAS  /tmp/ccscnHdD.s 			page 98


 5112 0943 52657365 		.ascii	"Reserved2\000"
 5112      72766564 
 5112      3200
 5113              	.LASF31:
 5114 094d 52657365 		.ascii	"Reserved3\000"
 5114      72766564 
 5114      3300
 5115              	.LASF43:
 5116 0957 52657365 		.ascii	"Reserved4\000"
 5116      72766564 
 5116      3400
 5117              	.LASF47:
 5118 0961 52657365 		.ascii	"Reserved5\000"
 5118      72766564 
 5118      3500
 5119              	.LASF49:
 5120 096b 52657365 		.ascii	"Reserved6\000"
 5120      72766564 
 5120      3600
 5121              	.LASF57:
 5122 0975 52657365 		.ascii	"Reserved7\000"
 5122      72766564 
 5122      3700
 5123              	.LASF61:
 5124 097f 52657365 		.ascii	"Reserved8\000"
 5124      72766564 
 5124      3800
 5125              	.LASF65:
 5126 0989 52657365 		.ascii	"Reserved9\000"
 5126      72766564 
 5126      3900
 5127              	.LASF62:
 5128 0993 50494F5F 		.ascii	"PIO_AIMER\000"
 5128      41494D45 
 5128      5200
 5129              	.LASF234:
 5130 099d 73647374 		.ascii	"sdstate_t\000"
 5130      6174655F 
 5130      7400
 5131              	.LASF42:
 5132 09a7 50494F5F 		.ascii	"PIO_MDSR\000"
 5132      4D445352 
 5132      00
 5133              	.LASF142:
 5134 09b0 5457495F 		.ascii	"TWI_TNPR\000"
 5134      544E5052 
 5134      00
 5135              	.LASF38:
 5136 09b9 50494F5F 		.ascii	"PIO_IMR\000"
 5136      494D5200 
 5137              	.LASF233:
 5138 09c1 53445F52 		.ascii	"SD_READY\000"
 5138      45414459 
 5138      00
 5139              	.LASF34:
 5140 09ca 50494F5F 		.ascii	"PIO_ODSR\000"
 5140      4F445352 
ARM GAS  /tmp/ccscnHdD.s 			page 99


 5140      00
 5141              	.LASF91:
 5142 09d3 50494F5F 		.ascii	"PIO_RNCR\000"
 5142      524E4352 
 5142      00
 5143              	.LASF277:
 5144 09dc 5F5A3132 		.ascii	"_Z12I2CReadByteshhPhh\000"
 5144      49324352 
 5144      65616442 
 5144      79746573 
 5144      68685068 
 5145              	.LASF256:
 5146 09f2 63616C6C 		.ascii	"callback\000"
 5146      6261636B 
 5146      00
 5147              	.LASF93:
 5148 09fb 50494F5F 		.ascii	"PIO_TNCR\000"
 5148      544E4352 
 5148      00
 5149              	.LASF78:
 5150 0a04 50494F5F 		.ascii	"PIO_SCHMITT\000"
 5150      5343484D 
 5150      49545400 
 5151              	.LASF2:
 5152 0a10 73686F72 		.ascii	"short int\000"
 5152      7420696E 
 5152      7400
 5153              	.LASF16:
 5154 0a1a 526F5265 		.ascii	"RoReg\000"
 5154      6700
 5155              	.LASF157:
 5156 0a20 55415254 		.ascii	"UART_RCR\000"
 5156      5F524352 
 5156      00
 5157              	.LASF266:
 5158 0a29 49324349 		.ascii	"I2CInit\000"
 5158      6E697400 
 5159              	.LASF241:
 5160 0a31 75617274 		.ascii	"uart\000"
 5160      00
 5161              	.LASF238:
 5162 0a36 73746174 		.ascii	"state\000"
 5162      6500
 5163              	.LASF133:
 5164 0a3c 5457495F 		.ascii	"TWI_IMR\000"
 5164      494D5200 
 5165              	.LASF113:
 5166 0a44 504D435F 		.ascii	"PMC_SR\000"
 5166      535200
 5167              	.LASF273:
 5168 0a4b 5F5A3131 		.ascii	"_Z11I2CReadByteh\000"
 5168      49324352 
 5168      65616442 
 5168      79746568 
 5168      00
 5169              	.LASF127:
 5170 0a5c 5457495F 		.ascii	"TWI_SMR\000"
ARM GAS  /tmp/ccscnHdD.s 			page 100


 5170      534D5200 
 5171              	.LASF176:
 5172 0a64 54687265 		.ascii	"Thread\000"
 5172      616400
 5173              	.LASF18:
 5174 0a6b 52775265 		.ascii	"RwReg\000"
 5174      6700
 5175              	.LASF249:
 5176 0a71 67657466 		.ascii	"getflags\000"
 5176      6C616773 
 5176      00
 5177              	.LASF148:
 5178 0a7a 55415254 		.ascii	"UART_MR\000"
 5178      5F4D5200 
 5179              	.LASF168:
 5180 0a82 626F6F6C 		.ascii	"bool_t\000"
 5180      5F7400
 5181              	.LASF83:
 5182 0a89 50494F5F 		.ascii	"PIO_PCIMR\000"
 5182      5043494D 
 5182      5200
 5183              	.LASF171:
 5184 0a93 74726566 		.ascii	"trefs_t\000"
 5184      735F7400 
 5185              	.LASF135:
 5186 0a9b 5457495F 		.ascii	"TWI_THR\000"
 5186      54485200 
 5187              	.LASF210:
 5188 0aa3 4576656E 		.ascii	"EventListener\000"
 5188      744C6973 
 5188      74656E65 
 5188      7200
 5189              	.LASF118:
 5190 0ab1 504D435F 		.ascii	"PMC_WPMR\000"
 5190      57504D52 
 5190      00
 5191              	.LASF80:
 5192 0aba 50494F5F 		.ascii	"PIO_PCMR\000"
 5192      50434D52 
 5192      00
 5193              	.LASF292:
 5194 0ac3 63685379 		.ascii	"chSysInit\000"
 5194      73496E69 
 5194      7400
 5195              	.LASF14:
 5196 0acd 75696E74 		.ascii	"uint32_t\000"
 5196      33325F74 
 5196      00
 5197              	.LASF161:
 5198 0ad6 55415254 		.ascii	"UART_RNCR\000"
 5198      5F524E43 
 5198      5200
 5199              	.LASF199:
 5200 0ae0 54687265 		.ascii	"ThreadsQueue\000"
 5200      61647351 
 5200      75657565 
 5200      00
ARM GAS  /tmp/ccscnHdD.s 			page 101


 5201              	.LASF115:
 5202 0aed 504D435F 		.ascii	"PMC_FSMR\000"
 5202      46534D52 
 5202      00
 5203              	.LASF15:
 5204 0af6 75696E74 		.ascii	"uint_fast16_t\000"
 5204      5F666173 
 5204      7431365F 
 5204      7400
 5205              	.LASF196:
 5206 0b04 705F6D74 		.ascii	"p_mtxlist\000"
 5206      786C6973 
 5206      7400
 5207              	.LASF163:
 5208 0b0e 55415254 		.ascii	"UART_TNCR\000"
 5208      5F544E43 
 5208      5200
 5209              	.LASF71:
 5210 0b18 50494F5F 		.ascii	"PIO_REHLSR\000"
 5210      5245484C 
 5210      535200
 5211              	.LASF177:
 5212 0b23 7264796D 		.ascii	"rdymsg\000"
 5212      736700
 5213              	.LASF3:
 5214 0b2a 73686F72 		.ascii	"short unsigned int\000"
 5214      7420756E 
 5214      7369676E 
 5214      65642069 
 5214      6E7400
 5215              	.LASF254:
 5216 0b3d 5F417379 		.ascii	"_Async\000"
 5216      6E6300
 5217              	.LASF20:
 5218 0b44 50494F5F 		.ascii	"PIO_PER\000"
 5218      50455200 
 5219              	.LASF227:
 5220 0b4c 496E7075 		.ascii	"InputQueue\000"
 5220      74517565 
 5220      756500
 5221              	.LASF5:
 5222 0b57 5F5F696E 		.ascii	"__int32_t\000"
 5222      7433325F 
 5222      7400
 5223              	.LASF232:
 5224 0b61 53445F53 		.ascii	"SD_STOP\000"
 5224      544F5000 
 5225              	.LASF99:
 5226 0b69 504D435F 		.ascii	"PMC_SCDR\000"
 5226      53434452 
 5226      00
 5227              	.LASF201:
 5228 0b72 31315468 		.ascii	"11ThreadsList\000"
 5228      72656164 
 5228      734C6973 
 5228      7400
 5229              	.LASF213:
ARM GAS  /tmp/ccscnHdD.s 			page 102


 5230 0b80 656C5F6D 		.ascii	"el_mask\000"
 5230      61736B00 
 5231              	.LASF274:
 5232 0b88 49324357 		.ascii	"I2CWriteBytes\000"
 5232      72697465 
 5232      42797465 
 5232      7300
 5233              	.LASF102:
 5234 0b96 504D435F 		.ascii	"PMC_PCDR0\000"
 5234      50434452 
 5234      3000
 5235              	.LASF121:
 5236 0ba0 504D435F 		.ascii	"PMC_PCDR1\000"
 5236      50434452 
 5236      3100
 5237              	.LASF262:
 5238 0baa 54776964 		.ascii	"Twid\000"
 5238      00
 5239              	.LASF187:
 5240 0baf 705F6E61 		.ascii	"p_name\000"
 5240      6D6500
 5241              	.LASF265:
 5242 0bb6 64617461 		.ascii	"data\000"
 5242      00
 5243              	.LASF209:
 5244 0bbb 6D5F6E65 		.ascii	"m_next\000"
 5244      787400
 5245              	.LASF39:
 5246 0bc2 50494F5F 		.ascii	"PIO_ISR\000"
 5246      49535200 
 5247              	.LASF98:
 5248 0bca 504D435F 		.ascii	"PMC_SCER\000"
 5248      53434552 
 5248      00
 5249              	.LASF122:
 5250 0bd3 504D435F 		.ascii	"PMC_PCSR1\000"
 5250      50435352 
 5250      3100
 5251              	.LASF153:
 5252 0bdd 55415254 		.ascii	"UART_RHR\000"
 5252      5F524852 
 5252      00
 5253              	.LASF284:
 5254 0be6 77615468 		.ascii	"waThread1\000"
 5254      72656164 
 5254      3100
 5255              	.LASF106:
 5256 0bf0 434B4752 		.ascii	"CKGR_PLLAR\000"
 5256      5F504C4C 
 5256      415200
 5257              	.LASF194:
 5258 0bfb 705F6D73 		.ascii	"p_msg\000"
 5258      6700
 5259              	.LASF212:
 5260 0c01 656C5F6C 		.ascii	"el_listener\000"
 5260      69737465 
 5260      6E657200 
ARM GAS  /tmp/ccscnHdD.s 			page 103


 5261              	.LASF94:
 5262 0c0d 50494F5F 		.ascii	"PIO_PTCR\000"
 5262      50544352 
 5262      00
 5263              	.LASF188:
 5264 0c16 705F7374 		.ascii	"p_state\000"
 5264      61746500 
 5265              		.ident	"GCC: (GNU Tools for ARM Embedded Processors) 4.9.3 20150529 (release) [ARM/embedded-4_9-br
ARM GAS  /tmp/ccscnHdD.s 			page 104


DEFINED SYMBOLS
                            *ABS*:00000000 main.cpp
     /tmp/ccscnHdD.s:19     .text._ZL7Thread1Pv:00000000 $t
     /tmp/ccscnHdD.s:24     .text._ZL7Thread1Pv:00000000 _ZL7Thread1Pv
     /tmp/ccscnHdD.s:63     .text._ZL7Thread1Pv:00000020 $d
    .ARM.exidx.text._ZL7Thread1Pv:00000000 $d
     /tmp/ccscnHdD.s:69     .text._Z7I2CInitv:00000000 $t
     /tmp/ccscnHdD.s:75     .text._Z7I2CInitv:00000000 _Z7I2CInitv
     /tmp/ccscnHdD.s:139    .text._Z7I2CInitv:00000040 $d
      .ARM.exidx.text._Z7I2CInitv:00000000 $d
     /tmp/ccscnHdD.s:154    .text._Z15I2CReadByte_subhh:00000000 $t
     /tmp/ccscnHdD.s:160    .text._Z15I2CReadByte_subhh:00000000 _Z15I2CReadByte_subhh
     /tmp/ccscnHdD.s:225    .text._Z15I2CReadByte_subhh:00000034 $d
.ARM.exidx.text._Z15I2CReadByte_subhh:00000000 $d
     /tmp/ccscnHdD.s:231    .text._Z12I2CWriteBytehh:00000000 $t
     /tmp/ccscnHdD.s:237    .text._Z12I2CWriteBytehh:00000000 _Z12I2CWriteBytehh
     /tmp/ccscnHdD.s:299    .text._Z12I2CWriteBytehh:00000030 $d
.ARM.exidx.text._Z12I2CWriteBytehh:00000000 $d
     /tmp/ccscnHdD.s:305    .text._Z11I2CReadByteh:00000000 $t
     /tmp/ccscnHdD.s:311    .text._Z11I2CReadByteh:00000000 _Z11I2CReadByteh
     /tmp/ccscnHdD.s:374    .text._Z11I2CReadByteh:00000034 $d
 .ARM.exidx.text._Z11I2CReadByteh:00000000 $d
     /tmp/ccscnHdD.s:380    .text._Z13I2CWriteByteshhh:00000000 $t
     /tmp/ccscnHdD.s:386    .text._Z13I2CWriteByteshhh:00000000 _Z13I2CWriteByteshhh
     /tmp/ccscnHdD.s:449    .text._Z13I2CWriteByteshhh:00000030 $d
.ARM.exidx.text._Z13I2CWriteByteshhh:00000000 $d
     /tmp/ccscnHdD.s:455    .text._Z12I2CReadByteshhPhh:00000000 $t
     /tmp/ccscnHdD.s:461    .text._Z12I2CReadByteshhPhh:00000000 _Z12I2CReadByteshhPhh
     /tmp/ccscnHdD.s:530    .text._Z12I2CReadByteshhPhh:00000034 $d
.ARM.exidx.text._Z12I2CReadByteshhPhh:00000000 $d
     /tmp/ccscnHdD.s:536    .text.startup.main:00000000 $t
     /tmp/ccscnHdD.s:542    .text.startup.main:00000000 main
     /tmp/ccscnHdD.s:586    .text.startup.main:00000030 $d
     .ARM.exidx.text.startup.main:00000000 $d
     /tmp/ccscnHdD.s:598    .bss.twid_:00000000 twid_
     /tmp/ccscnHdD.s:594    .bss.twid_:00000000 $d
     /tmp/ccscnHdD.s:601    .rodata._ZL4pins:00000000 $d
     /tmp/ccscnHdD.s:605    .rodata._ZL4pins:00000000 _ZL4pins
     /tmp/ccscnHdD.s:619    .bss._ZL9waThread1:00000000 $d
     /tmp/ccscnHdD.s:623    .bss._ZL9waThread1:00000000 _ZL9waThread1
                     .debug_frame:00000010 $d

UNDEFINED SYMBOLS
chThdSleep
__aeabi_unwind_cpp_pr0
PIO_Configure
TWI_ConfigureMaster
TWID_Initialize
TWID_Read
TWID_Write
halInit
chSysInit
chThdCreateStatic
