ARM GAS  /tmp/cc6M0mnT.s 			page 1


   1              		.syntax unified
   2              		.cpu cortex-m3
   3              		.fpu softvfp
   4              		.eabi_attribute 20, 1
   5              		.eabi_attribute 21, 1
   6              		.eabi_attribute 23, 3
   7              		.eabi_attribute 24, 1
   8              		.eabi_attribute 25, 1
   9              		.eabi_attribute 26, 1
  10              		.eabi_attribute 30, 2
  11              		.eabi_attribute 34, 1
  12              		.eabi_attribute 18, 4
  13              		.thumb
  14              		.file	"main.cpp"
  15              		.text
  16              	.Ltext0:
  17              		.cfi_sections	.debug_frame
  18              		.section	.text.startup.main,"ax",%progbits
  19              		.align	2
  20              		.p2align 4,,15
  21              		.global	main
  22              		.thumb
  23              		.thumb_func
  24              		.type	main, %function
  25              	main:
  26              		.fnstart
  27              	.LFB36:
  28              		.file 1 "main.cpp"
  29              		.loc 1 30 0
  30              		.cfi_startproc
  31              		@ args = 0, pretend = 0, frame = 0
  32              		@ frame_needed = 0, uses_anonymous_args = 0
  33 0000 38B5     		push	{r3, r4, r5, lr}
  34              		.save {r3, r4, r5, lr}
  35              		.cfi_def_cfa_offset 16
  36              		.cfi_offset 3, -16
  37              		.cfi_offset 4, -12
  38              		.cfi_offset 5, -8
  39              		.cfi_offset 14, -4
  40              		.loc 1 32 0
  41 0002 FFF7FEFF 		bl	halInit
  42              	.LVL0:
  43              		.loc 1 33 0
  44 0006 FFF7FEFF 		bl	chSysInit
  45              	.LVL1:
  46              		.loc 1 36 0
  47 000a 1948     		ldr	r0, .L5
  48 000c 0021     		movs	r1, #0
  49 000e FFF7FEFF 		bl	sdStart
  50              	.LVL2:
  51              		.loc 1 39 0
  52 0012 0121     		movs	r1, #1
  53 0014 1748     		ldr	r0, .L5+4
  54 0016 FFF7FEFF 		bl	PIO_Configure
  55              	.LVL3:
  56              		.loc 1 41 0
  57 001a 0122     		movs	r2, #1
ARM GAS  /tmp/cc6M0mnT.s 			page 2


  58 001c 0020     		movs	r0, #0
  59 001e 1F21     		movs	r1, #31
  60 0020 FFF7FEFF 		bl	PmcConfigurePllClock
  61              	.LVL4:
  62              		.loc 1 44 0
  63 0024 0120     		movs	r0, #1
  64 0026 0021     		movs	r1, #0
  65 0028 FFF7FEFF 		bl	PmcMasterClockSelection
  66              	.LVL5:
  67              		.loc 1 46 0
  68 002c 0220     		movs	r0, #2
  69 002e 0021     		movs	r1, #0
  70 0030 FFF7FEFF 		bl	PmcMasterClockSelection
  71              	.LVL6:
  72              		.loc 1 48 0
  73 0034 0220     		movs	r0, #2
  74 0036 1021     		movs	r1, #16
  75 0038 FFF7FEFF 		bl	ConfigurePck
  76              	.LVL7:
  77              		.loc 1 51 0
  78 003c 0521     		movs	r1, #5
  79 003e 0E48     		ldr	r0, .L5+8
  80 0040 FFF7FEFF 		bl	PIO_Configure
  81              	.LVL8:
  82              		.loc 1 53 0
  83 0044 0D48     		ldr	r0, .L5+12
  84 0046 FFF7FEFF 		bl	_Z20BOARD_ConfigurePSRAMP3Smc
  85              	.LVL9:
  86              		.loc 1 57 0
  87 004a 0D4D     		ldr	r5, .L5+16
  88              	.L2:
  89              		.loc 1 56 0 discriminator 1
  90 004c 0D49     		ldr	r1, .L5+20
  91              		.loc 1 57 0 discriminator 1
  92 004e 4FF40034 		mov	r4, #131072
  93              		.loc 1 56 0 discriminator 1
  94 0052 0748     		ldr	r0, .L5
  95 0054 FFF7FEFF 		bl	chprintf
  96              	.LVL10:
  97              		.loc 1 57 0 discriminator 1
  98 0058 6C63     		str	r4, [r5, #52]
  99              		.loc 1 58 0 discriminator 1
 100 005a 41F28830 		movw	r0, #5000
 101 005e FFF7FEFF 		bl	chThdSleep
 102              	.LVL11:
 103              		.loc 1 59 0 discriminator 1
 104 0062 2C63     		str	r4, [r5, #48]
 105              		.loc 1 60 0 discriminator 1
 106 0064 41F28830 		movw	r0, #5000
 107 0068 FFF7FEFF 		bl	chThdSleep
 108              	.LVL12:
 109              		.loc 1 30 0 discriminator 1
 110 006c EEE7     		b	.L2
 111              	.L6:
 112 006e 00BF     		.align	2
 113              	.L5:
 114 0070 00000000 		.word	SD2
ARM GAS  /tmp/cc6M0mnT.s 			page 3


 115 0074 00000000 		.word	.LANCHOR0
 116 0078 00000000 		.word	.LANCHOR1
 117 007c 00000E40 		.word	1074659328
 118 0080 00120E40 		.word	1074663936
 119 0084 00000000 		.word	.LC0
 120              		.cfi_endproc
 121              	.LFE36:
 122              		.fnend
 123              		.size	main, .-main
 124              		.section	.rodata._ZL6pinPCK,"a",%progbits
 125              		.align	2
 126              		.set	.LANCHOR0,. + 0
 127              		.type	_ZL6pinPCK, %object
 128              		.size	_ZL6pinPCK, 12
 129              	_ZL6pinPCK:
 130 0000 00000080 		.word	-2147483648
 131 0004 000E0E40 		.word	1074662912
 132 0008 0B       		.byte	11
 133 0009 01       		.byte	1
 134 000a 00       		.byte	0
 135 000b 00       		.space	1
 136              		.section	.rodata.str1.4,"aMS",%progbits,1
 137              		.align	2
 138              	.LC0:
 139 0000 48656C6C 		.ascii	"Hello World.\015\012\000"
 139      6F20576F 
 139      726C642E 
 139      0D0A00
 140              		.section	.rodata._ZL8pinPsram,"a",%progbits
 141              		.align	2
 142              		.set	.LANCHOR1,. + 0
 143              		.type	_ZL8pinPsram, %object
 144              		.size	_ZL8pinPsram, 60
 145              	_ZL8pinPsram:
 146 0000 FF000000 		.word	255
 147 0004 00120E40 		.word	1074663936
 148 0008 0D       		.byte	13
 149 0009 00       		.byte	0
 150 000a 01       		.byte	1
 151 000b 00       		.space	1
 152 000c 00080000 		.word	2048
 153 0010 00120E40 		.word	1074663936
 154 0014 0D       		.byte	13
 155 0015 00       		.byte	0
 156 0016 01       		.byte	1
 157 0017 00       		.space	1
 158 0018 00010000 		.word	256
 159 001c 00120E40 		.word	1074663936
 160 0020 0D       		.byte	13
 161 0021 00       		.byte	0
 162 0022 01       		.byte	1
 163 0023 00       		.space	1
 164 0024 00100000 		.word	4096
 165 0028 00120E40 		.word	1074663936
 166 002c 0D       		.byte	13
 167 002d 00       		.byte	0
 168 002e 01       		.byte	1
ARM GAS  /tmp/cc6M0mnT.s 			page 4


 169 002f 00       		.space	1
 170 0030 0000FCFF 		.word	-262144
 171 0034 00120E40 		.word	1074663936
 172 0038 0D       		.byte	13
 173 0039 00       		.byte	0
 174 003a 01       		.byte	1
 175 003b 00       		.space	1
 176              		.text
 177              	.Letext0:
 178              		.file 2 "/home/nixtropy/opt/gcc-arm-none-eabi-4_9-2015q3/arm-none-eabi/include/machine/_default_ty
 179              		.file 3 "/home/nixtropy/opt/gcc-arm-none-eabi-4_9-2015q3/arm-none-eabi/include/sys/_stdint.h"
 180              		.file 4 "/home/nixtropy/opt/gcc-arm-none-eabi-4_9-2015q3/arm-none-eabi/include/stdint.h"
 181              		.file 5 "../../ext/ChibiOS/os/hal/platforms/AT91SAM3S/at91lib/SAM3S.h"
 182              		.file 6 "/home/nixtropy/opt/gcc-arm-none-eabi-4_9-2015q3/lib/gcc/arm-none-eabi/4.9.3/include/stdde
 183              		.file 7 "../../ext/ChibiOS/os/ports/GCC/ARMCMx/chtypes.h"
 184              		.file 8 "../../ext/ChibiOS/os/kernel/include/chlists.h"
 185              		.file 9 "../../ext/ChibiOS/os/kernel/include/chthreads.h"
 186              		.file 10 "../../ext/ChibiOS/os/ports/GCC/ARMCMx/chcore_v7m.h"
 187              		.file 11 "../../ext/ChibiOS/os/kernel/include/chmtx.h"
 188              		.file 12 "../../ext/ChibiOS/os/kernel/include/chevents.h"
 189              		.file 13 "../../ext/ChibiOS/os/kernel/include/chqueues.h"
 190              		.file 14 "../../ext/ChibiOS/os/kernel/include/chioch.h"
 191              		.file 15 "../../ext/ChibiOS/os/hal/platforms/AT91SAM3S/pal_lld.h"
 192              		.file 16 "../../ext/ChibiOS/os/hal/include/serial.h"
 193              		.file 17 "../../ext/ChibiOS/os/hal/platforms/AT91SAM3S/serial_lld.h"
 194              		.file 18 "../../ext/ChibiOS/os/hal/platforms/AT91SAM3S/pio.h"
 195              		.file 19 "psram.h"
 196              		.file 20 "../../ext/ChibiOS/os/hal/include/hal.h"
 197              		.file 21 "../../ext/ChibiOS/os/kernel/include/chsys.h"
 198              		.file 22 "../../ext/ChibiOS/os/hal/platforms/AT91SAM3S/pmc.h"
 199              		.file 23 "../../ext/ChibiOS/os/various/chprintf.h"
 200              		.file 24 "../../ext/ChibiOS/os/hal/platforms/AT91SAM3S/core_cm3.h"
 201              		.section	.debug_info,"",%progbits
 202              	.Ldebug_info0:
 203 0000 C1110000 		.4byte	0x11c1
 204 0004 0400     		.2byte	0x4
 205 0006 00000000 		.4byte	.Ldebug_abbrev0
 206 000a 04       		.byte	0x4
 207 000b 01       		.uleb128 0x1
 208 000c 1A040000 		.4byte	.LASF236
 209 0010 04       		.byte	0x4
 210 0011 CE010000 		.4byte	.LASF237
 211 0015 ED060000 		.4byte	.LASF238
 212 0019 00000000 		.4byte	.Ldebug_ranges0+0
 213 001d 00000000 		.4byte	0
 214 0021 00000000 		.4byte	.Ldebug_line0
 215 0025 02       		.uleb128 0x2
 216 0026 01       		.byte	0x1
 217 0027 06       		.byte	0x6
 218 0028 D7010000 		.4byte	.LASF0
 219 002c 03       		.uleb128 0x3
 220 002d EA000000 		.4byte	.LASF4
 221 0031 02       		.byte	0x2
 222 0032 1D       		.byte	0x1d
 223 0033 37000000 		.4byte	0x37
 224 0037 02       		.uleb128 0x2
 225 0038 01       		.byte	0x1
ARM GAS  /tmp/cc6M0mnT.s 			page 5


 226 0039 08       		.byte	0x8
 227 003a 18020000 		.4byte	.LASF1
 228 003e 02       		.uleb128 0x2
 229 003f 02       		.byte	0x2
 230 0040 05       		.byte	0x5
 231 0041 B3080000 		.4byte	.LASF2
 232 0045 02       		.uleb128 0x2
 233 0046 02       		.byte	0x2
 234 0047 07       		.byte	0x7
 235 0048 82090000 		.4byte	.LASF3
 236 004c 03       		.uleb128 0x3
 237 004d C0090000 		.4byte	.LASF5
 238 0051 02       		.byte	0x2
 239 0052 3F       		.byte	0x3f
 240 0053 57000000 		.4byte	0x57
 241 0057 02       		.uleb128 0x2
 242 0058 04       		.byte	0x4
 243 0059 05       		.byte	0x5
 244 005a 4B010000 		.4byte	.LASF6
 245 005e 03       		.uleb128 0x3
 246 005f 87050000 		.4byte	.LASF7
 247 0063 02       		.byte	0x2
 248 0064 41       		.byte	0x41
 249 0065 69000000 		.4byte	0x69
 250 0069 02       		.uleb128 0x2
 251 006a 04       		.byte	0x4
 252 006b 07       		.byte	0x7
 253 006c 19050000 		.4byte	.LASF8
 254 0070 02       		.uleb128 0x2
 255 0071 08       		.byte	0x8
 256 0072 05       		.byte	0x5
 257 0073 AB050000 		.4byte	.LASF9
 258 0077 02       		.uleb128 0x2
 259 0078 08       		.byte	0x8
 260 0079 07       		.byte	0x7
 261 007a 5E070000 		.4byte	.LASF10
 262 007e 04       		.uleb128 0x4
 263 007f 04       		.byte	0x4
 264 0080 05       		.byte	0x5
 265 0081 696E7400 		.ascii	"int\000"
 266 0085 02       		.uleb128 0x2
 267 0086 04       		.byte	0x4
 268 0087 07       		.byte	0x7
 269 0088 59060000 		.4byte	.LASF11
 270 008c 03       		.uleb128 0x3
 271 008d EA010000 		.4byte	.LASF12
 272 0091 03       		.byte	0x3
 273 0092 14       		.byte	0x14
 274 0093 2C000000 		.4byte	0x2c
 275 0097 03       		.uleb128 0x3
 276 0098 5C000000 		.4byte	.LASF13
 277 009c 03       		.byte	0x3
 278 009d 1F       		.byte	0x1f
 279 009e 4C000000 		.4byte	0x4c
 280 00a2 03       		.uleb128 0x3
 281 00a3 2F090000 		.4byte	.LASF14
 282 00a7 03       		.byte	0x3
ARM GAS  /tmp/cc6M0mnT.s 			page 6


 283 00a8 20       		.byte	0x20
 284 00a9 5E000000 		.4byte	0x5e
 285 00ad 03       		.uleb128 0x3
 286 00ae 58090000 		.4byte	.LASF15
 287 00b2 04       		.byte	0x4
 288 00b3 3E       		.byte	0x3e
 289 00b4 85000000 		.4byte	0x85
 290 00b8 03       		.uleb128 0x3
 291 00b9 BD080000 		.4byte	.LASF16
 292 00bd 05       		.byte	0x5
 293 00be 37       		.byte	0x37
 294 00bf C3000000 		.4byte	0xc3
 295 00c3 05       		.uleb128 0x5
 296 00c4 A2000000 		.4byte	0xa2
 297 00c8 03       		.uleb128 0x3
 298 00c9 8B000000 		.4byte	.LASF17
 299 00cd 05       		.byte	0x5
 300 00ce 39       		.byte	0x39
 301 00cf C3000000 		.4byte	0xc3
 302 00d3 03       		.uleb128 0x3
 303 00d4 E5080000 		.4byte	.LASF18
 304 00d8 05       		.byte	0x5
 305 00d9 3A       		.byte	0x3a
 306 00da C3000000 		.4byte	0xc3
 307 00de 02       		.uleb128 0x2
 308 00df 04       		.byte	0x4
 309 00e0 07       		.byte	0x7
 310 00e1 29000000 		.4byte	.LASF19
 311 00e5 06       		.uleb128 0x6
 312 00e6 69000000 		.4byte	0x69
 313 00ea F5000000 		.4byte	0xf5
 314 00ee 07       		.uleb128 0x7
 315 00ef DE000000 		.4byte	0xde
 316 00f3 12       		.byte	0x12
 317 00f4 00       		.byte	0
 318 00f5 06       		.uleb128 0x6
 319 00f6 69000000 		.4byte	0x69
 320 00fa 05010000 		.4byte	0x105
 321 00fe 07       		.uleb128 0x7
 322 00ff DE000000 		.4byte	0xde
 323 0103 00       		.byte	0
 324 0104 00       		.byte	0
 325 0105 06       		.uleb128 0x6
 326 0106 69000000 		.4byte	0x69
 327 010a 15010000 		.4byte	0x115
 328 010e 07       		.uleb128 0x7
 329 010f DE000000 		.4byte	0xde
 330 0113 01       		.byte	0x1
 331 0114 00       		.byte	0
 332 0115 06       		.uleb128 0x6
 333 0116 69000000 		.4byte	0x69
 334 011a 25010000 		.4byte	0x125
 335 011e 07       		.uleb128 0x7
 336 011f DE000000 		.4byte	0xde
 337 0123 04       		.byte	0x4
 338 0124 00       		.byte	0
 339 0125 06       		.uleb128 0x6
ARM GAS  /tmp/cc6M0mnT.s 			page 7


 340 0126 69000000 		.4byte	0x69
 341 012a 35010000 		.4byte	0x135
 342 012e 07       		.uleb128 0x7
 343 012f DE000000 		.4byte	0xde
 344 0133 0B       		.byte	0xb
 345 0134 00       		.byte	0
 346 0135 08       		.uleb128 0x8
 347 0136 9001     		.2byte	0x190
 348 0138 05       		.byte	0x5
 349 0139 DA06     		.2byte	0x6da
 350 013b 51050000 		.4byte	.LASF109
 351 013f 32050000 		.4byte	0x532
 352 0143 09       		.uleb128 0x9
 353 0144 95090000 		.4byte	.LASF20
 354 0148 05       		.byte	0x5
 355 0149 DB06     		.2byte	0x6db
 356 014b C8000000 		.4byte	0xc8
 357 014f 00       		.byte	0
 358 0150 09       		.uleb128 0x9
 359 0151 52030000 		.4byte	.LASF21
 360 0155 05       		.byte	0x5
 361 0156 DC06     		.2byte	0x6dc
 362 0158 C8000000 		.4byte	0xc8
 363 015c 04       		.byte	0x4
 364 015d 09       		.uleb128 0x9
 365 015e F7030000 		.4byte	.LASF22
 366 0162 05       		.byte	0x5
 367 0163 DD06     		.2byte	0x6dd
 368 0165 B8000000 		.4byte	0xb8
 369 0169 08       		.byte	0x8
 370 016a 09       		.uleb128 0x9
 371 016b FB070000 		.4byte	.LASF23
 372 016f 05       		.byte	0x5
 373 0170 DE06     		.2byte	0x6de
 374 0172 32050000 		.4byte	0x532
 375 0176 0C       		.byte	0xc
 376 0177 09       		.uleb128 0x9
 377 0178 B7070000 		.4byte	.LASF24
 378 017c 05       		.byte	0x5
 379 017d DF06     		.2byte	0x6df
 380 017f C8000000 		.4byte	0xc8
 381 0183 10       		.byte	0x10
 382 0184 09       		.uleb128 0x9
 383 0185 8F070000 		.4byte	.LASF25
 384 0189 05       		.byte	0x5
 385 018a E006     		.2byte	0x6e0
 386 018c C8000000 		.4byte	0xc8
 387 0190 14       		.byte	0x14
 388 0191 09       		.uleb128 0x9
 389 0192 C6010000 		.4byte	.LASF26
 390 0196 05       		.byte	0x5
 391 0197 E106     		.2byte	0x6e1
 392 0199 B8000000 		.4byte	0xb8
 393 019d 18       		.byte	0x18
 394 019e 09       		.uleb128 0x9
 395 019f 05080000 		.4byte	.LASF27
 396 01a3 05       		.byte	0x5
ARM GAS  /tmp/cc6M0mnT.s 			page 8


 397 01a4 E206     		.2byte	0x6e2
 398 01a6 37050000 		.4byte	0x537
 399 01aa 1C       		.byte	0x1c
 400 01ab 09       		.uleb128 0x9
 401 01ac 9D070000 		.4byte	.LASF28
 402 01b0 05       		.byte	0x5
 403 01b1 E306     		.2byte	0x6e3
 404 01b3 C8000000 		.4byte	0xc8
 405 01b7 20       		.byte	0x20
 406 01b8 09       		.uleb128 0x9
 407 01b9 46070000 		.4byte	.LASF29
 408 01bd 05       		.byte	0x5
 409 01be E406     		.2byte	0x6e4
 410 01c0 C8000000 		.4byte	0xc8
 411 01c4 24       		.byte	0x24
 412 01c5 09       		.uleb128 0x9
 413 01c6 73010000 		.4byte	.LASF30
 414 01ca 05       		.byte	0x5
 415 01cb E506     		.2byte	0x6e5
 416 01cd B8000000 		.4byte	0xb8
 417 01d1 28       		.byte	0x28
 418 01d2 09       		.uleb128 0x9
 419 01d3 0F080000 		.4byte	.LASF31
 420 01d7 05       		.byte	0x5
 421 01d8 E606     		.2byte	0x6e6
 422 01da 3C050000 		.4byte	0x53c
 423 01de 2C       		.byte	0x2c
 424 01df 09       		.uleb128 0x9
 425 01e0 20060000 		.4byte	.LASF32
 426 01e4 05       		.byte	0x5
 427 01e5 E706     		.2byte	0x6e7
 428 01e7 C8000000 		.4byte	0xc8
 429 01eb 30       		.byte	0x30
 430 01ec 09       		.uleb128 0x9
 431 01ed 76050000 		.4byte	.LASF33
 432 01f1 05       		.byte	0x5
 433 01f2 E806     		.2byte	0x6e8
 434 01f4 C8000000 		.4byte	0xc8
 435 01f8 34       		.byte	0x34
 436 01f9 09       		.uleb128 0x9
 437 01fa 83080000 		.4byte	.LASF34
 438 01fe 05       		.byte	0x5
 439 01ff E906     		.2byte	0x6e9
 440 0201 D3000000 		.4byte	0xd3
 441 0205 38       		.byte	0x38
 442 0206 09       		.uleb128 0x9
 443 0207 18030000 		.4byte	.LASF35
 444 020b 05       		.byte	0x5
 445 020c EA06     		.2byte	0x6ea
 446 020e B8000000 		.4byte	0xb8
 447 0212 3C       		.byte	0x3c
 448 0213 09       		.uleb128 0x9
 449 0214 E7050000 		.4byte	.LASF36
 450 0218 05       		.byte	0x5
 451 0219 EB06     		.2byte	0x6eb
 452 021b C8000000 		.4byte	0xc8
 453 021f 40       		.byte	0x40
ARM GAS  /tmp/cc6M0mnT.s 			page 9


 454 0220 09       		.uleb128 0x9
 455 0221 92050000 		.4byte	.LASF37
 456 0225 05       		.byte	0x5
 457 0226 EC06     		.2byte	0x6ec
 458 0228 C8000000 		.4byte	0xc8
 459 022c 44       		.byte	0x44
 460 022d 09       		.uleb128 0x9
 461 022e 72080000 		.4byte	.LASF38
 462 0232 05       		.byte	0x5
 463 0233 ED06     		.2byte	0x6ed
 464 0235 B8000000 		.4byte	0xb8
 465 0239 48       		.byte	0x48
 466 023a 09       		.uleb128 0x9
 467 023b 110A0000 		.4byte	.LASF39
 468 023f 05       		.byte	0x5
 469 0240 EE06     		.2byte	0x6ee
 470 0242 B8000000 		.4byte	0xb8
 471 0246 4C       		.byte	0x4c
 472 0247 09       		.uleb128 0x9
 473 0248 49030000 		.4byte	.LASF40
 474 024c 05       		.byte	0x5
 475 024d EF06     		.2byte	0x6ef
 476 024f C8000000 		.4byte	0xc8
 477 0253 50       		.byte	0x50
 478 0254 09       		.uleb128 0x9
 479 0255 08030000 		.4byte	.LASF41
 480 0259 05       		.byte	0x5
 481 025a F006     		.2byte	0x6f0
 482 025c C8000000 		.4byte	0xc8
 483 0260 54       		.byte	0x54
 484 0261 09       		.uleb128 0x9
 485 0262 69080000 		.4byte	.LASF42
 486 0266 05       		.byte	0x5
 487 0267 F106     		.2byte	0x6f1
 488 0269 B8000000 		.4byte	0xb8
 489 026d 58       		.byte	0x58
 490 026e 09       		.uleb128 0x9
 491 026f 19080000 		.4byte	.LASF43
 492 0273 05       		.byte	0x5
 493 0274 F206     		.2byte	0x6f2
 494 0276 41050000 		.4byte	0x541
 495 027a 5C       		.byte	0x5c
 496 027b 09       		.uleb128 0x9
 497 027c 26020000 		.4byte	.LASF44
 498 0280 05       		.byte	0x5
 499 0281 F306     		.2byte	0x6f3
 500 0283 C8000000 		.4byte	0xc8
 501 0287 60       		.byte	0x60
 502 0288 09       		.uleb128 0x9
 503 0289 A9020000 		.4byte	.LASF45
 504 028d 05       		.byte	0x5
 505 028e F406     		.2byte	0x6f4
 506 0290 C8000000 		.4byte	0xc8
 507 0294 64       		.byte	0x64
 508 0295 09       		.uleb128 0x9
 509 0296 A6070000 		.4byte	.LASF46
 510 029a 05       		.byte	0x5
ARM GAS  /tmp/cc6M0mnT.s 			page 10


 511 029b F506     		.2byte	0x6f5
 512 029d B8000000 		.4byte	0xb8
 513 02a1 68       		.byte	0x68
 514 02a2 09       		.uleb128 0x9
 515 02a3 23080000 		.4byte	.LASF47
 516 02a7 05       		.byte	0x5
 517 02a8 F606     		.2byte	0x6f6
 518 02aa 46050000 		.4byte	0x546
 519 02ae 6C       		.byte	0x6c
 520 02af 09       		.uleb128 0x9
 521 02b0 7C010000 		.4byte	.LASF48
 522 02b4 05       		.byte	0x5
 523 02b5 F706     		.2byte	0x6f7
 524 02b7 4B050000 		.4byte	0x54b
 525 02bb 70       		.byte	0x70
 526 02bc 09       		.uleb128 0x9
 527 02bd 2D080000 		.4byte	.LASF49
 528 02c1 05       		.byte	0x5
 529 02c2 F806     		.2byte	0x6f8
 530 02c4 50050000 		.4byte	0x550
 531 02c8 78       		.byte	0x78
 532 02c9 09       		.uleb128 0x9
 533 02ca C9050000 		.4byte	.LASF50
 534 02ce 05       		.byte	0x5
 535 02cf F906     		.2byte	0x6f9
 536 02d1 C8000000 		.4byte	0xc8
 537 02d5 80       		.byte	0x80
 538 02d6 09       		.uleb128 0x9
 539 02d7 29060000 		.4byte	.LASF51
 540 02db 05       		.byte	0x5
 541 02dc FA06     		.2byte	0x6fa
 542 02de C8000000 		.4byte	0xc8
 543 02e2 84       		.byte	0x84
 544 02e3 09       		.uleb128 0x9
 545 02e4 09000000 		.4byte	.LASF52
 546 02e8 05       		.byte	0x5
 547 02e9 FB06     		.2byte	0x6fb
 548 02eb B8000000 		.4byte	0xb8
 549 02ef 88       		.byte	0x88
 550 02f0 09       		.uleb128 0x9
 551 02f1 D8000000 		.4byte	.LASF53
 552 02f5 05       		.byte	0x5
 553 02f6 FC06     		.2byte	0x6fc
 554 02f8 D3000000 		.4byte	0xd3
 555 02fc 8C       		.byte	0x8c
 556 02fd 09       		.uleb128 0x9
 557 02fe 39010000 		.4byte	.LASF54
 558 0302 05       		.byte	0x5
 559 0303 FD06     		.2byte	0x6fd
 560 0305 C8000000 		.4byte	0xc8
 561 0309 90       		.byte	0x90
 562 030a 09       		.uleb128 0x9
 563 030b B4010000 		.4byte	.LASF55
 564 030f 05       		.byte	0x5
 565 0310 FE06     		.2byte	0x6fe
 566 0312 C8000000 		.4byte	0xc8
 567 0316 94       		.byte	0x94
ARM GAS  /tmp/cc6M0mnT.s 			page 11


 568 0317 09       		.uleb128 0x9
 569 0318 CA060000 		.4byte	.LASF56
 570 031c 05       		.byte	0x5
 571 031d FF06     		.2byte	0x6ff
 572 031f B8000000 		.4byte	0xb8
 573 0323 98       		.byte	0x98
 574 0324 09       		.uleb128 0x9
 575 0325 37080000 		.4byte	.LASF57
 576 0329 05       		.byte	0x5
 577 032a 0007     		.2byte	0x700
 578 032c 55050000 		.4byte	0x555
 579 0330 9C       		.byte	0x9c
 580 0331 09       		.uleb128 0x9
 581 0332 6A010000 		.4byte	.LASF58
 582 0336 05       		.byte	0x5
 583 0337 0107     		.2byte	0x701
 584 0339 C8000000 		.4byte	0xc8
 585 033d A0       		.byte	0xa0
 586 033e 09       		.uleb128 0x9
 587 033f 0F010000 		.4byte	.LASF59
 588 0343 05       		.byte	0x5
 589 0344 0207     		.2byte	0x702
 590 0346 C8000000 		.4byte	0xc8
 591 034a A4       		.byte	0xa4
 592 034b 09       		.uleb128 0x9
 593 034c B7060000 		.4byte	.LASF60
 594 0350 05       		.byte	0x5
 595 0351 0307     		.2byte	0x703
 596 0353 B8000000 		.4byte	0xb8
 597 0357 A8       		.byte	0xa8
 598 0358 09       		.uleb128 0x9
 599 0359 41080000 		.4byte	.LASF61
 600 035d 05       		.byte	0x5
 601 035e 0407     		.2byte	0x704
 602 0360 5A050000 		.4byte	0x55a
 603 0364 AC       		.byte	0xac
 604 0365 09       		.uleb128 0x9
 605 0366 55080000 		.4byte	.LASF62
 606 036a 05       		.byte	0x5
 607 036b 0507     		.2byte	0x705
 608 036d C8000000 		.4byte	0xc8
 609 0371 B0       		.byte	0xb0
 610 0372 09       		.uleb128 0x9
 611 0373 BF070000 		.4byte	.LASF63
 612 0377 05       		.byte	0x5
 613 0378 0607     		.2byte	0x706
 614 037a C8000000 		.4byte	0xc8
 615 037e B4       		.byte	0xb4
 616 037f 09       		.uleb128 0x9
 617 0380 78000000 		.4byte	.LASF64
 618 0384 05       		.byte	0x5
 619 0385 0707     		.2byte	0x707
 620 0387 B8000000 		.4byte	0xb8
 621 038b B8       		.byte	0xb8
 622 038c 09       		.uleb128 0x9
 623 038d 4B080000 		.4byte	.LASF65
 624 0391 05       		.byte	0x5
ARM GAS  /tmp/cc6M0mnT.s 			page 12


 625 0392 0807     		.2byte	0x708
 626 0394 5F050000 		.4byte	0x55f
 627 0398 BC       		.byte	0xbc
 628 0399 09       		.uleb128 0x9
 629 039a BE010000 		.4byte	.LASF66
 630 039e 05       		.byte	0x5
 631 039f 0907     		.2byte	0x709
 632 03a1 C8000000 		.4byte	0xc8
 633 03a5 C0       		.byte	0xc0
 634 03a6 09       		.uleb128 0x9
 635 03a7 7F060000 		.4byte	.LASF67
 636 03ab 05       		.byte	0x5
 637 03ac 0A07     		.2byte	0x70a
 638 03ae C8000000 		.4byte	0xc8
 639 03b2 C4       		.byte	0xc4
 640 03b3 09       		.uleb128 0x9
 641 03b4 B9030000 		.4byte	.LASF68
 642 03b8 05       		.byte	0x5
 643 03b9 0B07     		.2byte	0x70b
 644 03bb B8000000 		.4byte	0xb8
 645 03bf C8       		.byte	0xc8
 646 03c0 09       		.uleb128 0x9
 647 03c1 C8020000 		.4byte	.LASF69
 648 03c5 05       		.byte	0x5
 649 03c6 0C07     		.2byte	0x70c
 650 03c8 64050000 		.4byte	0x564
 651 03cc CC       		.byte	0xcc
 652 03cd 09       		.uleb128 0x9
 653 03ce 3E030000 		.4byte	.LASF70
 654 03d2 05       		.byte	0x5
 655 03d3 0D07     		.2byte	0x70d
 656 03d5 C8000000 		.4byte	0xc8
 657 03d9 D0       		.byte	0xd0
 658 03da 09       		.uleb128 0x9
 659 03db 70090000 		.4byte	.LASF71
 660 03df 05       		.byte	0x5
 661 03e0 0E07     		.2byte	0x70e
 662 03e2 C8000000 		.4byte	0xc8
 663 03e6 D4       		.byte	0xd4
 664 03e7 09       		.uleb128 0x9
 665 03e8 DC070000 		.4byte	.LASF72
 666 03ec 05       		.byte	0x5
 667 03ed 0F07     		.2byte	0x70f
 668 03ef B8000000 		.4byte	0xb8
 669 03f3 D8       		.byte	0xd8
 670 03f4 09       		.uleb128 0x9
 671 03f5 D3020000 		.4byte	.LASF73
 672 03f9 05       		.byte	0x5
 673 03fa 1007     		.2byte	0x710
 674 03fc 69050000 		.4byte	0x569
 675 0400 DC       		.byte	0xdc
 676 0401 09       		.uleb128 0x9
 677 0402 27030000 		.4byte	.LASF74
 678 0406 05       		.byte	0x5
 679 0407 1107     		.2byte	0x711
 680 0409 B8000000 		.4byte	0xb8
 681 040d E0       		.byte	0xe0
ARM GAS  /tmp/cc6M0mnT.s 			page 13


 682 040e 09       		.uleb128 0x9
 683 040f 91000000 		.4byte	.LASF75
 684 0413 05       		.byte	0x5
 685 0414 1207     		.2byte	0x712
 686 0416 D3000000 		.4byte	0xd3
 687 041a E4       		.byte	0xe4
 688 041b 09       		.uleb128 0x9
 689 041c 79020000 		.4byte	.LASF76
 690 0420 05       		.byte	0x5
 691 0421 1307     		.2byte	0x713
 692 0423 B8000000 		.4byte	0xb8
 693 0427 E8       		.byte	0xe8
 694 0428 09       		.uleb128 0x9
 695 0429 DE020000 		.4byte	.LASF77
 696 042d 05       		.byte	0x5
 697 042e 1407     		.2byte	0x714
 698 0430 6E050000 		.4byte	0x56e
 699 0434 EC       		.byte	0xec
 700 0435 0A       		.uleb128 0xa
 701 0436 A7080000 		.4byte	.LASF78
 702 043a 05       		.byte	0x5
 703 043b 1507     		.2byte	0x715
 704 043d D3000000 		.4byte	0xd3
 705 0441 0001     		.2byte	0x100
 706 0443 0A       		.uleb128 0xa
 707 0444 E9020000 		.4byte	.LASF79
 708 0448 05       		.byte	0x5
 709 0449 1607     		.2byte	0x716
 710 044b 73050000 		.4byte	0x573
 711 044f 0401     		.2byte	0x104
 712 0451 0A       		.uleb128 0xa
 713 0452 1C090000 		.4byte	.LASF80
 714 0456 05       		.byte	0x5
 715 0457 1707     		.2byte	0x717
 716 0459 D3000000 		.4byte	0xd3
 717 045d 5001     		.2byte	0x150
 718 045f 0A       		.uleb128 0xa
 719 0460 AD060000 		.4byte	.LASF81
 720 0464 05       		.byte	0x5
 721 0465 1807     		.2byte	0x718
 722 0467 C8000000 		.4byte	0xc8
 723 046b 5401     		.2byte	0x154
 724 046d 0A       		.uleb128 0xa
 725 046e 75060000 		.4byte	.LASF82
 726 0472 05       		.byte	0x5
 727 0473 1907     		.2byte	0x719
 728 0475 C8000000 		.4byte	0xc8
 729 0479 5801     		.2byte	0x158
 730 047b 0A       		.uleb128 0xa
 731 047c FC080000 		.4byte	.LASF83
 732 0480 05       		.byte	0x5
 733 0481 1A07     		.2byte	0x71a
 734 0483 B8000000 		.4byte	0xb8
 735 0487 5C01     		.2byte	0x15c
 736 0489 0A       		.uleb128 0xa
 737 048a AE000000 		.4byte	.LASF84
 738 048e 05       		.byte	0x5
ARM GAS  /tmp/cc6M0mnT.s 			page 14


 739 048f 1B07     		.2byte	0x71b
 740 0491 B8000000 		.4byte	0xb8
 741 0495 6001     		.2byte	0x160
 742 0497 0A       		.uleb128 0xa
 743 0498 F4050000 		.4byte	.LASF85
 744 049c 05       		.byte	0x5
 745 049d 1C07     		.2byte	0x71c
 746 049f B8000000 		.4byte	0xb8
 747 04a3 6401     		.2byte	0x164
 748 04a5 0A       		.uleb128 0xa
 749 04a6 87070000 		.4byte	.LASF86
 750 04aa 05       		.byte	0x5
 751 04ab 1D07     		.2byte	0x71d
 752 04ad D3000000 		.4byte	0xd3
 753 04b1 6801     		.2byte	0x168
 754 04b3 0A       		.uleb128 0xa
 755 04b4 C0020000 		.4byte	.LASF87
 756 04b8 05       		.byte	0x5
 757 04b9 1E07     		.2byte	0x71e
 758 04bb D3000000 		.4byte	0xd3
 759 04bf 6C01     		.2byte	0x16c
 760 04c1 0A       		.uleb128 0xa
 761 04c2 C6000000 		.4byte	.LASF88
 762 04c6 05       		.byte	0x5
 763 04c7 1F07     		.2byte	0x71f
 764 04c9 D3000000 		.4byte	0xd3
 765 04cd 7001     		.2byte	0x170
 766 04cf 0A       		.uleb128 0xa
 767 04d0 56070000 		.4byte	.LASF89
 768 04d4 05       		.byte	0x5
 769 04d5 2007     		.2byte	0x720
 770 04d7 D3000000 		.4byte	0xd3
 771 04db 7401     		.2byte	0x174
 772 04dd 0A       		.uleb128 0xa
 773 04de 0F020000 		.4byte	.LASF90
 774 04e2 05       		.byte	0x5
 775 04e3 2107     		.2byte	0x721
 776 04e5 D3000000 		.4byte	0xd3
 777 04e9 7801     		.2byte	0x178
 778 04eb 0A       		.uleb128 0xa
 779 04ec 8C080000 		.4byte	.LASF91
 780 04f0 05       		.byte	0x5
 781 04f1 2207     		.2byte	0x722
 782 04f3 D3000000 		.4byte	0xd3
 783 04f7 7C01     		.2byte	0x17c
 784 04f9 0A       		.uleb128 0xa
 785 04fa 45020000 		.4byte	.LASF92
 786 04fe 05       		.byte	0x5
 787 04ff 2307     		.2byte	0x723
 788 0501 D3000000 		.4byte	0xd3
 789 0505 8001     		.2byte	0x180
 790 0507 0A       		.uleb128 0xa
 791 0508 9E080000 		.4byte	.LASF93
 792 050c 05       		.byte	0x5
 793 050d 2407     		.2byte	0x724
 794 050f D3000000 		.4byte	0xd3
 795 0513 8401     		.2byte	0x184
ARM GAS  /tmp/cc6M0mnT.s 			page 15


 796 0515 0A       		.uleb128 0xa
 797 0516 340A0000 		.4byte	.LASF94
 798 051a 05       		.byte	0x5
 799 051b 2507     		.2byte	0x725
 800 051d C8000000 		.4byte	0xc8
 801 0521 8801     		.2byte	0x188
 802 0523 0A       		.uleb128 0xa
 803 0524 DE050000 		.4byte	.LASF95
 804 0528 05       		.byte	0x5
 805 0529 2607     		.2byte	0x726
 806 052b B8000000 		.4byte	0xb8
 807 052f 8C01     		.2byte	0x18c
 808 0531 00       		.byte	0
 809 0532 05       		.uleb128 0x5
 810 0533 F5000000 		.4byte	0xf5
 811 0537 05       		.uleb128 0x5
 812 0538 F5000000 		.4byte	0xf5
 813 053c 05       		.uleb128 0x5
 814 053d F5000000 		.4byte	0xf5
 815 0541 05       		.uleb128 0x5
 816 0542 F5000000 		.4byte	0xf5
 817 0546 05       		.uleb128 0x5
 818 0547 F5000000 		.4byte	0xf5
 819 054b 05       		.uleb128 0x5
 820 054c 05010000 		.4byte	0x105
 821 0550 05       		.uleb128 0x5
 822 0551 05010000 		.4byte	0x105
 823 0555 05       		.uleb128 0x5
 824 0556 F5000000 		.4byte	0xf5
 825 055a 05       		.uleb128 0x5
 826 055b F5000000 		.4byte	0xf5
 827 055f 05       		.uleb128 0x5
 828 0560 F5000000 		.4byte	0xf5
 829 0564 05       		.uleb128 0x5
 830 0565 F5000000 		.4byte	0xf5
 831 0569 05       		.uleb128 0x5
 832 056a F5000000 		.4byte	0xf5
 833 056e 05       		.uleb128 0x5
 834 056f 15010000 		.4byte	0x115
 835 0573 05       		.uleb128 0x5
 836 0574 E5000000 		.4byte	0xe5
 837 0578 0B       		.uleb128 0xb
 838 0579 50696F00 		.ascii	"Pio\000"
 839 057d 05       		.byte	0x5
 840 057e 2707     		.2byte	0x727
 841 0580 35010000 		.4byte	0x135
 842 0584 0C       		.uleb128 0xc
 843 0585 10       		.byte	0x10
 844 0586 05       		.byte	0x5
 845 0587 E111     		.2byte	0x11e1
 846 0589 9A020000 		.4byte	.LASF101
 847 058d C6050000 		.4byte	0x5c6
 848 0591 09       		.uleb128 0x9
 849 0592 D4050000 		.4byte	.LASF96
 850 0596 05       		.byte	0x5
 851 0597 E211     		.2byte	0x11e2
 852 0599 D3000000 		.4byte	0xd3
ARM GAS  /tmp/cc6M0mnT.s 			page 16


 853 059d 00       		.byte	0
 854 059e 09       		.uleb128 0x9
 855 059f DE030000 		.4byte	.LASF97
 856 05a3 05       		.byte	0x5
 857 05a4 E311     		.2byte	0x11e3
 858 05a6 D3000000 		.4byte	0xd3
 859 05aa 04       		.byte	0x4
 860 05ab 09       		.uleb128 0x9
 861 05ac D4030000 		.4byte	.LASF98
 862 05b0 05       		.byte	0x5
 863 05b1 E411     		.2byte	0x11e4
 864 05b3 D3000000 		.4byte	0xd3
 865 05b7 08       		.byte	0x8
 866 05b8 09       		.uleb128 0x9
 867 05b9 66020000 		.4byte	.LASF99
 868 05bd 05       		.byte	0x5
 869 05be E511     		.2byte	0x11e5
 870 05c0 D3000000 		.4byte	0xd3
 871 05c4 0C       		.byte	0xc
 872 05c5 00       		.byte	0
 873 05c6 0D       		.uleb128 0xd
 874 05c7 38020000 		.4byte	.LASF100
 875 05cb 05       		.byte	0x5
 876 05cc E611     		.2byte	0x11e6
 877 05ce 84050000 		.4byte	0x584
 878 05d2 0C       		.uleb128 0xc
 879 05d3 EC       		.byte	0xec
 880 05d4 05       		.byte	0x5
 881 05d5 E811     		.2byte	0x11e8
 882 05d7 A6010000 		.4byte	.LASF102
 883 05db 48060000 		.4byte	0x648
 884 05df 09       		.uleb128 0x9
 885 05e0 58020000 		.4byte	.LASF103
 886 05e4 05       		.byte	0x5
 887 05e5 E911     		.2byte	0x11e9
 888 05e7 48060000 		.4byte	0x648
 889 05eb 00       		.byte	0
 890 05ec 09       		.uleb128 0x9
 891 05ed FB070000 		.4byte	.LASF23
 892 05f1 05       		.byte	0x5
 893 05f2 EA11     		.2byte	0x11ea
 894 05f4 58060000 		.4byte	0x658
 895 05f8 50       		.byte	0x50
 896 05f9 09       		.uleb128 0x9
 897 05fa 30010000 		.4byte	.LASF104
 898 05fe 05       		.byte	0x5
 899 05ff EB11     		.2byte	0x11eb
 900 0601 D3000000 		.4byte	0xd3
 901 0605 80       		.byte	0x80
 902 0606 09       		.uleb128 0x9
 903 0607 06020000 		.4byte	.LASF105
 904 060b 05       		.byte	0x5
 905 060c EC11     		.2byte	0x11ec
 906 060e C8000000 		.4byte	0xc8
 907 0612 84       		.byte	0x84
 908 0613 09       		.uleb128 0x9
 909 0614 38090000 		.4byte	.LASF106
ARM GAS  /tmp/cc6M0mnT.s 			page 17


 910 0618 05       		.byte	0x5
 911 0619 ED11     		.2byte	0x11ed
 912 061b C8000000 		.4byte	0xc8
 913 061f 88       		.byte	0x88
 914 0620 09       		.uleb128 0x9
 915 0621 05080000 		.4byte	.LASF27
 916 0625 05       		.byte	0x5
 917 0626 EE11     		.2byte	0x11ee
 918 0628 6D060000 		.4byte	0x66d
 919 062c 8C       		.byte	0x8c
 920 062d 09       		.uleb128 0x9
 921 062e 95080000 		.4byte	.LASF107
 922 0632 05       		.byte	0x5
 923 0633 EF11     		.2byte	0x11ef
 924 0635 D3000000 		.4byte	0xd3
 925 0639 E4       		.byte	0xe4
 926 063a 09       		.uleb128 0x9
 927 063b 00000000 		.4byte	.LASF108
 928 063f 05       		.byte	0x5
 929 0640 F011     		.2byte	0x11f0
 930 0642 B8000000 		.4byte	0xb8
 931 0646 E8       		.byte	0xe8
 932 0647 00       		.byte	0
 933 0648 06       		.uleb128 0x6
 934 0649 C6050000 		.4byte	0x5c6
 935 064d 58060000 		.4byte	0x658
 936 0651 07       		.uleb128 0x7
 937 0652 DE000000 		.4byte	0xde
 938 0656 04       		.byte	0x4
 939 0657 00       		.byte	0
 940 0658 05       		.uleb128 0x5
 941 0659 25010000 		.4byte	0x125
 942 065d 06       		.uleb128 0x6
 943 065e 69000000 		.4byte	0x69
 944 0662 6D060000 		.4byte	0x66d
 945 0666 07       		.uleb128 0x7
 946 0667 DE000000 		.4byte	0xde
 947 066b 15       		.byte	0x15
 948 066c 00       		.byte	0
 949 066d 05       		.uleb128 0x5
 950 066e 5D060000 		.4byte	0x65d
 951 0672 0B       		.uleb128 0xb
 952 0673 536D6300 		.ascii	"Smc\000"
 953 0677 05       		.byte	0x5
 954 0678 F111     		.2byte	0x11f1
 955 067a D2050000 		.4byte	0x5d2
 956 067e 08       		.uleb128 0x8
 957 067f 2801     		.2byte	0x128
 958 0681 05       		.byte	0x5
 959 0682 0817     		.2byte	0x1708
 960 0684 C9070000 		.4byte	.LASF110
 961 0688 9B070000 		.4byte	0x79b
 962 068c 09       		.uleb128 0x9
 963 068d 3E060000 		.4byte	.LASF111
 964 0691 05       		.byte	0x5
 965 0692 0917     		.2byte	0x1709
 966 0694 C8000000 		.4byte	0xc8
ARM GAS  /tmp/cc6M0mnT.s 			page 18


 967 0698 00       		.byte	0
 968 0699 09       		.uleb128 0x9
 969 069a F4080000 		.4byte	.LASF112
 970 069e 05       		.byte	0x5
 971 069f 0A17     		.2byte	0x170a
 972 06a1 D3000000 		.4byte	0xd3
 973 06a5 04       		.byte	0x4
 974 06a6 09       		.uleb128 0x9
 975 06a7 B8000000 		.4byte	.LASF113
 976 06ab 05       		.byte	0x5
 977 06ac 0B17     		.2byte	0x170b
 978 06ae C8000000 		.4byte	0xc8
 979 06b2 08       		.byte	0x8
 980 06b3 09       		.uleb128 0x9
 981 06b4 82000000 		.4byte	.LASF114
 982 06b8 05       		.byte	0x5
 983 06b9 0C17     		.2byte	0x170c
 984 06bb C8000000 		.4byte	0xc8
 985 06bf 0C       		.byte	0xc
 986 06c0 09       		.uleb128 0x9
 987 06c1 8D030000 		.4byte	.LASF115
 988 06c5 05       		.byte	0x5
 989 06c6 0D17     		.2byte	0x170d
 990 06c8 B8000000 		.4byte	0xb8
 991 06cc 10       		.byte	0x10
 992 06cd 09       		.uleb128 0x9
 993 06ce A6000000 		.4byte	.LASF116
 994 06d2 05       		.byte	0x5
 995 06d3 0E17     		.2byte	0x170e
 996 06d5 B8000000 		.4byte	0xb8
 997 06d9 14       		.byte	0x14
 998 06da 09       		.uleb128 0x9
 999 06db 190A0000 		.4byte	.LASF117
 1000 06df 05       		.byte	0x5
 1001 06e0 0F17     		.2byte	0x170f
 1002 06e2 B8000000 		.4byte	0xb8
 1003 06e6 18       		.byte	0x18
 1004 06e7 09       		.uleb128 0x9
 1005 06e8 FF030000 		.4byte	.LASF118
 1006 06ec 05       		.byte	0x5
 1007 06ed 1017     		.2byte	0x1710
 1008 06ef C8000000 		.4byte	0xc8
 1009 06f3 1C       		.byte	0x1c
 1010 06f4 09       		.uleb128 0x9
 1011 06f5 E7070000 		.4byte	.LASF119
 1012 06f9 05       		.byte	0x5
 1013 06fa 1117     		.2byte	0x1711
 1014 06fc D3000000 		.4byte	0xd3
 1015 0700 20       		.byte	0x20
 1016 0701 09       		.uleb128 0x9
 1017 0702 FB070000 		.4byte	.LASF23
 1018 0706 05       		.byte	0x5
 1019 0707 1217     		.2byte	0x1712
 1020 0709 AB070000 		.4byte	0x7ab
 1021 070d 24       		.byte	0x24
 1022 070e 0A       		.uleb128 0xa
 1023 070f 82020000 		.4byte	.LASF120
ARM GAS  /tmp/cc6M0mnT.s 			page 19


 1024 0713 05       		.byte	0x5
 1025 0714 1317     		.2byte	0x1713
 1026 0716 D3000000 		.4byte	0xd3
 1027 071a 0001     		.2byte	0x100
 1028 071c 0A       		.uleb128 0xa
 1029 071d C3080000 		.4byte	.LASF121
 1030 0721 05       		.byte	0x5
 1031 0722 1417     		.2byte	0x1714
 1032 0724 D3000000 		.4byte	0xd3
 1033 0728 0401     		.2byte	0x104
 1034 072a 0A       		.uleb128 0xa
 1035 072b 38070000 		.4byte	.LASF122
 1036 072f 05       		.byte	0x5
 1037 0730 1517     		.2byte	0x1715
 1038 0732 D3000000 		.4byte	0xd3
 1039 0736 0801     		.2byte	0x108
 1040 0738 0A       		.uleb128 0xa
 1041 0739 2F020000 		.4byte	.LASF123
 1042 073d 05       		.byte	0x5
 1043 073e 1617     		.2byte	0x1716
 1044 0740 D3000000 		.4byte	0xd3
 1045 0744 0C01     		.2byte	0x10c
 1046 0746 0A       		.uleb128 0xa
 1047 0747 75030000 		.4byte	.LASF124
 1048 074b 05       		.byte	0x5
 1049 074c 1717     		.2byte	0x1717
 1050 074e D3000000 		.4byte	0xd3
 1051 0752 1001     		.2byte	0x110
 1052 0754 0A       		.uleb128 0xa
 1053 0755 41090000 		.4byte	.LASF125
 1054 0759 05       		.byte	0x5
 1055 075a 1817     		.2byte	0x1718
 1056 075c D3000000 		.4byte	0xd3
 1057 0760 1401     		.2byte	0x114
 1058 0762 0A       		.uleb128 0xa
 1059 0763 9B030000 		.4byte	.LASF126
 1060 0767 05       		.byte	0x5
 1061 0768 1917     		.2byte	0x1719
 1062 076a D3000000 		.4byte	0xd3
 1063 076e 1801     		.2byte	0x118
 1064 0770 0A       		.uleb128 0xa
 1065 0771 66090000 		.4byte	.LASF127
 1066 0775 05       		.byte	0x5
 1067 0776 1A17     		.2byte	0x171a
 1068 0778 D3000000 		.4byte	0xd3
 1069 077c 1C01     		.2byte	0x11c
 1070 077e 0A       		.uleb128 0xa
 1071 077f CE000000 		.4byte	.LASF128
 1072 0783 05       		.byte	0x5
 1073 0784 1B17     		.2byte	0x171b
 1074 0786 C8000000 		.4byte	0xc8
 1075 078a 2001     		.2byte	0x120
 1076 078c 0A       		.uleb128 0xa
 1077 078d C0060000 		.4byte	.LASF129
 1078 0791 05       		.byte	0x5
 1079 0792 1C17     		.2byte	0x171c
 1080 0794 B8000000 		.4byte	0xb8
ARM GAS  /tmp/cc6M0mnT.s 			page 20


 1081 0798 2401     		.2byte	0x124
 1082 079a 00       		.byte	0
 1083 079b 06       		.uleb128 0x6
 1084 079c 69000000 		.4byte	0x69
 1085 07a0 AB070000 		.4byte	0x7ab
 1086 07a4 07       		.uleb128 0x7
 1087 07a5 DE000000 		.4byte	0xde
 1088 07a9 36       		.byte	0x36
 1089 07aa 00       		.byte	0
 1090 07ab 05       		.uleb128 0x5
 1091 07ac 9B070000 		.4byte	0x79b
 1092 07b0 0D       		.uleb128 0xd
 1093 07b1 96030000 		.4byte	.LASF130
 1094 07b5 05       		.byte	0x5
 1095 07b6 1D17     		.2byte	0x171d
 1096 07b8 7E060000 		.4byte	0x67e
 1097 07bc 03       		.uleb128 0x3
 1098 07bd 14000000 		.4byte	.LASF131
 1099 07c1 06       		.byte	0x6
 1100 07c2 D4       		.byte	0xd4
 1101 07c3 85000000 		.4byte	0x85
 1102 07c7 03       		.uleb128 0x3
 1103 07c8 D7080000 		.4byte	.LASF132
 1104 07cc 07       		.byte	0x7
 1105 07cd 2E       		.byte	0x2e
 1106 07ce 97000000 		.4byte	0x97
 1107 07d2 03       		.uleb128 0x3
 1108 07d3 C1050000 		.4byte	.LASF133
 1109 07d7 07       		.byte	0x7
 1110 07d8 2F       		.byte	0x2f
 1111 07d9 8C000000 		.4byte	0x8c
 1112 07dd 03       		.uleb128 0x3
 1113 07de 87010000 		.4byte	.LASF134
 1114 07e2 07       		.byte	0x7
 1115 07e3 30       		.byte	0x30
 1116 07e4 8C000000 		.4byte	0x8c
 1117 07e8 03       		.uleb128 0x3
 1118 07e9 06090000 		.4byte	.LASF135
 1119 07ed 07       		.byte	0x7
 1120 07ee 31       		.byte	0x31
 1121 07ef 8C000000 		.4byte	0x8c
 1122 07f3 03       		.uleb128 0x3
 1123 07f4 49000000 		.4byte	.LASF136
 1124 07f8 07       		.byte	0x7
 1125 07f9 32       		.byte	0x32
 1126 07fa A2000000 		.4byte	0xa2
 1127 07fe 03       		.uleb128 0x3
 1128 07ff 97070000 		.4byte	.LASF137
 1129 0803 07       		.byte	0x7
 1130 0804 33       		.byte	0x33
 1131 0805 97000000 		.4byte	0x97
 1132 0809 03       		.uleb128 0x3
 1133 080a F2010000 		.4byte	.LASF138
 1134 080e 07       		.byte	0x7
 1135 080f 35       		.byte	0x35
 1136 0810 A2000000 		.4byte	0xa2
 1137 0814 03       		.uleb128 0x3
ARM GAS  /tmp/cc6M0mnT.s 			page 21


 1138 0815 32000000 		.4byte	.LASF139
 1139 0819 07       		.byte	0x7
 1140 081a 36       		.byte	0x36
 1141 081b A2000000 		.4byte	0xa2
 1142 081f 03       		.uleb128 0x3
 1143 0820 DE080000 		.4byte	.LASF140
 1144 0824 08       		.byte	0x8
 1145 0825 2A       		.byte	0x2a
 1146 0826 2A080000 		.4byte	0x82a
 1147 082a 0E       		.uleb128 0xe
 1148 082b DE080000 		.4byte	.LASF140
 1149 082f 48       		.byte	0x48
 1150 0830 09       		.byte	0x9
 1151 0831 5E       		.byte	0x5e
 1152 0832 50090000 		.4byte	0x950
 1153 0836 0F       		.uleb128 0xf
 1154 0837 04       		.byte	0x4
 1155 0838 09       		.byte	0x9
 1156 0839 90       		.byte	0x90
 1157 083a 6B080000 		.4byte	0x86b
 1158 083e 10       		.uleb128 0x10
 1159 083f 7B090000 		.4byte	.LASF141
 1160 0843 09       		.byte	0x9
 1161 0844 97       		.byte	0x97
 1162 0845 FE070000 		.4byte	0x7fe
 1163 0849 10       		.uleb128 0x10
 1164 084a E1000000 		.4byte	.LASF142
 1165 084e 09       		.byte	0x9
 1166 084f 9E       		.byte	0x9e
 1167 0850 FE070000 		.4byte	0x7fe
 1168 0854 10       		.uleb128 0x10
 1169 0855 11030000 		.4byte	.LASF143
 1170 0859 09       		.byte	0x9
 1171 085a A5       		.byte	0xa5
 1172 085b B5090000 		.4byte	0x9b5
 1173 085f 10       		.uleb128 0x10
 1174 0860 E3010000 		.4byte	.LASF144
 1175 0864 09       		.byte	0x9
 1176 0865 AC       		.byte	0xac
 1177 0866 09080000 		.4byte	0x809
 1178 086a 00       		.byte	0
 1179 086b 11       		.uleb128 0x11
 1180 086c 54010000 		.4byte	.LASF145
 1181 0870 09       		.byte	0x9
 1182 0871 5F       		.byte	0x5f
 1183 0872 060B0000 		.4byte	0xb06
 1184 0876 00       		.byte	0
 1185 0877 11       		.uleb128 0x11
 1186 0878 63010000 		.4byte	.LASF146
 1187 087c 09       		.byte	0x9
 1188 087d 61       		.byte	0x61
 1189 087e 060B0000 		.4byte	0xb06
 1190 0882 04       		.byte	0x4
 1191 0883 11       		.uleb128 0x11
 1192 0884 F4020000 		.4byte	.LASF147
 1193 0888 09       		.byte	0x9
 1194 0889 63       		.byte	0x63
ARM GAS  /tmp/cc6M0mnT.s 			page 22


 1195 088a F3070000 		.4byte	0x7f3
 1196 088e 08       		.byte	0x8
 1197 088f 11       		.uleb128 0x11
 1198 0890 43000000 		.4byte	.LASF148
 1199 0894 09       		.byte	0x9
 1200 0895 64       		.byte	0x64
 1201 0896 320A0000 		.4byte	0xa32
 1202 089a 0C       		.byte	0xc
 1203 089b 11       		.uleb128 0x11
 1204 089c 43010000 		.4byte	.LASF149
 1205 08a0 09       		.byte	0x9
 1206 08a1 66       		.byte	0x66
 1207 08a2 060B0000 		.4byte	0xb06
 1208 08a6 10       		.byte	0x10
 1209 08a7 11       		.uleb128 0x11
 1210 08a8 75070000 		.4byte	.LASF150
 1211 08ac 09       		.byte	0x9
 1212 08ad 67       		.byte	0x67
 1213 08ae 060B0000 		.4byte	0xb06
 1214 08b2 14       		.byte	0x14
 1215 08b3 11       		.uleb128 0x11
 1216 08b4 F7090000 		.4byte	.LASF151
 1217 08b8 09       		.byte	0x9
 1218 08b9 6E       		.byte	0x6e
 1219 08ba 0C0B0000 		.4byte	0xb0c
 1220 08be 18       		.byte	0x18
 1221 08bf 11       		.uleb128 0x11
 1222 08c0 3D0A0000 		.4byte	.LASF152
 1223 08c4 09       		.byte	0x9
 1224 08c5 79       		.byte	0x79
 1225 08c6 DD070000 		.4byte	0x7dd
 1226 08ca 1C       		.byte	0x1c
 1227 08cb 11       		.uleb128 0x11
 1228 08cc 4C060000 		.4byte	.LASF153
 1229 08d0 09       		.byte	0x9
 1230 08d1 7D       		.byte	0x7d
 1231 08d2 D2070000 		.4byte	0x7d2
 1232 08d6 1D       		.byte	0x1d
 1233 08d7 11       		.uleb128 0x11
 1234 08d8 6E060000 		.4byte	.LASF154
 1235 08dc 09       		.byte	0x9
 1236 08dd 82       		.byte	0x82
 1237 08de E8070000 		.4byte	0x7e8
 1238 08e2 1E       		.byte	0x1e
 1239 08e3 11       		.uleb128 0x11
 1240 08e4 3C000000 		.4byte	.LASF155
 1241 08e8 09       		.byte	0x9
 1242 08e9 89       		.byte	0x89
 1243 08ea 530A0000 		.4byte	0xa53
 1244 08ee 20       		.byte	0x20
 1245 08ef 12       		.uleb128 0x12
 1246 08f0 705F7500 		.ascii	"p_u\000"
 1247 08f4 09       		.byte	0x9
 1248 08f5 AE       		.byte	0xae
 1249 08f6 36080000 		.4byte	0x836
 1250 08fa 24       		.byte	0x24
 1251 08fb 11       		.uleb128 0x11
ARM GAS  /tmp/cc6M0mnT.s 			page 23


 1252 08fc 4E020000 		.4byte	.LASF156
 1253 0900 09       		.byte	0x9
 1254 0901 B3       		.byte	0xb3
 1255 0902 9F090000 		.4byte	0x99f
 1256 0906 28       		.byte	0x28
 1257 0907 11       		.uleb128 0x11
 1258 0908 51000000 		.4byte	.LASF157
 1259 090c 09       		.byte	0x9
 1260 090d B9       		.byte	0xb9
 1261 090e 7B090000 		.4byte	0x97b
 1262 0912 2C       		.byte	0x2c
 1263 0913 11       		.uleb128 0x11
 1264 0914 220A0000 		.4byte	.LASF158
 1265 0918 09       		.byte	0x9
 1266 0919 BD       		.byte	0xbd
 1267 091a FE070000 		.4byte	0x7fe
 1268 091e 34       		.byte	0x34
 1269 091f 11       		.uleb128 0x11
 1270 0920 C9030000 		.4byte	.LASF159
 1271 0924 09       		.byte	0x9
 1272 0925 C3       		.byte	0xc3
 1273 0926 09080000 		.4byte	0x809
 1274 092a 38       		.byte	0x38
 1275 092b 11       		.uleb128 0x11
 1276 092c 95010000 		.4byte	.LASF160
 1277 0930 09       		.byte	0x9
 1278 0931 CA       		.byte	0xca
 1279 0932 1E0B0000 		.4byte	0xb1e
 1280 0936 3C       		.byte	0x3c
 1281 0937 11       		.uleb128 0x11
 1282 0938 D4060000 		.4byte	.LASF161
 1283 093c 09       		.byte	0x9
 1284 093d CE       		.byte	0xce
 1285 093e F3070000 		.4byte	0x7f3
 1286 0942 40       		.byte	0x40
 1287 0943 11       		.uleb128 0x11
 1288 0944 66060000 		.4byte	.LASF162
 1289 0948 09       		.byte	0x9
 1290 0949 D4       		.byte	0xd4
 1291 094a B5090000 		.4byte	0x9b5
 1292 094e 44       		.byte	0x44
 1293 094f 00       		.byte	0
 1294 0950 13       		.uleb128 0x13
 1295 0951 08       		.byte	0x8
 1296 0952 08       		.byte	0x8
 1297 0953 61       		.byte	0x61
 1298 0954 8B020000 		.4byte	.LASF164
 1299 0958 75090000 		.4byte	0x975
 1300 095c 11       		.uleb128 0x11
 1301 095d 54010000 		.4byte	.LASF145
 1302 0961 08       		.byte	0x8
 1303 0962 62       		.byte	0x62
 1304 0963 75090000 		.4byte	0x975
 1305 0967 00       		.byte	0
 1306 0968 11       		.uleb128 0x11
 1307 0969 63010000 		.4byte	.LASF146
 1308 096d 08       		.byte	0x8
ARM GAS  /tmp/cc6M0mnT.s 			page 24


 1309 096e 64       		.byte	0x64
 1310 096f 75090000 		.4byte	0x975
 1311 0973 04       		.byte	0x4
 1312 0974 00       		.byte	0
 1313 0975 14       		.uleb128 0x14
 1314 0976 04       		.byte	0x4
 1315 0977 1F080000 		.4byte	0x81f
 1316 097b 03       		.uleb128 0x3
 1317 097c 4B090000 		.4byte	.LASF163
 1318 0980 08       		.byte	0x8
 1319 0981 66       		.byte	0x66
 1320 0982 50090000 		.4byte	0x950
 1321 0986 13       		.uleb128 0x13
 1322 0987 04       		.byte	0x4
 1323 0988 08       		.byte	0x8
 1324 0989 6B       		.byte	0x6b
 1325 098a D2090000 		.4byte	.LASF165
 1326 098e 9F090000 		.4byte	0x99f
 1327 0992 11       		.uleb128 0x11
 1328 0993 54010000 		.4byte	.LASF145
 1329 0997 08       		.byte	0x8
 1330 0998 6D       		.byte	0x6d
 1331 0999 75090000 		.4byte	0x975
 1332 099d 00       		.byte	0
 1333 099e 00       		.byte	0
 1334 099f 03       		.uleb128 0x3
 1335 09a0 90060000 		.4byte	.LASF166
 1336 09a4 08       		.byte	0x8
 1337 09a5 70       		.byte	0x70
 1338 09a6 86090000 		.4byte	0x986
 1339 09aa 03       		.uleb128 0x3
 1340 09ab AB010000 		.4byte	.LASF167
 1341 09af 0A       		.byte	0xa
 1342 09b0 D7       		.byte	0xd7
 1343 09b1 B5090000 		.4byte	0x9b5
 1344 09b5 15       		.uleb128 0x15
 1345 09b6 04       		.byte	0x4
 1346 09b7 0E       		.uleb128 0xe
 1347 09b8 C2030000 		.4byte	.LASF168
 1348 09bc 24       		.byte	0x24
 1349 09bd 0A       		.byte	0xa
 1350 09be FE       		.byte	0xfe
 1351 09bf 320A0000 		.4byte	0xa32
 1352 09c3 16       		.uleb128 0x16
 1353 09c4 723400   		.ascii	"r4\000"
 1354 09c7 0A       		.byte	0xa
 1355 09c8 1101     		.2byte	0x111
 1356 09ca AA090000 		.4byte	0x9aa
 1357 09ce 00       		.byte	0
 1358 09cf 16       		.uleb128 0x16
 1359 09d0 723500   		.ascii	"r5\000"
 1360 09d3 0A       		.byte	0xa
 1361 09d4 1201     		.2byte	0x112
 1362 09d6 AA090000 		.4byte	0x9aa
 1363 09da 04       		.byte	0x4
 1364 09db 16       		.uleb128 0x16
 1365 09dc 723600   		.ascii	"r6\000"
ARM GAS  /tmp/cc6M0mnT.s 			page 25


 1366 09df 0A       		.byte	0xa
 1367 09e0 1301     		.2byte	0x113
 1368 09e2 AA090000 		.4byte	0x9aa
 1369 09e6 08       		.byte	0x8
 1370 09e7 16       		.uleb128 0x16
 1371 09e8 723700   		.ascii	"r7\000"
 1372 09eb 0A       		.byte	0xa
 1373 09ec 1401     		.2byte	0x114
 1374 09ee AA090000 		.4byte	0x9aa
 1375 09f2 0C       		.byte	0xc
 1376 09f3 16       		.uleb128 0x16
 1377 09f4 723800   		.ascii	"r8\000"
 1378 09f7 0A       		.byte	0xa
 1379 09f8 1501     		.2byte	0x115
 1380 09fa AA090000 		.4byte	0x9aa
 1381 09fe 10       		.byte	0x10
 1382 09ff 16       		.uleb128 0x16
 1383 0a00 723900   		.ascii	"r9\000"
 1384 0a03 0A       		.byte	0xa
 1385 0a04 1601     		.2byte	0x116
 1386 0a06 AA090000 		.4byte	0x9aa
 1387 0a0a 14       		.byte	0x14
 1388 0a0b 16       		.uleb128 0x16
 1389 0a0c 72313000 		.ascii	"r10\000"
 1390 0a10 0A       		.byte	0xa
 1391 0a11 1701     		.2byte	0x117
 1392 0a13 AA090000 		.4byte	0x9aa
 1393 0a17 18       		.byte	0x18
 1394 0a18 16       		.uleb128 0x16
 1395 0a19 72313100 		.ascii	"r11\000"
 1396 0a1d 0A       		.byte	0xa
 1397 0a1e 1801     		.2byte	0x118
 1398 0a20 AA090000 		.4byte	0x9aa
 1399 0a24 1C       		.byte	0x1c
 1400 0a25 16       		.uleb128 0x16
 1401 0a26 6C7200   		.ascii	"lr\000"
 1402 0a29 0A       		.byte	0xa
 1403 0a2a 1901     		.2byte	0x119
 1404 0a2c AA090000 		.4byte	0x9aa
 1405 0a30 20       		.byte	0x20
 1406 0a31 00       		.byte	0
 1407 0a32 17       		.uleb128 0x17
 1408 0a33 FE010000 		.4byte	.LASF169
 1409 0a37 04       		.byte	0x4
 1410 0a38 0A       		.byte	0xa
 1411 0a39 2301     		.2byte	0x123
 1412 0a3b 4D0A0000 		.4byte	0xa4d
 1413 0a3f 16       		.uleb128 0x16
 1414 0a40 72313300 		.ascii	"r13\000"
 1415 0a44 0A       		.byte	0xa
 1416 0a45 2401     		.2byte	0x124
 1417 0a47 4D0A0000 		.4byte	0xa4d
 1418 0a4b 00       		.byte	0
 1419 0a4c 00       		.byte	0
 1420 0a4d 14       		.uleb128 0x14
 1421 0a4e 04       		.byte	0x4
 1422 0a4f B7090000 		.4byte	0x9b7
ARM GAS  /tmp/cc6M0mnT.s 			page 26


 1423 0a53 05       		.uleb128 0x5
 1424 0a54 14080000 		.4byte	0x814
 1425 0a58 0E       		.uleb128 0xe
 1426 0a59 9A050000 		.4byte	.LASF170
 1427 0a5d 10       		.byte	0x10
 1428 0a5e 0B       		.byte	0xb
 1429 0a5f 2C       		.byte	0x2c
 1430 0a60 890A0000 		.4byte	0xa89
 1431 0a64 11       		.uleb128 0x11
 1432 0a65 B9050000 		.4byte	.LASF171
 1433 0a69 0B       		.byte	0xb
 1434 0a6a 2D       		.byte	0x2d
 1435 0a6b 7B090000 		.4byte	0x97b
 1436 0a6f 00       		.byte	0
 1437 0a70 11       		.uleb128 0x11
 1438 0a71 AF070000 		.4byte	.LASF172
 1439 0a75 0B       		.byte	0xb
 1440 0a76 2F       		.byte	0x2f
 1441 0a77 75090000 		.4byte	0x975
 1442 0a7b 08       		.byte	0x8
 1443 0a7c 11       		.uleb128 0x11
 1444 0a7d FE090000 		.4byte	.LASF173
 1445 0a81 0B       		.byte	0xb
 1446 0a82 31       		.byte	0x31
 1447 0a83 890A0000 		.4byte	0xa89
 1448 0a87 0C       		.byte	0xc
 1449 0a88 00       		.byte	0
 1450 0a89 14       		.uleb128 0x14
 1451 0a8a 04       		.byte	0x4
 1452 0a8b 580A0000 		.4byte	0xa58
 1453 0a8f 03       		.uleb128 0x3
 1454 0a90 9A050000 		.4byte	.LASF170
 1455 0a94 0B       		.byte	0xb
 1456 0a95 33       		.byte	0x33
 1457 0a96 580A0000 		.4byte	0xa58
 1458 0a9a 03       		.uleb128 0x3
 1459 0a9b 0E090000 		.4byte	.LASF174
 1460 0a9f 0C       		.byte	0xc
 1461 0aa0 29       		.byte	0x29
 1462 0aa1 A50A0000 		.4byte	0xaa5
 1463 0aa5 0E       		.uleb128 0xe
 1464 0aa6 0E090000 		.4byte	.LASF174
 1465 0aaa 0C       		.byte	0xc
 1466 0aab 0C       		.byte	0xc
 1467 0aac 2E       		.byte	0x2e
 1468 0aad D60A0000 		.4byte	0xad6
 1469 0ab1 11       		.uleb128 0x11
 1470 0ab2 49050000 		.4byte	.LASF175
 1471 0ab6 0C       		.byte	0xc
 1472 0ab7 2F       		.byte	0x2f
 1473 0ab8 D60A0000 		.4byte	0xad6
 1474 0abc 00       		.byte	0
 1475 0abd 11       		.uleb128 0x11
 1476 0abe 280A0000 		.4byte	.LASF176
 1477 0ac2 0C       		.byte	0xc
 1478 0ac3 32       		.byte	0x32
 1479 0ac4 75090000 		.4byte	0x975
ARM GAS  /tmp/cc6M0mnT.s 			page 27


 1480 0ac8 04       		.byte	0x4
 1481 0ac9 11       		.uleb128 0x11
 1482 0aca EF090000 		.4byte	.LASF177
 1483 0ace 0C       		.byte	0xc
 1484 0acf 34       		.byte	0x34
 1485 0ad0 09080000 		.4byte	0x809
 1486 0ad4 08       		.byte	0x8
 1487 0ad5 00       		.byte	0
 1488 0ad6 14       		.uleb128 0x14
 1489 0ad7 04       		.byte	0x4
 1490 0ad8 A50A0000 		.4byte	0xaa5
 1491 0adc 0E       		.uleb128 0xe
 1492 0add 0D050000 		.4byte	.LASF178
 1493 0ae1 04       		.byte	0x4
 1494 0ae2 0C       		.byte	0xc
 1495 0ae3 3C       		.byte	0x3c
 1496 0ae4 F50A0000 		.4byte	0xaf5
 1497 0ae8 11       		.uleb128 0x11
 1498 0ae9 08040000 		.4byte	.LASF179
 1499 0aed 0C       		.byte	0xc
 1500 0aee 3D       		.byte	0x3d
 1501 0aef F50A0000 		.4byte	0xaf5
 1502 0af3 00       		.byte	0
 1503 0af4 00       		.byte	0
 1504 0af5 14       		.uleb128 0x14
 1505 0af6 04       		.byte	0x4
 1506 0af7 9A0A0000 		.4byte	0xa9a
 1507 0afb 03       		.uleb128 0x3
 1508 0afc 0D050000 		.4byte	.LASF178
 1509 0b00 0C       		.byte	0xc
 1510 0b01 40       		.byte	0x40
 1511 0b02 DC0A0000 		.4byte	0xadc
 1512 0b06 14       		.uleb128 0x14
 1513 0b07 04       		.byte	0x4
 1514 0b08 2A080000 		.4byte	0x82a
 1515 0b0c 14       		.uleb128 0x14
 1516 0b0d 04       		.byte	0x4
 1517 0b0e 120B0000 		.4byte	0xb12
 1518 0b12 18       		.uleb128 0x18
 1519 0b13 170B0000 		.4byte	0xb17
 1520 0b17 02       		.uleb128 0x2
 1521 0b18 01       		.byte	0x1
 1522 0b19 08       		.byte	0x8
 1523 0b1a B2020000 		.4byte	.LASF180
 1524 0b1e 14       		.uleb128 0x14
 1525 0b1f 04       		.byte	0x4
 1526 0b20 8F0A0000 		.4byte	0xa8f
 1527 0b24 03       		.uleb128 0x3
 1528 0b25 FB020000 		.4byte	.LASF181
 1529 0b29 0D       		.byte	0xd
 1530 0b2a 37       		.byte	0x37
 1531 0b2b 2F0B0000 		.4byte	0xb2f
 1532 0b2f 0E       		.uleb128 0xe
 1533 0b30 FB020000 		.4byte	.LASF181
 1534 0b34 20       		.byte	0x20
 1535 0b35 0D       		.byte	0xd
 1536 0b36 45       		.byte	0x45
ARM GAS  /tmp/cc6M0mnT.s 			page 28


 1537 0b37 900B0000 		.4byte	0xb90
 1538 0b3b 11       		.uleb128 0x11
 1539 0b3c F1070000 		.4byte	.LASF182
 1540 0b40 0D       		.byte	0xd
 1541 0b41 46       		.byte	0x46
 1542 0b42 7B090000 		.4byte	0x97b
 1543 0b46 00       		.byte	0
 1544 0b47 11       		.uleb128 0x11
 1545 0b48 10040000 		.4byte	.LASF183
 1546 0b4c 0D       		.byte	0xd
 1547 0b4d 47       		.byte	0x47
 1548 0b4e BC070000 		.4byte	0x7bc
 1549 0b52 08       		.byte	0x8
 1550 0b53 11       		.uleb128 0x11
 1551 0b54 1E010000 		.4byte	.LASF184
 1552 0b58 0D       		.byte	0xd
 1553 0b59 48       		.byte	0x48
 1554 0b5a B20B0000 		.4byte	0xbb2
 1555 0b5e 0C       		.byte	0xc
 1556 0b5f 11       		.uleb128 0x11
 1557 0b60 F4000000 		.4byte	.LASF185
 1558 0b64 0D       		.byte	0xd
 1559 0b65 49       		.byte	0x49
 1560 0b66 B20B0000 		.4byte	0xbb2
 1561 0b6a 10       		.byte	0x10
 1562 0b6b 11       		.uleb128 0x11
 1563 0b6c 56050000 		.4byte	.LASF186
 1564 0b70 0D       		.byte	0xd
 1565 0b71 4B       		.byte	0x4b
 1566 0b72 B20B0000 		.4byte	0xbb2
 1567 0b76 14       		.byte	0x14
 1568 0b77 11       		.uleb128 0x11
 1569 0b78 5B010000 		.4byte	.LASF187
 1570 0b7c 0D       		.byte	0xd
 1571 0b7d 4C       		.byte	0x4c
 1572 0b7e B20B0000 		.4byte	0xbb2
 1573 0b82 18       		.byte	0x18
 1574 0b83 11       		.uleb128 0x11
 1575 0b84 27010000 		.4byte	.LASF188
 1576 0b88 0D       		.byte	0xd
 1577 0b89 4D       		.byte	0x4d
 1578 0b8a 900B0000 		.4byte	0xb90
 1579 0b8e 1C       		.byte	0x1c
 1580 0b8f 00       		.byte	0
 1581 0b90 03       		.uleb128 0x3
 1582 0b91 34060000 		.4byte	.LASF189
 1583 0b95 0D       		.byte	0xd
 1584 0b96 3A       		.byte	0x3a
 1585 0b97 9B0B0000 		.4byte	0xb9b
 1586 0b9b 14       		.uleb128 0x14
 1587 0b9c 04       		.byte	0x4
 1588 0b9d A10B0000 		.4byte	0xba1
 1589 0ba1 19       		.uleb128 0x19
 1590 0ba2 AC0B0000 		.4byte	0xbac
 1591 0ba6 1A       		.uleb128 0x1a
 1592 0ba7 AC0B0000 		.4byte	0xbac
 1593 0bab 00       		.byte	0
ARM GAS  /tmp/cc6M0mnT.s 			page 29


 1594 0bac 14       		.uleb128 0x14
 1595 0bad 04       		.byte	0x4
 1596 0bae 240B0000 		.4byte	0xb24
 1597 0bb2 14       		.uleb128 0x14
 1598 0bb3 04       		.byte	0x4
 1599 0bb4 8C000000 		.4byte	0x8c
 1600 0bb8 03       		.uleb128 0x3
 1601 0bb9 9D090000 		.4byte	.LASF190
 1602 0bbd 0D       		.byte	0xd
 1603 0bbe 76       		.byte	0x76
 1604 0bbf 240B0000 		.4byte	0xb24
 1605 0bc3 03       		.uleb128 0x3
 1606 0bc4 32030000 		.4byte	.LASF191
 1607 0bc8 0D       		.byte	0xd
 1608 0bc9 E6       		.byte	0xe6
 1609 0bca 240B0000 		.4byte	0xb24
 1610 0bce 1B       		.uleb128 0x1b
 1611 0bcf BC070000 		.4byte	0x7bc
 1612 0bd3 E70B0000 		.4byte	0xbe7
 1613 0bd7 1A       		.uleb128 0x1a
 1614 0bd8 B5090000 		.4byte	0x9b5
 1615 0bdc 1A       		.uleb128 0x1a
 1616 0bdd E70B0000 		.4byte	0xbe7
 1617 0be1 1A       		.uleb128 0x1a
 1618 0be2 BC070000 		.4byte	0x7bc
 1619 0be6 00       		.byte	0
 1620 0be7 14       		.uleb128 0x14
 1621 0be8 04       		.byte	0x4
 1622 0be9 ED0B0000 		.4byte	0xbed
 1623 0bed 18       		.uleb128 0x18
 1624 0bee 8C000000 		.4byte	0x8c
 1625 0bf2 14       		.uleb128 0x14
 1626 0bf3 04       		.byte	0x4
 1627 0bf4 CE0B0000 		.4byte	0xbce
 1628 0bf8 1B       		.uleb128 0x1b
 1629 0bf9 BC070000 		.4byte	0x7bc
 1630 0bfd 110C0000 		.4byte	0xc11
 1631 0c01 1A       		.uleb128 0x1a
 1632 0c02 B5090000 		.4byte	0x9b5
 1633 0c06 1A       		.uleb128 0x1a
 1634 0c07 B20B0000 		.4byte	0xbb2
 1635 0c0b 1A       		.uleb128 0x1a
 1636 0c0c BC070000 		.4byte	0x7bc
 1637 0c10 00       		.byte	0
 1638 0c11 14       		.uleb128 0x14
 1639 0c12 04       		.byte	0x4
 1640 0c13 F80B0000 		.4byte	0xbf8
 1641 0c17 0E       		.uleb128 0xe
 1642 0c18 E0090000 		.4byte	.LASF192
 1643 0c1c 20       		.byte	0x20
 1644 0c1d 0E       		.byte	0xe
 1645 0c1e 51       		.byte	0x51
 1646 0c1f 840C0000 		.4byte	0xc84
 1647 0c23 11       		.uleb128 0x11
 1648 0c24 9A000000 		.4byte	.LASF193
 1649 0c28 0E       		.byte	0xe
 1650 0c29 52       		.byte	0x52
ARM GAS  /tmp/cc6M0mnT.s 			page 30


 1651 0c2a F20B0000 		.4byte	0xbf2
 1652 0c2e 00       		.byte	0
 1653 0c2f 11       		.uleb128 0x11
 1654 0c30 54060000 		.4byte	.LASF194
 1655 0c34 0E       		.byte	0xe
 1656 0c35 52       		.byte	0x52
 1657 0c36 110C0000 		.4byte	0xc11
 1658 0c3a 04       		.byte	0x4
 1659 0c3b 11       		.uleb128 0x11
 1660 0c3c 5A030000 		.4byte	.LASF195
 1661 0c40 0E       		.byte	0xe
 1662 0c41 52       		.byte	0x52
 1663 0c42 930C0000 		.4byte	0xc93
 1664 0c46 08       		.byte	0x8
 1665 0c47 11       		.uleb128 0x11
 1666 0c48 DF060000 		.4byte	.LASF196
 1667 0c4c 0E       		.byte	0xe
 1668 0c4d 52       		.byte	0x52
 1669 0c4e 930C0000 		.4byte	0xc93
 1670 0c52 0C       		.byte	0xc
 1671 0c53 12       		.uleb128 0x12
 1672 0c54 70757400 		.ascii	"put\000"
 1673 0c58 0E       		.byte	0xe
 1674 0c59 52       		.byte	0x52
 1675 0c5a B20C0000 		.4byte	0xcb2
 1676 0c5e 10       		.byte	0x10
 1677 0c5f 12       		.uleb128 0x12
 1678 0c60 67657400 		.ascii	"get\000"
 1679 0c64 0E       		.byte	0xe
 1680 0c65 52       		.byte	0x52
 1681 0c66 CC0C0000 		.4byte	0xccc
 1682 0c6a 14       		.byte	0x14
 1683 0c6b 11       		.uleb128 0x11
 1684 0c6c 71000000 		.4byte	.LASF197
 1685 0c70 0E       		.byte	0xe
 1686 0c71 52       		.byte	0x52
 1687 0c72 F00C0000 		.4byte	0xcf0
 1688 0c76 18       		.byte	0x18
 1689 0c77 11       		.uleb128 0x11
 1690 0c78 18010000 		.4byte	.LASF198
 1691 0c7c 0E       		.byte	0xe
 1692 0c7d 52       		.byte	0x52
 1693 0c7e 140D0000 		.4byte	0xd14
 1694 0c82 1C       		.byte	0x1c
 1695 0c83 00       		.byte	0
 1696 0c84 1B       		.uleb128 0x1b
 1697 0c85 C7070000 		.4byte	0x7c7
 1698 0c89 930C0000 		.4byte	0xc93
 1699 0c8d 1A       		.uleb128 0x1a
 1700 0c8e B5090000 		.4byte	0x9b5
 1701 0c92 00       		.byte	0
 1702 0c93 14       		.uleb128 0x14
 1703 0c94 04       		.byte	0x4
 1704 0c95 840C0000 		.4byte	0xc84
 1705 0c99 1B       		.uleb128 0x1b
 1706 0c9a FE070000 		.4byte	0x7fe
 1707 0c9e B20C0000 		.4byte	0xcb2
ARM GAS  /tmp/cc6M0mnT.s 			page 31


 1708 0ca2 1A       		.uleb128 0x1a
 1709 0ca3 B5090000 		.4byte	0x9b5
 1710 0ca7 1A       		.uleb128 0x1a
 1711 0ca8 8C000000 		.4byte	0x8c
 1712 0cac 1A       		.uleb128 0x1a
 1713 0cad 14080000 		.4byte	0x814
 1714 0cb1 00       		.byte	0
 1715 0cb2 14       		.uleb128 0x14
 1716 0cb3 04       		.byte	0x4
 1717 0cb4 990C0000 		.4byte	0xc99
 1718 0cb8 1B       		.uleb128 0x1b
 1719 0cb9 FE070000 		.4byte	0x7fe
 1720 0cbd CC0C0000 		.4byte	0xccc
 1721 0cc1 1A       		.uleb128 0x1a
 1722 0cc2 B5090000 		.4byte	0x9b5
 1723 0cc6 1A       		.uleb128 0x1a
 1724 0cc7 14080000 		.4byte	0x814
 1725 0ccb 00       		.byte	0
 1726 0ccc 14       		.uleb128 0x14
 1727 0ccd 04       		.byte	0x4
 1728 0cce B80C0000 		.4byte	0xcb8
 1729 0cd2 1B       		.uleb128 0x1b
 1730 0cd3 BC070000 		.4byte	0x7bc
 1731 0cd7 F00C0000 		.4byte	0xcf0
 1732 0cdb 1A       		.uleb128 0x1a
 1733 0cdc B5090000 		.4byte	0x9b5
 1734 0ce0 1A       		.uleb128 0x1a
 1735 0ce1 E70B0000 		.4byte	0xbe7
 1736 0ce5 1A       		.uleb128 0x1a
 1737 0ce6 BC070000 		.4byte	0x7bc
 1738 0cea 1A       		.uleb128 0x1a
 1739 0ceb 14080000 		.4byte	0x814
 1740 0cef 00       		.byte	0
 1741 0cf0 14       		.uleb128 0x14
 1742 0cf1 04       		.byte	0x4
 1743 0cf2 D20C0000 		.4byte	0xcd2
 1744 0cf6 1B       		.uleb128 0x1b
 1745 0cf7 BC070000 		.4byte	0x7bc
 1746 0cfb 140D0000 		.4byte	0xd14
 1747 0cff 1A       		.uleb128 0x1a
 1748 0d00 B5090000 		.4byte	0x9b5
 1749 0d04 1A       		.uleb128 0x1a
 1750 0d05 B20B0000 		.4byte	0xbb2
 1751 0d09 1A       		.uleb128 0x1a
 1752 0d0a BC070000 		.4byte	0x7bc
 1753 0d0e 1A       		.uleb128 0x1a
 1754 0d0f 14080000 		.4byte	0x814
 1755 0d13 00       		.byte	0
 1756 0d14 14       		.uleb128 0x14
 1757 0d15 04       		.byte	0x4
 1758 0d16 F60C0000 		.4byte	0xcf6
 1759 0d1a 13       		.uleb128 0x13
 1760 0d1b 04       		.byte	0x4
 1761 0d1c 0E       		.byte	0xe
 1762 0d1d 5C       		.byte	0x5c
 1763 0d1e 7F030000 		.4byte	.LASF199
 1764 0d22 330D0000 		.4byte	0xd33
ARM GAS  /tmp/cc6M0mnT.s 			page 32


 1765 0d26 12       		.uleb128 0x12
 1766 0d27 766D7400 		.ascii	"vmt\000"
 1767 0d2b 0E       		.byte	0xe
 1768 0d2c 5E       		.byte	0x5e
 1769 0d2d 330D0000 		.4byte	0xd33
 1770 0d31 00       		.byte	0
 1771 0d32 00       		.byte	0
 1772 0d33 14       		.uleb128 0x14
 1773 0d34 04       		.byte	0x4
 1774 0d35 390D0000 		.4byte	0xd39
 1775 0d39 18       		.uleb128 0x18
 1776 0d3a 170C0000 		.4byte	0xc17
 1777 0d3e 03       		.uleb128 0x3
 1778 0d3f 050A0000 		.4byte	.LASF200
 1779 0d43 0E       		.byte	0xe
 1780 0d44 60       		.byte	0x60
 1781 0d45 1A0D0000 		.4byte	0xd1a
 1782 0d49 0D       		.uleb128 0xd
 1783 0d4a 9C060000 		.4byte	.LASF201
 1784 0d4e 0E       		.byte	0xe
 1785 0d4f 0B01     		.2byte	0x10b
 1786 0d51 AD000000 		.4byte	0xad
 1787 0d55 1B       		.uleb128 0x1b
 1788 0d56 490D0000 		.4byte	0xd49
 1789 0d5a 640D0000 		.4byte	0xd64
 1790 0d5e 1A       		.uleb128 0x1a
 1791 0d5f B5090000 		.4byte	0x9b5
 1792 0d63 00       		.byte	0
 1793 0d64 14       		.uleb128 0x14
 1794 0d65 04       		.byte	0x4
 1795 0d66 550D0000 		.4byte	0xd55
 1796 0d6a 03       		.uleb128 0x3
 1797 0d6b 68030000 		.4byte	.LASF202
 1798 0d6f 0F       		.byte	0xf
 1799 0d70 5D       		.byte	0x5d
 1800 0d71 A2000000 		.4byte	0xa2
 1801 0d75 14       		.uleb128 0x14
 1802 0d76 04       		.byte	0x4
 1803 0d77 78050000 		.4byte	0x578
 1804 0d7b 1C       		.uleb128 0x1c
 1805 0d7c 01       		.byte	0x1
 1806 0d7d 10       		.byte	0x10
 1807 0d7e 64       		.byte	0x64
 1808 0d7f A0050000 		.4byte	.LASF239
 1809 0d83 9A0D0000 		.4byte	0xd9a
 1810 0d87 1D       		.uleb128 0x1d
 1811 0d88 6F020000 		.4byte	.LASF203
 1812 0d8c 00       		.sleb128 0
 1813 0d8d 1D       		.uleb128 0x1d
 1814 0d8e CA090000 		.4byte	.LASF204
 1815 0d92 01       		.sleb128 1
 1816 0d93 1D       		.uleb128 0x1d
 1817 0d94 7A080000 		.4byte	.LASF205
 1818 0d98 02       		.sleb128 2
 1819 0d99 00       		.byte	0
 1820 0d9a 03       		.uleb128 0x3
 1821 0d9b 5F080000 		.4byte	.LASF206
ARM GAS  /tmp/cc6M0mnT.s 			page 33


 1822 0d9f 10       		.byte	0x10
 1823 0da0 68       		.byte	0x68
 1824 0da1 7B0D0000 		.4byte	0xd7b
 1825 0da5 03       		.uleb128 0x3
 1826 0da6 CF070000 		.4byte	.LASF207
 1827 0daa 10       		.byte	0x10
 1828 0dab 6D       		.byte	0x6d
 1829 0dac B00D0000 		.4byte	0xdb0
 1830 0db0 0E       		.uleb128 0xe
 1831 0db1 CF070000 		.4byte	.LASF207
 1832 0db5 74       		.byte	0x74
 1833 0db6 10       		.byte	0x10
 1834 0db7 87       		.byte	0x87
 1835 0db8 270E0000 		.4byte	0xe27
 1836 0dbc 12       		.uleb128 0x12
 1837 0dbd 766D7400 		.ascii	"vmt\000"
 1838 0dc1 10       		.byte	0x10
 1839 0dc2 89       		.byte	0x89
 1840 0dc3 D00E0000 		.4byte	0xed0
 1841 0dc7 00       		.byte	0
 1842 0dc8 11       		.uleb128 0x11
 1843 0dc9 46060000 		.4byte	.LASF208
 1844 0dcd 10       		.byte	0x10
 1845 0dce 8A       		.byte	0x8a
 1846 0dcf FB0A0000 		.4byte	0xafb
 1847 0dd3 04       		.byte	0x4
 1848 0dd4 11       		.uleb128 0x11
 1849 0dd5 21030000 		.4byte	.LASF209
 1850 0dd9 10       		.byte	0x10
 1851 0dda 8A       		.byte	0x8a
 1852 0ddb 490D0000 		.4byte	0xd49
 1853 0ddf 08       		.byte	0x8
 1854 0de0 11       		.uleb128 0x11
 1855 0de1 D1080000 		.4byte	.LASF210
 1856 0de5 10       		.byte	0x10
 1857 0de6 8A       		.byte	0x8a
 1858 0de7 9A0D0000 		.4byte	0xd9a
 1859 0deb 0C       		.byte	0xc
 1860 0dec 11       		.uleb128 0x11
 1861 0ded 4F070000 		.4byte	.LASF211
 1862 0df1 10       		.byte	0x10
 1863 0df2 8A       		.byte	0x8a
 1864 0df3 B80B0000 		.4byte	0xbb8
 1865 0df7 10       		.byte	0x10
 1866 0df8 11       		.uleb128 0x11
 1867 0df9 9F010000 		.4byte	.LASF212
 1868 0dfd 10       		.byte	0x10
 1869 0dfe 8A       		.byte	0x8a
 1870 0dff C30B0000 		.4byte	0xbc3
 1871 0e03 30       		.byte	0x30
 1872 0e04 12       		.uleb128 0x12
 1873 0e05 696200   		.ascii	"ib\000"
 1874 0e08 10       		.byte	0x10
 1875 0e09 8A       		.byte	0x8a
 1876 0e0a DB0E0000 		.4byte	0xedb
 1877 0e0e 50       		.byte	0x50
 1878 0e0f 12       		.uleb128 0x12
ARM GAS  /tmp/cc6M0mnT.s 			page 34


 1879 0e10 6F6200   		.ascii	"ob\000"
 1880 0e13 10       		.byte	0x10
 1881 0e14 8A       		.byte	0x8a
 1882 0e15 DB0E0000 		.4byte	0xedb
 1883 0e19 60       		.byte	0x60
 1884 0e1a 11       		.uleb128 0x11
 1885 0e1b CC080000 		.4byte	.LASF213
 1886 0e1f 10       		.byte	0x10
 1887 0e20 8A       		.byte	0x8a
 1888 0e21 EB0E0000 		.4byte	0xeeb
 1889 0e25 70       		.byte	0x70
 1890 0e26 00       		.byte	0
 1891 0e27 13       		.uleb128 0x13
 1892 0e28 08       		.byte	0x8
 1893 0e29 11       		.byte	0x11
 1894 0e2a 58       		.byte	0x58
 1895 0e2b E8030000 		.4byte	.LASF214
 1896 0e2f 4C0E0000 		.4byte	0xe4c
 1897 0e33 11       		.uleb128 0x11
 1898 0e34 87060000 		.4byte	.LASF215
 1899 0e38 11       		.byte	0x11
 1900 0e39 5D       		.byte	0x5d
 1901 0e3a A2000000 		.4byte	0xa2
 1902 0e3e 00       		.byte	0
 1903 0e3f 11       		.uleb128 0x11
 1904 0e40 A0000000 		.4byte	.LASF216
 1905 0e44 11       		.byte	0x11
 1906 0e45 62       		.byte	0x62
 1907 0e46 A2000000 		.4byte	0xa2
 1908 0e4a 04       		.byte	0x4
 1909 0e4b 00       		.byte	0
 1910 0e4c 03       		.uleb128 0x3
 1911 0e4d 64000000 		.4byte	.LASF217
 1912 0e51 11       		.byte	0x11
 1913 0e52 63       		.byte	0x63
 1914 0e53 270E0000 		.4byte	0xe27
 1915 0e57 0E       		.uleb128 0xe
 1916 0e58 5E050000 		.4byte	.LASF218
 1917 0e5c 24       		.byte	0x24
 1918 0e5d 10       		.byte	0x10
 1919 0e5e 7C       		.byte	0x7c
 1920 0e5f D00E0000 		.4byte	0xed0
 1921 0e63 11       		.uleb128 0x11
 1922 0e64 9A000000 		.4byte	.LASF193
 1923 0e68 10       		.byte	0x10
 1924 0e69 7D       		.byte	0x7d
 1925 0e6a F20B0000 		.4byte	0xbf2
 1926 0e6e 00       		.byte	0
 1927 0e6f 11       		.uleb128 0x11
 1928 0e70 54060000 		.4byte	.LASF194
 1929 0e74 10       		.byte	0x10
 1930 0e75 7D       		.byte	0x7d
 1931 0e76 110C0000 		.4byte	0xc11
 1932 0e7a 04       		.byte	0x4
 1933 0e7b 11       		.uleb128 0x11
 1934 0e7c 5A030000 		.4byte	.LASF195
 1935 0e80 10       		.byte	0x10
ARM GAS  /tmp/cc6M0mnT.s 			page 35


 1936 0e81 7D       		.byte	0x7d
 1937 0e82 930C0000 		.4byte	0xc93
 1938 0e86 08       		.byte	0x8
 1939 0e87 11       		.uleb128 0x11
 1940 0e88 DF060000 		.4byte	.LASF196
 1941 0e8c 10       		.byte	0x10
 1942 0e8d 7D       		.byte	0x7d
 1943 0e8e 930C0000 		.4byte	0xc93
 1944 0e92 0C       		.byte	0xc
 1945 0e93 12       		.uleb128 0x12
 1946 0e94 70757400 		.ascii	"put\000"
 1947 0e98 10       		.byte	0x10
 1948 0e99 7D       		.byte	0x7d
 1949 0e9a B20C0000 		.4byte	0xcb2
 1950 0e9e 10       		.byte	0x10
 1951 0e9f 12       		.uleb128 0x12
 1952 0ea0 67657400 		.ascii	"get\000"
 1953 0ea4 10       		.byte	0x10
 1954 0ea5 7D       		.byte	0x7d
 1955 0ea6 CC0C0000 		.4byte	0xccc
 1956 0eaa 14       		.byte	0x14
 1957 0eab 11       		.uleb128 0x11
 1958 0eac 71000000 		.4byte	.LASF197
 1959 0eb0 10       		.byte	0x10
 1960 0eb1 7D       		.byte	0x7d
 1961 0eb2 F00C0000 		.4byte	0xcf0
 1962 0eb6 18       		.byte	0x18
 1963 0eb7 11       		.uleb128 0x11
 1964 0eb8 18010000 		.4byte	.LASF198
 1965 0ebc 10       		.byte	0x10
 1966 0ebd 7D       		.byte	0x7d
 1967 0ebe 140D0000 		.4byte	0xd14
 1968 0ec2 1C       		.byte	0x1c
 1969 0ec3 11       		.uleb128 0x11
 1970 0ec4 EB080000 		.4byte	.LASF219
 1971 0ec8 10       		.byte	0x10
 1972 0ec9 7D       		.byte	0x7d
 1973 0eca 640D0000 		.4byte	0xd64
 1974 0ece 20       		.byte	0x20
 1975 0ecf 00       		.byte	0
 1976 0ed0 14       		.uleb128 0x14
 1977 0ed1 04       		.byte	0x4
 1978 0ed2 D60E0000 		.4byte	0xed6
 1979 0ed6 18       		.uleb128 0x18
 1980 0ed7 570E0000 		.4byte	0xe57
 1981 0edb 06       		.uleb128 0x6
 1982 0edc 37000000 		.4byte	0x37
 1983 0ee0 EB0E0000 		.4byte	0xeeb
 1984 0ee4 07       		.uleb128 0x7
 1985 0ee5 DE000000 		.4byte	0xde
 1986 0ee9 0F       		.byte	0xf
 1987 0eea 00       		.byte	0
 1988 0eeb 14       		.uleb128 0x14
 1989 0eec 04       		.byte	0x4
 1990 0eed B0070000 		.4byte	0x7b0
 1991 0ef1 0E       		.uleb128 0xe
 1992 0ef2 41070000 		.4byte	.LASF220
ARM GAS  /tmp/cc6M0mnT.s 			page 36


 1993 0ef6 0C       		.byte	0xc
 1994 0ef7 12       		.byte	0x12
 1995 0ef8 C8       		.byte	0xc8
 1996 0ef9 390F0000 		.4byte	0xf39
 1997 0efd 11       		.uleb128 0x11
 1998 0efe EF050000 		.4byte	.LASF221
 1999 0f02 12       		.byte	0x12
 2000 0f03 CB       		.byte	0xcb
 2001 0f04 A2000000 		.4byte	0xa2
 2002 0f08 00       		.byte	0
 2003 0f09 12       		.uleb128 0x12
 2004 0f0a 70696F00 		.ascii	"pio\000"
 2005 0f0e 12       		.byte	0x12
 2006 0f0f CD       		.byte	0xcd
 2007 0f10 750D0000 		.4byte	0xd75
 2008 0f14 04       		.byte	0x4
 2009 0f15 12       		.uleb128 0x12
 2010 0f16 696400   		.ascii	"id\000"
 2011 0f19 12       		.byte	0x12
 2012 0f1a CF       		.byte	0xcf
 2013 0f1b 8C000000 		.4byte	0x8c
 2014 0f1f 08       		.byte	0x8
 2015 0f20 11       		.uleb128 0x11
 2016 0f21 C1000000 		.4byte	.LASF222
 2017 0f25 12       		.byte	0x12
 2018 0f26 D1       		.byte	0xd1
 2019 0f27 8C000000 		.4byte	0x8c
 2020 0f2b 09       		.byte	0x9
 2021 0f2c 11       		.uleb128 0x11
 2022 0f2d 7D070000 		.4byte	.LASF223
 2023 0f31 12       		.byte	0x12
 2024 0f32 D3       		.byte	0xd3
 2025 0f33 8C000000 		.4byte	0x8c
 2026 0f37 0A       		.byte	0xa
 2027 0f38 00       		.byte	0
 2028 0f39 1E       		.uleb128 0x1e
 2029 0f3a 50696E00 		.ascii	"Pin\000"
 2030 0f3e 12       		.byte	0x12
 2031 0f3f D4       		.byte	0xd4
 2032 0f40 F10E0000 		.4byte	0xef1
 2033 0f44 1F       		.uleb128 0x1f
 2034 0f45 90010000 		.4byte	.LASF240
 2035 0f49 01       		.byte	0x1
 2036 0f4a 1E       		.byte	0x1e
 2037 0f4b 7E000000 		.4byte	0x7e
 2038 0f4f 00000000 		.4byte	.LFB36
 2039 0f53 88000000 		.4byte	.LFE36-.LFB36
 2040 0f57 01       		.uleb128 0x1
 2041 0f58 9C       		.byte	0x9c
 2042 0f59 74100000 		.4byte	0x1074
 2043 0f5d 20       		.uleb128 0x20
 2044 0f5e 06000000 		.4byte	.LVL0
 2045 0f62 DC100000 		.4byte	0x10dc
 2046 0f66 20       		.uleb128 0x20
 2047 0f67 0A000000 		.4byte	.LVL1
 2048 0f6b E3100000 		.4byte	0x10e3
 2049 0f6f 21       		.uleb128 0x21
ARM GAS  /tmp/cc6M0mnT.s 			page 37


 2050 0f70 12000000 		.4byte	.LVL2
 2051 0f74 EA100000 		.4byte	0x10ea
 2052 0f78 820F0000 		.4byte	0xf82
 2053 0f7c 22       		.uleb128 0x22
 2054 0f7d 01       		.uleb128 0x1
 2055 0f7e 51       		.byte	0x51
 2056 0f7f 01       		.uleb128 0x1
 2057 0f80 30       		.byte	0x30
 2058 0f81 00       		.byte	0
 2059 0f82 21       		.uleb128 0x21
 2060 0f83 1A000000 		.4byte	.LVL3
 2061 0f87 12110000 		.4byte	0x1112
 2062 0f8b 9E0F0000 		.4byte	0xf9e
 2063 0f8f 22       		.uleb128 0x22
 2064 0f90 01       		.uleb128 0x1
 2065 0f91 51       		.byte	0x51
 2066 0f92 01       		.uleb128 0x1
 2067 0f93 31       		.byte	0x31
 2068 0f94 22       		.uleb128 0x22
 2069 0f95 01       		.uleb128 0x1
 2070 0f96 50       		.byte	0x50
 2071 0f97 05       		.uleb128 0x5
 2072 0f98 03       		.byte	0x3
 2073 0f99 00000000 		.4byte	.LANCHOR0
 2074 0f9d 00       		.byte	0
 2075 0f9e 21       		.uleb128 0x21
 2076 0f9f 24000000 		.4byte	.LVL4
 2077 0fa3 37110000 		.4byte	0x1137
 2078 0fa7 BB0F0000 		.4byte	0xfbb
 2079 0fab 22       		.uleb128 0x22
 2080 0fac 01       		.uleb128 0x1
 2081 0fad 52       		.byte	0x52
 2082 0fae 01       		.uleb128 0x1
 2083 0faf 31       		.byte	0x31
 2084 0fb0 22       		.uleb128 0x22
 2085 0fb1 01       		.uleb128 0x1
 2086 0fb2 51       		.byte	0x51
 2087 0fb3 01       		.uleb128 0x1
 2088 0fb4 4F       		.byte	0x4f
 2089 0fb5 22       		.uleb128 0x22
 2090 0fb6 01       		.uleb128 0x1
 2091 0fb7 50       		.byte	0x50
 2092 0fb8 01       		.uleb128 0x1
 2093 0fb9 30       		.byte	0x30
 2094 0fba 00       		.byte	0
 2095 0fbb 21       		.uleb128 0x21
 2096 0fbc 2C000000 		.4byte	.LVL5
 2097 0fc0 52110000 		.4byte	0x1152
 2098 0fc4 D30F0000 		.4byte	0xfd3
 2099 0fc8 22       		.uleb128 0x22
 2100 0fc9 01       		.uleb128 0x1
 2101 0fca 51       		.byte	0x51
 2102 0fcb 01       		.uleb128 0x1
 2103 0fcc 30       		.byte	0x30
 2104 0fcd 22       		.uleb128 0x22
 2105 0fce 01       		.uleb128 0x1
 2106 0fcf 50       		.byte	0x50
ARM GAS  /tmp/cc6M0mnT.s 			page 38


 2107 0fd0 01       		.uleb128 0x1
 2108 0fd1 31       		.byte	0x31
 2109 0fd2 00       		.byte	0
 2110 0fd3 21       		.uleb128 0x21
 2111 0fd4 34000000 		.4byte	.LVL6
 2112 0fd8 52110000 		.4byte	0x1152
 2113 0fdc EB0F0000 		.4byte	0xfeb
 2114 0fe0 22       		.uleb128 0x22
 2115 0fe1 01       		.uleb128 0x1
 2116 0fe2 51       		.byte	0x51
 2117 0fe3 01       		.uleb128 0x1
 2118 0fe4 30       		.byte	0x30
 2119 0fe5 22       		.uleb128 0x22
 2120 0fe6 01       		.uleb128 0x1
 2121 0fe7 50       		.byte	0x50
 2122 0fe8 01       		.uleb128 0x1
 2123 0fe9 32       		.byte	0x32
 2124 0fea 00       		.byte	0
 2125 0feb 21       		.uleb128 0x21
 2126 0fec 3C000000 		.4byte	.LVL7
 2127 0ff0 68110000 		.4byte	0x1168
 2128 0ff4 03100000 		.4byte	0x1003
 2129 0ff8 22       		.uleb128 0x22
 2130 0ff9 01       		.uleb128 0x1
 2131 0ffa 51       		.byte	0x51
 2132 0ffb 01       		.uleb128 0x1
 2133 0ffc 40       		.byte	0x40
 2134 0ffd 22       		.uleb128 0x22
 2135 0ffe 01       		.uleb128 0x1
 2136 0fff 50       		.byte	0x50
 2137 1000 01       		.uleb128 0x1
 2138 1001 32       		.byte	0x32
 2139 1002 00       		.byte	0
 2140 1003 21       		.uleb128 0x21
 2141 1004 44000000 		.4byte	.LVL8
 2142 1008 12110000 		.4byte	0x1112
 2143 100c 1F100000 		.4byte	0x101f
 2144 1010 22       		.uleb128 0x22
 2145 1011 01       		.uleb128 0x1
 2146 1012 51       		.byte	0x51
 2147 1013 01       		.uleb128 0x1
 2148 1014 35       		.byte	0x35
 2149 1015 22       		.uleb128 0x22
 2150 1016 01       		.uleb128 0x1
 2151 1017 50       		.byte	0x50
 2152 1018 05       		.uleb128 0x5
 2153 1019 03       		.byte	0x3
 2154 101a 00000000 		.4byte	.LANCHOR1
 2155 101e 00       		.byte	0
 2156 101f 21       		.uleb128 0x21
 2157 1020 4A000000 		.4byte	.LVL9
 2158 1024 7E110000 		.4byte	0x117e
 2159 1028 36100000 		.4byte	0x1036
 2160 102c 22       		.uleb128 0x22
 2161 102d 01       		.uleb128 0x1
 2162 102e 50       		.byte	0x50
 2163 102f 05       		.uleb128 0x5
ARM GAS  /tmp/cc6M0mnT.s 			page 39


 2164 1030 0C       		.byte	0xc
 2165 1031 00000E40 		.4byte	0x400e0000
 2166 1035 00       		.byte	0
 2167 1036 21       		.uleb128 0x21
 2168 1037 58000000 		.4byte	.LVL10
 2169 103b 99110000 		.4byte	0x1199
 2170 103f 4D100000 		.4byte	0x104d
 2171 1043 22       		.uleb128 0x22
 2172 1044 01       		.uleb128 0x1
 2173 1045 51       		.byte	0x51
 2174 1046 05       		.uleb128 0x5
 2175 1047 03       		.byte	0x3
 2176 1048 00000000 		.4byte	.LC0
 2177 104c 00       		.byte	0
 2178 104d 21       		.uleb128 0x21
 2179 104e 62000000 		.4byte	.LVL11
 2180 1052 B6110000 		.4byte	0x11b6
 2181 1056 62100000 		.4byte	0x1062
 2182 105a 22       		.uleb128 0x22
 2183 105b 01       		.uleb128 0x1
 2184 105c 50       		.byte	0x50
 2185 105d 03       		.uleb128 0x3
 2186 105e 0A       		.byte	0xa
 2187 105f 8813     		.2byte	0x1388
 2188 1061 00       		.byte	0
 2189 1062 23       		.uleb128 0x23
 2190 1063 6C000000 		.4byte	.LVL12
 2191 1067 B6110000 		.4byte	0x11b6
 2192 106b 22       		.uleb128 0x22
 2193 106c 01       		.uleb128 0x1
 2194 106d 50       		.byte	0x50
 2195 106e 03       		.uleb128 0x3
 2196 106f 0A       		.byte	0xa
 2197 1070 8813     		.2byte	0x1388
 2198 1072 00       		.byte	0
 2199 1073 00       		.byte	0
 2200 1074 24       		.uleb128 0x24
 2201 1075 13060000 		.4byte	.LASF224
 2202 1079 18       		.byte	0x18
 2203 107a CE06     		.2byte	0x6ce
 2204 107c 80100000 		.4byte	0x1080
 2205 1080 05       		.uleb128 0x5
 2206 1081 7E000000 		.4byte	0x7e
 2207 1085 25       		.uleb128 0x25
 2208 1086 53443200 		.ascii	"SD2\000"
 2209 108a 11       		.byte	0x11
 2210 108b 85       		.byte	0x85
 2211 108c A50D0000 		.4byte	0xda5
 2212 1090 06       		.uleb128 0x6
 2213 1091 F10E0000 		.4byte	0xef1
 2214 1095 A0100000 		.4byte	0x10a0
 2215 1099 07       		.uleb128 0x7
 2216 109a DE000000 		.4byte	0xde
 2217 109e 04       		.byte	0x4
 2218 109f 00       		.byte	0
 2219 10a0 26       		.uleb128 0x26
 2220 10a1 B7020000 		.4byte	.LASF225
ARM GAS  /tmp/cc6M0mnT.s 			page 40


 2221 10a5 13       		.byte	0x13
 2222 10a6 1A       		.byte	0x1a
 2223 10a7 B1100000 		.4byte	0x10b1
 2224 10ab 05       		.uleb128 0x5
 2225 10ac 03       		.byte	0x3
 2226 10ad 00000000 		.4byte	_ZL8pinPsram
 2227 10b1 18       		.uleb128 0x18
 2228 10b2 90100000 		.4byte	0x1090
 2229 10b6 06       		.uleb128 0x6
 2230 10b7 F10E0000 		.4byte	0xef1
 2231 10bb C6100000 		.4byte	0x10c6
 2232 10bf 07       		.uleb128 0x7
 2233 10c0 DE000000 		.4byte	0xde
 2234 10c4 00       		.byte	0
 2235 10c5 00       		.byte	0
 2236 10c6 26       		.uleb128 0x26
 2237 10c7 A6060000 		.4byte	.LASF226
 2238 10cb 01       		.byte	0x1
 2239 10cc 19       		.byte	0x19
 2240 10cd D7100000 		.4byte	0x10d7
 2241 10d1 05       		.uleb128 0x5
 2242 10d2 03       		.byte	0x3
 2243 10d3 00000000 		.4byte	_ZL6pinPCK
 2244 10d7 18       		.uleb128 0x18
 2245 10d8 B6100000 		.4byte	0x10b6
 2246 10dc 27       		.uleb128 0x27
 2247 10dd 7F050000 		.4byte	.LASF227
 2248 10e1 14       		.byte	0x14
 2249 10e2 A4       		.byte	0xa4
 2250 10e3 27       		.uleb128 0x27
 2251 10e4 25090000 		.4byte	.LASF228
 2252 10e8 15       		.byte	0x15
 2253 10e9 F6       		.byte	0xf6
 2254 10ea 28       		.uleb128 0x28
 2255 10eb 6E050000 		.4byte	.LASF229
 2256 10ef 10       		.byte	0x10
 2257 10f0 3901     		.2byte	0x139
 2258 10f2 01110000 		.4byte	0x1101
 2259 10f6 1A       		.uleb128 0x1a
 2260 10f7 01110000 		.4byte	0x1101
 2261 10fb 1A       		.uleb128 0x1a
 2262 10fc 07110000 		.4byte	0x1107
 2263 1100 00       		.byte	0
 2264 1101 14       		.uleb128 0x14
 2265 1102 04       		.byte	0x4
 2266 1103 A50D0000 		.4byte	0xda5
 2267 1107 14       		.uleb128 0x14
 2268 1108 04       		.byte	0x4
 2269 1109 0D110000 		.4byte	0x110d
 2270 110d 18       		.uleb128 0x18
 2271 110e 4C0E0000 		.4byte	0xe4c
 2272 1112 29       		.uleb128 0x29
 2273 1113 1B000000 		.4byte	.LASF233
 2274 1117 12       		.byte	0x12
 2275 1118 DE       		.byte	0xde
 2276 1119 8C000000 		.4byte	0x8c
 2277 111d 2C110000 		.4byte	0x112c
ARM GAS  /tmp/cc6M0mnT.s 			page 41


 2278 1121 1A       		.uleb128 0x1a
 2279 1122 2C110000 		.4byte	0x112c
 2280 1126 1A       		.uleb128 0x1a
 2281 1127 A2000000 		.4byte	0xa2
 2282 112b 00       		.byte	0
 2283 112c 14       		.uleb128 0x14
 2284 112d 04       		.byte	0x4
 2285 112e 32110000 		.4byte	0x1132
 2286 1132 18       		.uleb128 0x18
 2287 1133 390F0000 		.4byte	0xf39
 2288 1137 2A       		.uleb128 0x2a
 2289 1138 FA000000 		.4byte	.LASF230
 2290 113c 16       		.byte	0x16
 2291 113d 39       		.byte	0x39
 2292 113e 52110000 		.4byte	0x1152
 2293 1142 1A       		.uleb128 0x1a
 2294 1143 8C000000 		.4byte	0x8c
 2295 1147 1A       		.uleb128 0x1a
 2296 1148 A2000000 		.4byte	0xa2
 2297 114c 1A       		.uleb128 0x1a
 2298 114d A2000000 		.4byte	0xa2
 2299 1151 00       		.byte	0
 2300 1152 2A       		.uleb128 0x2a
 2301 1153 A8090000 		.4byte	.LASF231
 2302 1157 16       		.byte	0x16
 2303 1158 36       		.byte	0x36
 2304 1159 68110000 		.4byte	0x1168
 2305 115d 1A       		.uleb128 0x1a
 2306 115e A2000000 		.4byte	0xa2
 2307 1162 1A       		.uleb128 0x1a
 2308 1163 A2000000 		.4byte	0xa2
 2309 1167 00       		.byte	0
 2310 1168 2A       		.uleb128 0x2a
 2311 1169 00050000 		.4byte	.LASF232
 2312 116d 16       		.byte	0x16
 2313 116e 37       		.byte	0x37
 2314 116f 7E110000 		.4byte	0x117e
 2315 1173 1A       		.uleb128 0x1a
 2316 1174 A2000000 		.4byte	0xa2
 2317 1178 1A       		.uleb128 0x1a
 2318 1179 A2000000 		.4byte	0xa2
 2319 117d 00       		.byte	0
 2320 117e 2B       		.uleb128 0x2b
 2321 117f FE050000 		.4byte	.LASF234
 2322 1183 13       		.byte	0x13
 2323 1184 23       		.byte	0x23
 2324 1185 2B050000 		.4byte	.LASF241
 2325 1189 93110000 		.4byte	0x1193
 2326 118d 1A       		.uleb128 0x1a
 2327 118e 93110000 		.4byte	0x1193
 2328 1192 00       		.byte	0
 2329 1193 14       		.uleb128 0x14
 2330 1194 04       		.byte	0x4
 2331 1195 72060000 		.4byte	0x672
 2332 1199 2A       		.uleb128 0x2a
 2333 119a A5030000 		.4byte	.LASF235
 2334 119e 17       		.byte	0x17
ARM GAS  /tmp/cc6M0mnT.s 			page 42


 2335 119f 2A       		.byte	0x2a
 2336 11a0 B0110000 		.4byte	0x11b0
 2337 11a4 1A       		.uleb128 0x1a
 2338 11a5 B0110000 		.4byte	0x11b0
 2339 11a9 1A       		.uleb128 0x1a
 2340 11aa 0C0B0000 		.4byte	0xb0c
 2341 11ae 2C       		.uleb128 0x2c
 2342 11af 00       		.byte	0
 2343 11b0 14       		.uleb128 0x14
 2344 11b1 04       		.byte	0x4
 2345 11b2 3E0D0000 		.4byte	0xd3e
 2346 11b6 2D       		.uleb128 0x2d
 2347 11b7 AE030000 		.4byte	.LASF242
 2348 11bb 09       		.byte	0x9
 2349 11bc 6901     		.2byte	0x169
 2350 11be 1A       		.uleb128 0x1a
 2351 11bf 14080000 		.4byte	0x814
 2352 11c3 00       		.byte	0
 2353 11c4 00       		.byte	0
 2354              		.section	.debug_abbrev,"",%progbits
 2355              	.Ldebug_abbrev0:
 2356 0000 01       		.uleb128 0x1
 2357 0001 11       		.uleb128 0x11
 2358 0002 01       		.byte	0x1
 2359 0003 25       		.uleb128 0x25
 2360 0004 0E       		.uleb128 0xe
 2361 0005 13       		.uleb128 0x13
 2362 0006 0B       		.uleb128 0xb
 2363 0007 03       		.uleb128 0x3
 2364 0008 0E       		.uleb128 0xe
 2365 0009 1B       		.uleb128 0x1b
 2366 000a 0E       		.uleb128 0xe
 2367 000b 55       		.uleb128 0x55
 2368 000c 17       		.uleb128 0x17
 2369 000d 11       		.uleb128 0x11
 2370 000e 01       		.uleb128 0x1
 2371 000f 10       		.uleb128 0x10
 2372 0010 17       		.uleb128 0x17
 2373 0011 00       		.byte	0
 2374 0012 00       		.byte	0
 2375 0013 02       		.uleb128 0x2
 2376 0014 24       		.uleb128 0x24
 2377 0015 00       		.byte	0
 2378 0016 0B       		.uleb128 0xb
 2379 0017 0B       		.uleb128 0xb
 2380 0018 3E       		.uleb128 0x3e
 2381 0019 0B       		.uleb128 0xb
 2382 001a 03       		.uleb128 0x3
 2383 001b 0E       		.uleb128 0xe
 2384 001c 00       		.byte	0
 2385 001d 00       		.byte	0
 2386 001e 03       		.uleb128 0x3
 2387 001f 16       		.uleb128 0x16
 2388 0020 00       		.byte	0
 2389 0021 03       		.uleb128 0x3
 2390 0022 0E       		.uleb128 0xe
 2391 0023 3A       		.uleb128 0x3a
ARM GAS  /tmp/cc6M0mnT.s 			page 43


 2392 0024 0B       		.uleb128 0xb
 2393 0025 3B       		.uleb128 0x3b
 2394 0026 0B       		.uleb128 0xb
 2395 0027 49       		.uleb128 0x49
 2396 0028 13       		.uleb128 0x13
 2397 0029 00       		.byte	0
 2398 002a 00       		.byte	0
 2399 002b 04       		.uleb128 0x4
 2400 002c 24       		.uleb128 0x24
 2401 002d 00       		.byte	0
 2402 002e 0B       		.uleb128 0xb
 2403 002f 0B       		.uleb128 0xb
 2404 0030 3E       		.uleb128 0x3e
 2405 0031 0B       		.uleb128 0xb
 2406 0032 03       		.uleb128 0x3
 2407 0033 08       		.uleb128 0x8
 2408 0034 00       		.byte	0
 2409 0035 00       		.byte	0
 2410 0036 05       		.uleb128 0x5
 2411 0037 35       		.uleb128 0x35
 2412 0038 00       		.byte	0
 2413 0039 49       		.uleb128 0x49
 2414 003a 13       		.uleb128 0x13
 2415 003b 00       		.byte	0
 2416 003c 00       		.byte	0
 2417 003d 06       		.uleb128 0x6
 2418 003e 01       		.uleb128 0x1
 2419 003f 01       		.byte	0x1
 2420 0040 49       		.uleb128 0x49
 2421 0041 13       		.uleb128 0x13
 2422 0042 01       		.uleb128 0x1
 2423 0043 13       		.uleb128 0x13
 2424 0044 00       		.byte	0
 2425 0045 00       		.byte	0
 2426 0046 07       		.uleb128 0x7
 2427 0047 21       		.uleb128 0x21
 2428 0048 00       		.byte	0
 2429 0049 49       		.uleb128 0x49
 2430 004a 13       		.uleb128 0x13
 2431 004b 2F       		.uleb128 0x2f
 2432 004c 0B       		.uleb128 0xb
 2433 004d 00       		.byte	0
 2434 004e 00       		.byte	0
 2435 004f 08       		.uleb128 0x8
 2436 0050 13       		.uleb128 0x13
 2437 0051 01       		.byte	0x1
 2438 0052 0B       		.uleb128 0xb
 2439 0053 05       		.uleb128 0x5
 2440 0054 3A       		.uleb128 0x3a
 2441 0055 0B       		.uleb128 0xb
 2442 0056 3B       		.uleb128 0x3b
 2443 0057 05       		.uleb128 0x5
 2444 0058 6E       		.uleb128 0x6e
 2445 0059 0E       		.uleb128 0xe
 2446 005a 01       		.uleb128 0x1
 2447 005b 13       		.uleb128 0x13
 2448 005c 00       		.byte	0
ARM GAS  /tmp/cc6M0mnT.s 			page 44


 2449 005d 00       		.byte	0
 2450 005e 09       		.uleb128 0x9
 2451 005f 0D       		.uleb128 0xd
 2452 0060 00       		.byte	0
 2453 0061 03       		.uleb128 0x3
 2454 0062 0E       		.uleb128 0xe
 2455 0063 3A       		.uleb128 0x3a
 2456 0064 0B       		.uleb128 0xb
 2457 0065 3B       		.uleb128 0x3b
 2458 0066 05       		.uleb128 0x5
 2459 0067 49       		.uleb128 0x49
 2460 0068 13       		.uleb128 0x13
 2461 0069 38       		.uleb128 0x38
 2462 006a 0B       		.uleb128 0xb
 2463 006b 00       		.byte	0
 2464 006c 00       		.byte	0
 2465 006d 0A       		.uleb128 0xa
 2466 006e 0D       		.uleb128 0xd
 2467 006f 00       		.byte	0
 2468 0070 03       		.uleb128 0x3
 2469 0071 0E       		.uleb128 0xe
 2470 0072 3A       		.uleb128 0x3a
 2471 0073 0B       		.uleb128 0xb
 2472 0074 3B       		.uleb128 0x3b
 2473 0075 05       		.uleb128 0x5
 2474 0076 49       		.uleb128 0x49
 2475 0077 13       		.uleb128 0x13
 2476 0078 38       		.uleb128 0x38
 2477 0079 05       		.uleb128 0x5
 2478 007a 00       		.byte	0
 2479 007b 00       		.byte	0
 2480 007c 0B       		.uleb128 0xb
 2481 007d 16       		.uleb128 0x16
 2482 007e 00       		.byte	0
 2483 007f 03       		.uleb128 0x3
 2484 0080 08       		.uleb128 0x8
 2485 0081 3A       		.uleb128 0x3a
 2486 0082 0B       		.uleb128 0xb
 2487 0083 3B       		.uleb128 0x3b
 2488 0084 05       		.uleb128 0x5
 2489 0085 49       		.uleb128 0x49
 2490 0086 13       		.uleb128 0x13
 2491 0087 00       		.byte	0
 2492 0088 00       		.byte	0
 2493 0089 0C       		.uleb128 0xc
 2494 008a 13       		.uleb128 0x13
 2495 008b 01       		.byte	0x1
 2496 008c 0B       		.uleb128 0xb
 2497 008d 0B       		.uleb128 0xb
 2498 008e 3A       		.uleb128 0x3a
 2499 008f 0B       		.uleb128 0xb
 2500 0090 3B       		.uleb128 0x3b
 2501 0091 05       		.uleb128 0x5
 2502 0092 6E       		.uleb128 0x6e
 2503 0093 0E       		.uleb128 0xe
 2504 0094 01       		.uleb128 0x1
 2505 0095 13       		.uleb128 0x13
ARM GAS  /tmp/cc6M0mnT.s 			page 45


 2506 0096 00       		.byte	0
 2507 0097 00       		.byte	0
 2508 0098 0D       		.uleb128 0xd
 2509 0099 16       		.uleb128 0x16
 2510 009a 00       		.byte	0
 2511 009b 03       		.uleb128 0x3
 2512 009c 0E       		.uleb128 0xe
 2513 009d 3A       		.uleb128 0x3a
 2514 009e 0B       		.uleb128 0xb
 2515 009f 3B       		.uleb128 0x3b
 2516 00a0 05       		.uleb128 0x5
 2517 00a1 49       		.uleb128 0x49
 2518 00a2 13       		.uleb128 0x13
 2519 00a3 00       		.byte	0
 2520 00a4 00       		.byte	0
 2521 00a5 0E       		.uleb128 0xe
 2522 00a6 13       		.uleb128 0x13
 2523 00a7 01       		.byte	0x1
 2524 00a8 03       		.uleb128 0x3
 2525 00a9 0E       		.uleb128 0xe
 2526 00aa 0B       		.uleb128 0xb
 2527 00ab 0B       		.uleb128 0xb
 2528 00ac 3A       		.uleb128 0x3a
 2529 00ad 0B       		.uleb128 0xb
 2530 00ae 3B       		.uleb128 0x3b
 2531 00af 0B       		.uleb128 0xb
 2532 00b0 01       		.uleb128 0x1
 2533 00b1 13       		.uleb128 0x13
 2534 00b2 00       		.byte	0
 2535 00b3 00       		.byte	0
 2536 00b4 0F       		.uleb128 0xf
 2537 00b5 17       		.uleb128 0x17
 2538 00b6 01       		.byte	0x1
 2539 00b7 0B       		.uleb128 0xb
 2540 00b8 0B       		.uleb128 0xb
 2541 00b9 3A       		.uleb128 0x3a
 2542 00ba 0B       		.uleb128 0xb
 2543 00bb 3B       		.uleb128 0x3b
 2544 00bc 0B       		.uleb128 0xb
 2545 00bd 01       		.uleb128 0x1
 2546 00be 13       		.uleb128 0x13
 2547 00bf 00       		.byte	0
 2548 00c0 00       		.byte	0
 2549 00c1 10       		.uleb128 0x10
 2550 00c2 0D       		.uleb128 0xd
 2551 00c3 00       		.byte	0
 2552 00c4 03       		.uleb128 0x3
 2553 00c5 0E       		.uleb128 0xe
 2554 00c6 3A       		.uleb128 0x3a
 2555 00c7 0B       		.uleb128 0xb
 2556 00c8 3B       		.uleb128 0x3b
 2557 00c9 0B       		.uleb128 0xb
 2558 00ca 49       		.uleb128 0x49
 2559 00cb 13       		.uleb128 0x13
 2560 00cc 00       		.byte	0
 2561 00cd 00       		.byte	0
 2562 00ce 11       		.uleb128 0x11
ARM GAS  /tmp/cc6M0mnT.s 			page 46


 2563 00cf 0D       		.uleb128 0xd
 2564 00d0 00       		.byte	0
 2565 00d1 03       		.uleb128 0x3
 2566 00d2 0E       		.uleb128 0xe
 2567 00d3 3A       		.uleb128 0x3a
 2568 00d4 0B       		.uleb128 0xb
 2569 00d5 3B       		.uleb128 0x3b
 2570 00d6 0B       		.uleb128 0xb
 2571 00d7 49       		.uleb128 0x49
 2572 00d8 13       		.uleb128 0x13
 2573 00d9 38       		.uleb128 0x38
 2574 00da 0B       		.uleb128 0xb
 2575 00db 00       		.byte	0
 2576 00dc 00       		.byte	0
 2577 00dd 12       		.uleb128 0x12
 2578 00de 0D       		.uleb128 0xd
 2579 00df 00       		.byte	0
 2580 00e0 03       		.uleb128 0x3
 2581 00e1 08       		.uleb128 0x8
 2582 00e2 3A       		.uleb128 0x3a
 2583 00e3 0B       		.uleb128 0xb
 2584 00e4 3B       		.uleb128 0x3b
 2585 00e5 0B       		.uleb128 0xb
 2586 00e6 49       		.uleb128 0x49
 2587 00e7 13       		.uleb128 0x13
 2588 00e8 38       		.uleb128 0x38
 2589 00e9 0B       		.uleb128 0xb
 2590 00ea 00       		.byte	0
 2591 00eb 00       		.byte	0
 2592 00ec 13       		.uleb128 0x13
 2593 00ed 13       		.uleb128 0x13
 2594 00ee 01       		.byte	0x1
 2595 00ef 0B       		.uleb128 0xb
 2596 00f0 0B       		.uleb128 0xb
 2597 00f1 3A       		.uleb128 0x3a
 2598 00f2 0B       		.uleb128 0xb
 2599 00f3 3B       		.uleb128 0x3b
 2600 00f4 0B       		.uleb128 0xb
 2601 00f5 6E       		.uleb128 0x6e
 2602 00f6 0E       		.uleb128 0xe
 2603 00f7 01       		.uleb128 0x1
 2604 00f8 13       		.uleb128 0x13
 2605 00f9 00       		.byte	0
 2606 00fa 00       		.byte	0
 2607 00fb 14       		.uleb128 0x14
 2608 00fc 0F       		.uleb128 0xf
 2609 00fd 00       		.byte	0
 2610 00fe 0B       		.uleb128 0xb
 2611 00ff 0B       		.uleb128 0xb
 2612 0100 49       		.uleb128 0x49
 2613 0101 13       		.uleb128 0x13
 2614 0102 00       		.byte	0
 2615 0103 00       		.byte	0
 2616 0104 15       		.uleb128 0x15
 2617 0105 0F       		.uleb128 0xf
 2618 0106 00       		.byte	0
 2619 0107 0B       		.uleb128 0xb
ARM GAS  /tmp/cc6M0mnT.s 			page 47


 2620 0108 0B       		.uleb128 0xb
 2621 0109 00       		.byte	0
 2622 010a 00       		.byte	0
 2623 010b 16       		.uleb128 0x16
 2624 010c 0D       		.uleb128 0xd
 2625 010d 00       		.byte	0
 2626 010e 03       		.uleb128 0x3
 2627 010f 08       		.uleb128 0x8
 2628 0110 3A       		.uleb128 0x3a
 2629 0111 0B       		.uleb128 0xb
 2630 0112 3B       		.uleb128 0x3b
 2631 0113 05       		.uleb128 0x5
 2632 0114 49       		.uleb128 0x49
 2633 0115 13       		.uleb128 0x13
 2634 0116 38       		.uleb128 0x38
 2635 0117 0B       		.uleb128 0xb
 2636 0118 00       		.byte	0
 2637 0119 00       		.byte	0
 2638 011a 17       		.uleb128 0x17
 2639 011b 13       		.uleb128 0x13
 2640 011c 01       		.byte	0x1
 2641 011d 03       		.uleb128 0x3
 2642 011e 0E       		.uleb128 0xe
 2643 011f 0B       		.uleb128 0xb
 2644 0120 0B       		.uleb128 0xb
 2645 0121 3A       		.uleb128 0x3a
 2646 0122 0B       		.uleb128 0xb
 2647 0123 3B       		.uleb128 0x3b
 2648 0124 05       		.uleb128 0x5
 2649 0125 01       		.uleb128 0x1
 2650 0126 13       		.uleb128 0x13
 2651 0127 00       		.byte	0
 2652 0128 00       		.byte	0
 2653 0129 18       		.uleb128 0x18
 2654 012a 26       		.uleb128 0x26
 2655 012b 00       		.byte	0
 2656 012c 49       		.uleb128 0x49
 2657 012d 13       		.uleb128 0x13
 2658 012e 00       		.byte	0
 2659 012f 00       		.byte	0
 2660 0130 19       		.uleb128 0x19
 2661 0131 15       		.uleb128 0x15
 2662 0132 01       		.byte	0x1
 2663 0133 01       		.uleb128 0x1
 2664 0134 13       		.uleb128 0x13
 2665 0135 00       		.byte	0
 2666 0136 00       		.byte	0
 2667 0137 1A       		.uleb128 0x1a
 2668 0138 05       		.uleb128 0x5
 2669 0139 00       		.byte	0
 2670 013a 49       		.uleb128 0x49
 2671 013b 13       		.uleb128 0x13
 2672 013c 00       		.byte	0
 2673 013d 00       		.byte	0
 2674 013e 1B       		.uleb128 0x1b
 2675 013f 15       		.uleb128 0x15
 2676 0140 01       		.byte	0x1
ARM GAS  /tmp/cc6M0mnT.s 			page 48


 2677 0141 49       		.uleb128 0x49
 2678 0142 13       		.uleb128 0x13
 2679 0143 01       		.uleb128 0x1
 2680 0144 13       		.uleb128 0x13
 2681 0145 00       		.byte	0
 2682 0146 00       		.byte	0
 2683 0147 1C       		.uleb128 0x1c
 2684 0148 04       		.uleb128 0x4
 2685 0149 01       		.byte	0x1
 2686 014a 0B       		.uleb128 0xb
 2687 014b 0B       		.uleb128 0xb
 2688 014c 3A       		.uleb128 0x3a
 2689 014d 0B       		.uleb128 0xb
 2690 014e 3B       		.uleb128 0x3b
 2691 014f 0B       		.uleb128 0xb
 2692 0150 6E       		.uleb128 0x6e
 2693 0151 0E       		.uleb128 0xe
 2694 0152 01       		.uleb128 0x1
 2695 0153 13       		.uleb128 0x13
 2696 0154 00       		.byte	0
 2697 0155 00       		.byte	0
 2698 0156 1D       		.uleb128 0x1d
 2699 0157 28       		.uleb128 0x28
 2700 0158 00       		.byte	0
 2701 0159 03       		.uleb128 0x3
 2702 015a 0E       		.uleb128 0xe
 2703 015b 1C       		.uleb128 0x1c
 2704 015c 0D       		.uleb128 0xd
 2705 015d 00       		.byte	0
 2706 015e 00       		.byte	0
 2707 015f 1E       		.uleb128 0x1e
 2708 0160 16       		.uleb128 0x16
 2709 0161 00       		.byte	0
 2710 0162 03       		.uleb128 0x3
 2711 0163 08       		.uleb128 0x8
 2712 0164 3A       		.uleb128 0x3a
 2713 0165 0B       		.uleb128 0xb
 2714 0166 3B       		.uleb128 0x3b
 2715 0167 0B       		.uleb128 0xb
 2716 0168 49       		.uleb128 0x49
 2717 0169 13       		.uleb128 0x13
 2718 016a 00       		.byte	0
 2719 016b 00       		.byte	0
 2720 016c 1F       		.uleb128 0x1f
 2721 016d 2E       		.uleb128 0x2e
 2722 016e 01       		.byte	0x1
 2723 016f 3F       		.uleb128 0x3f
 2724 0170 19       		.uleb128 0x19
 2725 0171 03       		.uleb128 0x3
 2726 0172 0E       		.uleb128 0xe
 2727 0173 3A       		.uleb128 0x3a
 2728 0174 0B       		.uleb128 0xb
 2729 0175 3B       		.uleb128 0x3b
 2730 0176 0B       		.uleb128 0xb
 2731 0177 49       		.uleb128 0x49
 2732 0178 13       		.uleb128 0x13
 2733 0179 11       		.uleb128 0x11
ARM GAS  /tmp/cc6M0mnT.s 			page 49


 2734 017a 01       		.uleb128 0x1
 2735 017b 12       		.uleb128 0x12
 2736 017c 06       		.uleb128 0x6
 2737 017d 40       		.uleb128 0x40
 2738 017e 18       		.uleb128 0x18
 2739 017f 9742     		.uleb128 0x2117
 2740 0181 19       		.uleb128 0x19
 2741 0182 01       		.uleb128 0x1
 2742 0183 13       		.uleb128 0x13
 2743 0184 00       		.byte	0
 2744 0185 00       		.byte	0
 2745 0186 20       		.uleb128 0x20
 2746 0187 898201   		.uleb128 0x4109
 2747 018a 00       		.byte	0
 2748 018b 11       		.uleb128 0x11
 2749 018c 01       		.uleb128 0x1
 2750 018d 31       		.uleb128 0x31
 2751 018e 13       		.uleb128 0x13
 2752 018f 00       		.byte	0
 2753 0190 00       		.byte	0
 2754 0191 21       		.uleb128 0x21
 2755 0192 898201   		.uleb128 0x4109
 2756 0195 01       		.byte	0x1
 2757 0196 11       		.uleb128 0x11
 2758 0197 01       		.uleb128 0x1
 2759 0198 31       		.uleb128 0x31
 2760 0199 13       		.uleb128 0x13
 2761 019a 01       		.uleb128 0x1
 2762 019b 13       		.uleb128 0x13
 2763 019c 00       		.byte	0
 2764 019d 00       		.byte	0
 2765 019e 22       		.uleb128 0x22
 2766 019f 8A8201   		.uleb128 0x410a
 2767 01a2 00       		.byte	0
 2768 01a3 02       		.uleb128 0x2
 2769 01a4 18       		.uleb128 0x18
 2770 01a5 9142     		.uleb128 0x2111
 2771 01a7 18       		.uleb128 0x18
 2772 01a8 00       		.byte	0
 2773 01a9 00       		.byte	0
 2774 01aa 23       		.uleb128 0x23
 2775 01ab 898201   		.uleb128 0x4109
 2776 01ae 01       		.byte	0x1
 2777 01af 11       		.uleb128 0x11
 2778 01b0 01       		.uleb128 0x1
 2779 01b1 31       		.uleb128 0x31
 2780 01b2 13       		.uleb128 0x13
 2781 01b3 00       		.byte	0
 2782 01b4 00       		.byte	0
 2783 01b5 24       		.uleb128 0x24
 2784 01b6 34       		.uleb128 0x34
 2785 01b7 00       		.byte	0
 2786 01b8 03       		.uleb128 0x3
 2787 01b9 0E       		.uleb128 0xe
 2788 01ba 3A       		.uleb128 0x3a
 2789 01bb 0B       		.uleb128 0xb
 2790 01bc 3B       		.uleb128 0x3b
ARM GAS  /tmp/cc6M0mnT.s 			page 50


 2791 01bd 05       		.uleb128 0x5
 2792 01be 49       		.uleb128 0x49
 2793 01bf 13       		.uleb128 0x13
 2794 01c0 3F       		.uleb128 0x3f
 2795 01c1 19       		.uleb128 0x19
 2796 01c2 3C       		.uleb128 0x3c
 2797 01c3 19       		.uleb128 0x19
 2798 01c4 00       		.byte	0
 2799 01c5 00       		.byte	0
 2800 01c6 25       		.uleb128 0x25
 2801 01c7 34       		.uleb128 0x34
 2802 01c8 00       		.byte	0
 2803 01c9 03       		.uleb128 0x3
 2804 01ca 08       		.uleb128 0x8
 2805 01cb 3A       		.uleb128 0x3a
 2806 01cc 0B       		.uleb128 0xb
 2807 01cd 3B       		.uleb128 0x3b
 2808 01ce 0B       		.uleb128 0xb
 2809 01cf 49       		.uleb128 0x49
 2810 01d0 13       		.uleb128 0x13
 2811 01d1 3F       		.uleb128 0x3f
 2812 01d2 19       		.uleb128 0x19
 2813 01d3 3C       		.uleb128 0x3c
 2814 01d4 19       		.uleb128 0x19
 2815 01d5 00       		.byte	0
 2816 01d6 00       		.byte	0
 2817 01d7 26       		.uleb128 0x26
 2818 01d8 34       		.uleb128 0x34
 2819 01d9 00       		.byte	0
 2820 01da 03       		.uleb128 0x3
 2821 01db 0E       		.uleb128 0xe
 2822 01dc 3A       		.uleb128 0x3a
 2823 01dd 0B       		.uleb128 0xb
 2824 01de 3B       		.uleb128 0x3b
 2825 01df 0B       		.uleb128 0xb
 2826 01e0 49       		.uleb128 0x49
 2827 01e1 13       		.uleb128 0x13
 2828 01e2 02       		.uleb128 0x2
 2829 01e3 18       		.uleb128 0x18
 2830 01e4 00       		.byte	0
 2831 01e5 00       		.byte	0
 2832 01e6 27       		.uleb128 0x27
 2833 01e7 2E       		.uleb128 0x2e
 2834 01e8 00       		.byte	0
 2835 01e9 3F       		.uleb128 0x3f
 2836 01ea 19       		.uleb128 0x19
 2837 01eb 03       		.uleb128 0x3
 2838 01ec 0E       		.uleb128 0xe
 2839 01ed 3A       		.uleb128 0x3a
 2840 01ee 0B       		.uleb128 0xb
 2841 01ef 3B       		.uleb128 0x3b
 2842 01f0 0B       		.uleb128 0xb
 2843 01f1 3C       		.uleb128 0x3c
 2844 01f2 19       		.uleb128 0x19
 2845 01f3 00       		.byte	0
 2846 01f4 00       		.byte	0
 2847 01f5 28       		.uleb128 0x28
ARM GAS  /tmp/cc6M0mnT.s 			page 51


 2848 01f6 2E       		.uleb128 0x2e
 2849 01f7 01       		.byte	0x1
 2850 01f8 3F       		.uleb128 0x3f
 2851 01f9 19       		.uleb128 0x19
 2852 01fa 03       		.uleb128 0x3
 2853 01fb 0E       		.uleb128 0xe
 2854 01fc 3A       		.uleb128 0x3a
 2855 01fd 0B       		.uleb128 0xb
 2856 01fe 3B       		.uleb128 0x3b
 2857 01ff 05       		.uleb128 0x5
 2858 0200 3C       		.uleb128 0x3c
 2859 0201 19       		.uleb128 0x19
 2860 0202 01       		.uleb128 0x1
 2861 0203 13       		.uleb128 0x13
 2862 0204 00       		.byte	0
 2863 0205 00       		.byte	0
 2864 0206 29       		.uleb128 0x29
 2865 0207 2E       		.uleb128 0x2e
 2866 0208 01       		.byte	0x1
 2867 0209 3F       		.uleb128 0x3f
 2868 020a 19       		.uleb128 0x19
 2869 020b 03       		.uleb128 0x3
 2870 020c 0E       		.uleb128 0xe
 2871 020d 3A       		.uleb128 0x3a
 2872 020e 0B       		.uleb128 0xb
 2873 020f 3B       		.uleb128 0x3b
 2874 0210 0B       		.uleb128 0xb
 2875 0211 49       		.uleb128 0x49
 2876 0212 13       		.uleb128 0x13
 2877 0213 3C       		.uleb128 0x3c
 2878 0214 19       		.uleb128 0x19
 2879 0215 01       		.uleb128 0x1
 2880 0216 13       		.uleb128 0x13
 2881 0217 00       		.byte	0
 2882 0218 00       		.byte	0
 2883 0219 2A       		.uleb128 0x2a
 2884 021a 2E       		.uleb128 0x2e
 2885 021b 01       		.byte	0x1
 2886 021c 3F       		.uleb128 0x3f
 2887 021d 19       		.uleb128 0x19
 2888 021e 03       		.uleb128 0x3
 2889 021f 0E       		.uleb128 0xe
 2890 0220 3A       		.uleb128 0x3a
 2891 0221 0B       		.uleb128 0xb
 2892 0222 3B       		.uleb128 0x3b
 2893 0223 0B       		.uleb128 0xb
 2894 0224 3C       		.uleb128 0x3c
 2895 0225 19       		.uleb128 0x19
 2896 0226 01       		.uleb128 0x1
 2897 0227 13       		.uleb128 0x13
 2898 0228 00       		.byte	0
 2899 0229 00       		.byte	0
 2900 022a 2B       		.uleb128 0x2b
 2901 022b 2E       		.uleb128 0x2e
 2902 022c 01       		.byte	0x1
 2903 022d 3F       		.uleb128 0x3f
 2904 022e 19       		.uleb128 0x19
ARM GAS  /tmp/cc6M0mnT.s 			page 52


 2905 022f 03       		.uleb128 0x3
 2906 0230 0E       		.uleb128 0xe
 2907 0231 3A       		.uleb128 0x3a
 2908 0232 0B       		.uleb128 0xb
 2909 0233 3B       		.uleb128 0x3b
 2910 0234 0B       		.uleb128 0xb
 2911 0235 6E       		.uleb128 0x6e
 2912 0236 0E       		.uleb128 0xe
 2913 0237 3C       		.uleb128 0x3c
 2914 0238 19       		.uleb128 0x19
 2915 0239 01       		.uleb128 0x1
 2916 023a 13       		.uleb128 0x13
 2917 023b 00       		.byte	0
 2918 023c 00       		.byte	0
 2919 023d 2C       		.uleb128 0x2c
 2920 023e 18       		.uleb128 0x18
 2921 023f 00       		.byte	0
 2922 0240 00       		.byte	0
 2923 0241 00       		.byte	0
 2924 0242 2D       		.uleb128 0x2d
 2925 0243 2E       		.uleb128 0x2e
 2926 0244 01       		.byte	0x1
 2927 0245 3F       		.uleb128 0x3f
 2928 0246 19       		.uleb128 0x19
 2929 0247 03       		.uleb128 0x3
 2930 0248 0E       		.uleb128 0xe
 2931 0249 3A       		.uleb128 0x3a
 2932 024a 0B       		.uleb128 0xb
 2933 024b 3B       		.uleb128 0x3b
 2934 024c 05       		.uleb128 0x5
 2935 024d 3C       		.uleb128 0x3c
 2936 024e 19       		.uleb128 0x19
 2937 024f 00       		.byte	0
 2938 0250 00       		.byte	0
 2939 0251 00       		.byte	0
 2940              		.section	.debug_aranges,"",%progbits
 2941 0000 1C000000 		.4byte	0x1c
 2942 0004 0200     		.2byte	0x2
 2943 0006 00000000 		.4byte	.Ldebug_info0
 2944 000a 04       		.byte	0x4
 2945 000b 00       		.byte	0
 2946 000c 0000     		.2byte	0
 2947 000e 0000     		.2byte	0
 2948 0010 00000000 		.4byte	.LFB36
 2949 0014 88000000 		.4byte	.LFE36-.LFB36
 2950 0018 00000000 		.4byte	0
 2951 001c 00000000 		.4byte	0
 2952              		.section	.debug_ranges,"",%progbits
 2953              	.Ldebug_ranges0:
 2954 0000 00000000 		.4byte	.LFB36
 2955 0004 88000000 		.4byte	.LFE36
 2956 0008 00000000 		.4byte	0
 2957 000c 00000000 		.4byte	0
 2958              		.section	.debug_line,"",%progbits
 2959              	.Ldebug_line0:
 2960 0000 AB030000 		.section	.debug_str,"MS",%progbits,1
 2960      02006103 
ARM GAS  /tmp/cc6M0mnT.s 			page 53


 2960      00000201 
 2960      FB0E0D00 
 2960      01010101 
 2961              	.LASF108:
 2962 0000 534D435F 		.ascii	"SMC_WPSR\000"
 2962      57505352 
 2962      00
 2963              	.LASF52:
 2964 0009 50494F5F 		.ascii	"PIO_IFSCSR\000"
 2964      49465343 
 2964      535200
 2965              	.LASF131:
 2966 0014 73697A65 		.ascii	"size_t\000"
 2966      5F7400
 2967              	.LASF233:
 2968 001b 50494F5F 		.ascii	"PIO_Configure\000"
 2968      436F6E66 
 2968      69677572 
 2968      6500
 2969              	.LASF19:
 2970 0029 73697A65 		.ascii	"sizetype\000"
 2970      74797065 
 2970      00
 2971              	.LASF139:
 2972 0032 73797374 		.ascii	"systime_t\000"
 2972      696D655F 
 2972      7400
 2973              	.LASF155:
 2974 003c 705F7469 		.ascii	"p_time\000"
 2974      6D6500
 2975              	.LASF148:
 2976 0043 705F6374 		.ascii	"p_ctx\000"
 2976      7800
 2977              	.LASF136:
 2978 0049 74707269 		.ascii	"tprio_t\000"
 2978      6F5F7400 
 2979              	.LASF157:
 2980 0051 705F6D73 		.ascii	"p_msgqueue\000"
 2980      67717565 
 2980      756500
 2981              	.LASF13:
 2982 005c 696E7433 		.ascii	"int32_t\000"
 2982      325F7400 
 2983              	.LASF217:
 2984 0064 53657269 		.ascii	"SerialConfig\000"
 2984      616C436F 
 2984      6E666967 
 2984      00
 2985              	.LASF197:
 2986 0071 77726974 		.ascii	"writet\000"
 2986      657400
 2987              	.LASF64:
 2988 0078 50494F5F 		.ascii	"PIO_AIMMR\000"
 2988      41494D4D 
 2988      5200
 2989              	.LASF114:
 2990 0082 55415254 		.ascii	"UART_IDR\000"
ARM GAS  /tmp/cc6M0mnT.s 			page 54


 2990      5F494452 
 2990      00
 2991              	.LASF17:
 2992 008b 576F5265 		.ascii	"WoReg\000"
 2992      6700
 2993              	.LASF75:
 2994 0091 50494F5F 		.ascii	"PIO_WPMR\000"
 2994      57504D52 
 2994      00
 2995              	.LASF193:
 2996 009a 77726974 		.ascii	"write\000"
 2996      6500
 2997              	.LASF216:
 2998 00a0 73635F6D 		.ascii	"sc_mr\000"
 2998      7200
 2999              	.LASF116:
 3000 00a6 55415254 		.ascii	"UART_SR\000"
 3000      5F535200 
 3001              	.LASF84:
 3002 00ae 50494F5F 		.ascii	"PIO_PCISR\000"
 3002      50434953 
 3002      5200
 3003              	.LASF113:
 3004 00b8 55415254 		.ascii	"UART_IER\000"
 3004      5F494552 
 3004      00
 3005              	.LASF222:
 3006 00c1 74797065 		.ascii	"type\000"
 3006      00
 3007              	.LASF88:
 3008 00c6 50494F5F 		.ascii	"PIO_TPR\000"
 3008      54505200 
 3009              	.LASF128:
 3010 00ce 55415254 		.ascii	"UART_PTCR\000"
 3010      5F505443 
 3010      5200
 3011              	.LASF53:
 3012 00d8 50494F5F 		.ascii	"PIO_SCDR\000"
 3012      53434452 
 3012      00
 3013              	.LASF142:
 3014 00e1 65786974 		.ascii	"exitcode\000"
 3014      636F6465 
 3014      00
 3015              	.LASF4:
 3016 00ea 5F5F7569 		.ascii	"__uint8_t\000"
 3016      6E74385F 
 3016      7400
 3017              	.LASF185:
 3018 00f4 715F746F 		.ascii	"q_top\000"
 3018      7000
 3019              	.LASF230:
 3020 00fa 506D6343 		.ascii	"PmcConfigurePllClock\000"
 3020      6F6E6669 
 3020      67757265 
 3020      506C6C43 
 3020      6C6F636B 
ARM GAS  /tmp/cc6M0mnT.s 			page 55


 3021              	.LASF59:
 3022 010f 50494F5F 		.ascii	"PIO_OWDR\000"
 3022      4F574452 
 3022      00
 3023              	.LASF198:
 3024 0118 72656164 		.ascii	"readt\000"
 3024      7400
 3025              	.LASF184:
 3026 011e 715F6275 		.ascii	"q_buffer\000"
 3026      66666572 
 3026      00
 3027              	.LASF188:
 3028 0127 715F6E6F 		.ascii	"q_notify\000"
 3028      74696679 
 3028      00
 3029              	.LASF104:
 3030 0130 534D435F 		.ascii	"SMC_OCMS\000"
 3030      4F434D53 
 3030      00
 3031              	.LASF54:
 3032 0139 50494F5F 		.ascii	"PIO_PPDDR\000"
 3032      50504444 
 3032      5200
 3033              	.LASF149:
 3034 0143 705F6E65 		.ascii	"p_newer\000"
 3034      77657200 
 3035              	.LASF6:
 3036 014b 6C6F6E67 		.ascii	"long int\000"
 3036      20696E74 
 3036      00
 3037              	.LASF145:
 3038 0154 705F6E65 		.ascii	"p_next\000"
 3038      787400
 3039              	.LASF187:
 3040 015b 715F7264 		.ascii	"q_rdptr\000"
 3040      70747200 
 3041              	.LASF146:
 3042 0163 705F7072 		.ascii	"p_prev\000"
 3042      657600
 3043              	.LASF58:
 3044 016a 50494F5F 		.ascii	"PIO_OWER\000"
 3044      4F574552 
 3044      00
 3045              	.LASF30:
 3046 0173 50494F5F 		.ascii	"PIO_IFSR\000"
 3046      49465352 
 3046      00
 3047              	.LASF48:
 3048 017c 50494F5F 		.ascii	"PIO_ABCDSR\000"
 3048      41424344 
 3048      535200
 3049              	.LASF134:
 3050 0187 74737461 		.ascii	"tstate_t\000"
 3050      74655F74 
 3050      00
 3051              	.LASF240:
 3052 0190 6D61696E 		.ascii	"main\000"
ARM GAS  /tmp/cc6M0mnT.s 			page 56


 3052      00
 3053              	.LASF160:
 3054 0195 705F6D74 		.ascii	"p_mtxlist\000"
 3054      786C6973 
 3054      7400
 3055              	.LASF212:
 3056 019f 6F717565 		.ascii	"oqueue\000"
 3056      756500
 3057              	.LASF102:
 3058 01a6 33536D63 		.ascii	"3Smc\000"
 3058      00
 3059              	.LASF167:
 3060 01ab 72656761 		.ascii	"regarm_t\000"
 3060      726D5F74 
 3060      00
 3061              	.LASF55:
 3062 01b4 50494F5F 		.ascii	"PIO_PPDER\000"
 3062      50504445 
 3062      5200
 3063              	.LASF66:
 3064 01be 50494F5F 		.ascii	"PIO_ESR\000"
 3064      45535200 
 3065              	.LASF26:
 3066 01c6 50494F5F 		.ascii	"PIO_OSR\000"
 3066      4F535200 
 3067              	.LASF237:
 3068 01ce 6D61696E 		.ascii	"main.cpp\000"
 3068      2E637070 
 3068      00
 3069              	.LASF0:
 3070 01d7 7369676E 		.ascii	"signed char\000"
 3070      65642063 
 3070      68617200 
 3071              	.LASF144:
 3072 01e3 65776D61 		.ascii	"ewmask\000"
 3072      736B00
 3073              	.LASF12:
 3074 01ea 75696E74 		.ascii	"uint8_t\000"
 3074      385F7400 
 3075              	.LASF138:
 3076 01f2 6576656E 		.ascii	"eventmask_t\000"
 3076      746D6173 
 3076      6B5F7400 
 3077              	.LASF169:
 3078 01fe 636F6E74 		.ascii	"context\000"
 3078      65787400 
 3079              	.LASF105:
 3080 0206 534D435F 		.ascii	"SMC_KEY1\000"
 3080      4B455931 
 3080      00
 3081              	.LASF90:
 3082 020f 50494F5F 		.ascii	"PIO_RNPR\000"
 3082      524E5052 
 3082      00
 3083              	.LASF1:
 3084 0218 756E7369 		.ascii	"unsigned char\000"
 3084      676E6564 
ARM GAS  /tmp/cc6M0mnT.s 			page 57


 3084      20636861 
 3084      7200
 3085              	.LASF44:
 3086 0226 50494F5F 		.ascii	"PIO_PUDR\000"
 3086      50554452 
 3086      00
 3087              	.LASF123:
 3088 022f 55415254 		.ascii	"UART_TCR\000"
 3088      5F544352 
 3088      00
 3089              	.LASF100:
 3090 0238 536D6343 		.ascii	"SmcCs_number\000"
 3090      735F6E75 
 3090      6D626572 
 3090      00
 3091              	.LASF92:
 3092 0245 50494F5F 		.ascii	"PIO_TNPR\000"
 3092      544E5052 
 3092      00
 3093              	.LASF156:
 3094 024e 705F7761 		.ascii	"p_waiting\000"
 3094      6974696E 
 3094      6700
 3095              	.LASF103:
 3096 0258 534D435F 		.ascii	"SMC_CS_NUMBER\000"
 3096      43535F4E 
 3096      554D4245 
 3096      5200
 3097              	.LASF99:
 3098 0266 534D435F 		.ascii	"SMC_MODE\000"
 3098      4D4F4445 
 3098      00
 3099              	.LASF203:
 3100 026f 53445F55 		.ascii	"SD_UNINIT\000"
 3100      4E494E49 
 3100      5400
 3101              	.LASF76:
 3102 0279 50494F5F 		.ascii	"PIO_WPSR\000"
 3102      57505352 
 3102      00
 3103              	.LASF120:
 3104 0282 55415254 		.ascii	"UART_RPR\000"
 3104      5F525052 
 3104      00
 3105              	.LASF164:
 3106 028b 31325468 		.ascii	"12ThreadsQueue\000"
 3106      72656164 
 3106      73517565 
 3106      756500
 3107              	.LASF101:
 3108 029a 3132536D 		.ascii	"12SmcCs_number\000"
 3108      6343735F 
 3108      6E756D62 
 3108      657200
 3109              	.LASF45:
 3110 02a9 50494F5F 		.ascii	"PIO_PUER\000"
 3110      50554552 
ARM GAS  /tmp/cc6M0mnT.s 			page 58


 3110      00
 3111              	.LASF180:
 3112 02b2 63686172 		.ascii	"char\000"
 3112      00
 3113              	.LASF225:
 3114 02b7 70696E50 		.ascii	"pinPsram\000"
 3114      7372616D 
 3114      00
 3115              	.LASF87:
 3116 02c0 50494F5F 		.ascii	"PIO_RCR\000"
 3116      52435200 
 3117              	.LASF69:
 3118 02c8 52657365 		.ascii	"Reserved10\000"
 3118      72766564 
 3118      313000
 3119              	.LASF73:
 3120 02d3 52657365 		.ascii	"Reserved11\000"
 3120      72766564 
 3120      313100
 3121              	.LASF77:
 3122 02de 52657365 		.ascii	"Reserved12\000"
 3122      72766564 
 3122      313200
 3123              	.LASF79:
 3124 02e9 52657365 		.ascii	"Reserved13\000"
 3124      72766564 
 3124      313300
 3125              	.LASF147:
 3126 02f4 705F7072 		.ascii	"p_prio\000"
 3126      696F00
 3127              	.LASF181:
 3128 02fb 47656E65 		.ascii	"GenericQueue\000"
 3128      72696351 
 3128      75657565 
 3128      00
 3129              	.LASF41:
 3130 0308 50494F5F 		.ascii	"PIO_MDDR\000"
 3130      4D444452 
 3130      00
 3131              	.LASF143:
 3132 0311 77746F62 		.ascii	"wtobjp\000"
 3132      6A7000
 3133              	.LASF35:
 3134 0318 50494F5F 		.ascii	"PIO_PDSR\000"
 3134      50445352 
 3134      00
 3135              	.LASF209:
 3136 0321 666C6167 		.ascii	"flags\000"
 3136      7300
 3137              	.LASF74:
 3138 0327 50494F5F 		.ascii	"PIO_LOCKSR\000"
 3138      4C4F434B 
 3138      535200
 3139              	.LASF191:
 3140 0332 4F757470 		.ascii	"OutputQueue\000"
 3140      75745175 
 3140      65756500 
ARM GAS  /tmp/cc6M0mnT.s 			page 59


 3141              	.LASF70:
 3142 033e 50494F5F 		.ascii	"PIO_FELLSR\000"
 3142      46454C4C 
 3142      535200
 3143              	.LASF40:
 3144 0349 50494F5F 		.ascii	"PIO_MDER\000"
 3144      4D444552 
 3144      00
 3145              	.LASF21:
 3146 0352 50494F5F 		.ascii	"PIO_PDR\000"
 3146      50445200 
 3147              	.LASF195:
 3148 035a 70757477 		.ascii	"putwouldblock\000"
 3148      6F756C64 
 3148      626C6F63 
 3148      6B00
 3149              	.LASF202:
 3150 0368 696F706F 		.ascii	"ioportmask_t\000"
 3150      72746D61 
 3150      736B5F74 
 3150      00
 3151              	.LASF124:
 3152 0375 55415254 		.ascii	"UART_RNPR\000"
 3152      5F524E50 
 3152      5200
 3153              	.LASF199:
 3154 037f 31314261 		.ascii	"11BaseChannel\000"
 3154      73654368 
 3154      616E6E65 
 3154      6C00
 3155              	.LASF115:
 3156 038d 55415254 		.ascii	"UART_IMR\000"
 3156      5F494D52 
 3156      00
 3157              	.LASF130:
 3158 0396 55617274 		.ascii	"Uart\000"
 3158      00
 3159              	.LASF126:
 3160 039b 55415254 		.ascii	"UART_TNPR\000"
 3160      5F544E50 
 3160      5200
 3161              	.LASF235:
 3162 03a5 63687072 		.ascii	"chprintf\000"
 3162      696E7466 
 3162      00
 3163              	.LASF242:
 3164 03ae 63685468 		.ascii	"chThdSleep\000"
 3164      64536C65 
 3164      657000
 3165              	.LASF68:
 3166 03b9 50494F5F 		.ascii	"PIO_ELSR\000"
 3166      454C5352 
 3166      00
 3167              	.LASF168:
 3168 03c2 696E7463 		.ascii	"intctx\000"
 3168      747800
 3169              	.LASF159:
ARM GAS  /tmp/cc6M0mnT.s 			page 60


 3170 03c9 705F6570 		.ascii	"p_epending\000"
 3170      656E6469 
 3170      6E6700
 3171              	.LASF98:
 3172 03d4 534D435F 		.ascii	"SMC_CYCLE\000"
 3172      4359434C 
 3172      4500
 3173              	.LASF97:
 3174 03de 534D435F 		.ascii	"SMC_PULSE\000"
 3174      50554C53 
 3174      4500
 3175              	.LASF214:
 3176 03e8 31325365 		.ascii	"12SerialConfig\000"
 3176      7269616C 
 3176      436F6E66 
 3176      696700
 3177              	.LASF22:
 3178 03f7 50494F5F 		.ascii	"PIO_PSR\000"
 3178      50535200 
 3179              	.LASF118:
 3180 03ff 55415254 		.ascii	"UART_THR\000"
 3180      5F544852 
 3180      00
 3181              	.LASF179:
 3182 0408 65735F6E 		.ascii	"es_next\000"
 3182      65787400 
 3183              	.LASF183:
 3184 0410 715F636F 		.ascii	"q_counter\000"
 3184      756E7465 
 3184      7200
 3185              	.LASF236:
 3186 041a 474E5520 		.ascii	"GNU C++ 4.9.3 20150529 (release) [ARM/embedded-4_9-"
 3186      432B2B20 
 3186      342E392E 
 3186      33203230 
 3186      31353035 
 3187 044d 6272616E 		.ascii	"branch revision 227977] -mcpu=cortex-m3 -mno-thumb-"
 3187      63682072 
 3187      65766973 
 3187      696F6E20 
 3187      32323739 
 3188 0480 696E7465 		.ascii	"interwork -mthumb -ggdb -O2 -fomit-frame-pointer -f"
 3188      72776F72 
 3188      6B202D6D 
 3188      7468756D 
 3188      62202D67 
 3189 04b3 616C6967 		.ascii	"align-functions=16 -ffunction-sections -fdata-secti"
 3189      6E2D6675 
 3189      6E637469 
 3189      6F6E733D 
 3189      3136202D 
 3190 04e6 6F6E7320 		.ascii	"ons -fno-common -fno-rtti\000"
 3190      2D666E6F 
 3190      2D636F6D 
 3190      6D6F6E20 
 3190      2D666E6F 
 3191              	.LASF232:
ARM GAS  /tmp/cc6M0mnT.s 			page 61


 3192 0500 436F6E66 		.ascii	"ConfigurePck\000"
 3192      69677572 
 3192      6550636B 
 3192      00
 3193              	.LASF178:
 3194 050d 4576656E 		.ascii	"EventSource\000"
 3194      74536F75 
 3194      72636500 
 3195              	.LASF8:
 3196 0519 6C6F6E67 		.ascii	"long unsigned int\000"
 3196      20756E73 
 3196      69676E65 
 3196      6420696E 
 3196      7400
 3197              	.LASF241:
 3198 052b 5F5A3230 		.ascii	"_Z20BOARD_ConfigurePSRAMP3Smc\000"
 3198      424F4152 
 3198      445F436F 
 3198      6E666967 
 3198      75726550 
 3199              	.LASF175:
 3200 0549 656C5F6E 		.ascii	"el_next\000"
 3200      65787400 
 3201              	.LASF109:
 3202 0551 3350696F 		.ascii	"3Pio\000"
 3202      00
 3203              	.LASF186:
 3204 0556 715F7772 		.ascii	"q_wrptr\000"
 3204      70747200 
 3205              	.LASF218:
 3206 055e 53657269 		.ascii	"SerialDriverVMT\000"
 3206      616C4472 
 3206      69766572 
 3206      564D5400 
 3207              	.LASF229:
 3208 056e 73645374 		.ascii	"sdStart\000"
 3208      61727400 
 3209              	.LASF33:
 3210 0576 50494F5F 		.ascii	"PIO_CODR\000"
 3210      434F4452 
 3210      00
 3211              	.LASF227:
 3212 057f 68616C49 		.ascii	"halInit\000"
 3212      6E697400 
 3213              	.LASF7:
 3214 0587 5F5F7569 		.ascii	"__uint32_t\000"
 3214      6E743332 
 3214      5F7400
 3215              	.LASF37:
 3216 0592 50494F5F 		.ascii	"PIO_IDR\000"
 3216      49445200 
 3217              	.LASF170:
 3218 059a 4D757465 		.ascii	"Mutex\000"
 3218      7800
 3219              	.LASF239:
 3220 05a0 39736473 		.ascii	"9sdstate_t\000"
 3220      74617465 
ARM GAS  /tmp/cc6M0mnT.s 			page 62


 3220      5F7400
 3221              	.LASF9:
 3222 05ab 6C6F6E67 		.ascii	"long long int\000"
 3222      206C6F6E 
 3222      6720696E 
 3222      7400
 3223              	.LASF171:
 3224 05b9 6D5F7175 		.ascii	"m_queue\000"
 3224      65756500 
 3225              	.LASF133:
 3226 05c1 746D6F64 		.ascii	"tmode_t\000"
 3226      655F7400 
 3227              	.LASF50:
 3228 05c9 50494F5F 		.ascii	"PIO_IFSCDR\000"
 3228      49465343 
 3228      445200
 3229              	.LASF96:
 3230 05d4 534D435F 		.ascii	"SMC_SETUP\000"
 3230      53455455 
 3230      5000
 3231              	.LASF95:
 3232 05de 50494F5F 		.ascii	"PIO_PTSR\000"
 3232      50545352 
 3232      00
 3233              	.LASF36:
 3234 05e7 50494F5F 		.ascii	"PIO_IER\000"
 3234      49455200 
 3235              	.LASF221:
 3236 05ef 6D61736B 		.ascii	"mask\000"
 3236      00
 3237              	.LASF85:
 3238 05f4 50494F5F 		.ascii	"PIO_PCRHR\000"
 3238      50435248 
 3238      5200
 3239              	.LASF234:
 3240 05fe 424F4152 		.ascii	"BOARD_ConfigurePSRAM\000"
 3240      445F436F 
 3240      6E666967 
 3240      75726550 
 3240      5352414D 
 3241              	.LASF224:
 3242 0613 49544D5F 		.ascii	"ITM_RxBuffer\000"
 3242      52784275 
 3242      66666572 
 3242      00
 3243              	.LASF32:
 3244 0620 50494F5F 		.ascii	"PIO_SODR\000"
 3244      534F4452 
 3244      00
 3245              	.LASF51:
 3246 0629 50494F5F 		.ascii	"PIO_IFSCER\000"
 3246      49465343 
 3246      455200
 3247              	.LASF189:
 3248 0634 716E6F74 		.ascii	"qnotify_t\000"
 3248      6966795F 
 3248      7400
ARM GAS  /tmp/cc6M0mnT.s 			page 63


 3249              	.LASF111:
 3250 063e 55415254 		.ascii	"UART_CR\000"
 3250      5F435200 
 3251              	.LASF208:
 3252 0646 6576656E 		.ascii	"event\000"
 3252      7400
 3253              	.LASF153:
 3254 064c 705F666C 		.ascii	"p_flags\000"
 3254      61677300 
 3255              	.LASF194:
 3256 0654 72656164 		.ascii	"read\000"
 3256      00
 3257              	.LASF11:
 3258 0659 756E7369 		.ascii	"unsigned int\000"
 3258      676E6564 
 3258      20696E74 
 3258      00
 3259              	.LASF162:
 3260 0666 705F6D70 		.ascii	"p_mpool\000"
 3260      6F6F6C00 
 3261              	.LASF154:
 3262 066e 705F7265 		.ascii	"p_refs\000"
 3262      667300
 3263              	.LASF82:
 3264 0675 50494F5F 		.ascii	"PIO_PCIDR\000"
 3264      50434944 
 3264      5200
 3265              	.LASF67:
 3266 067f 50494F5F 		.ascii	"PIO_LSR\000"
 3266      4C535200 
 3267              	.LASF215:
 3268 0687 73635F73 		.ascii	"sc_speed\000"
 3268      70656564 
 3268      00
 3269              	.LASF166:
 3270 0690 54687265 		.ascii	"ThreadsList\000"
 3270      6164734C 
 3270      69737400 
 3271              	.LASF201:
 3272 069c 696F666C 		.ascii	"ioflags_t\000"
 3272      6167735F 
 3272      7400
 3273              	.LASF226:
 3274 06a6 70696E50 		.ascii	"pinPCK\000"
 3274      434B00
 3275              	.LASF81:
 3276 06ad 50494F5F 		.ascii	"PIO_PCIER\000"
 3276      50434945 
 3276      5200
 3277              	.LASF60:
 3278 06b7 50494F5F 		.ascii	"PIO_OWSR\000"
 3278      4F575352 
 3278      00
 3279              	.LASF129:
 3280 06c0 55415254 		.ascii	"UART_PTSR\000"
 3280      5F505453 
 3280      5200
ARM GAS  /tmp/cc6M0mnT.s 			page 64


 3281              	.LASF56:
 3282 06ca 50494F5F 		.ascii	"PIO_PPDSR\000"
 3282      50504453 
 3282      5200
 3283              	.LASF161:
 3284 06d4 705F7265 		.ascii	"p_realprio\000"
 3284      616C7072 
 3284      696F00
 3285              	.LASF196:
 3286 06df 67657477 		.ascii	"getwouldblock\000"
 3286      6F756C64 
 3286      626C6F63 
 3286      6B00
 3287              	.LASF238:
 3288 06ed 2F686F6D 		.ascii	"/home/nixtropy/Documents/Embebidos/stamp_repo/files"
 3288      652F6E69 
 3288      7874726F 
 3288      70792F44 
 3288      6F63756D 
 3289 0720 2F636F64 		.ascii	"/code/src/chibios_blink\000"
 3289      652F7372 
 3289      632F6368 
 3289      6962696F 
 3289      735F626C 
 3290              	.LASF122:
 3291 0738 55415254 		.ascii	"UART_TPR\000"
 3291      5F545052 
 3291      00
 3292              	.LASF220:
 3293 0741 5F50696E 		.ascii	"_Pin\000"
 3293      00
 3294              	.LASF29:
 3295 0746 50494F5F 		.ascii	"PIO_IFDR\000"
 3295      49464452 
 3295      00
 3296              	.LASF211:
 3297 074f 69717565 		.ascii	"iqueue\000"
 3297      756500
 3298              	.LASF89:
 3299 0756 50494F5F 		.ascii	"PIO_TCR\000"
 3299      54435200 
 3300              	.LASF10:
 3301 075e 6C6F6E67 		.ascii	"long long unsigned int\000"
 3301      206C6F6E 
 3301      6720756E 
 3301      7369676E 
 3301      65642069 
 3302              	.LASF150:
 3303 0775 705F6F6C 		.ascii	"p_older\000"
 3303      64657200 
 3304              	.LASF223:
 3305 077d 61747472 		.ascii	"attribute\000"
 3305      69627574 
 3305      6500
 3306              	.LASF86:
 3307 0787 50494F5F 		.ascii	"PIO_RPR\000"
 3307      52505200 
ARM GAS  /tmp/cc6M0mnT.s 			page 65


 3308              	.LASF25:
 3309 078f 50494F5F 		.ascii	"PIO_ODR\000"
 3309      4F445200 
 3310              	.LASF137:
 3311 0797 6D73675F 		.ascii	"msg_t\000"
 3311      7400
 3312              	.LASF28:
 3313 079d 50494F5F 		.ascii	"PIO_IFER\000"
 3313      49464552 
 3313      00
 3314              	.LASF46:
 3315 07a6 50494F5F 		.ascii	"PIO_PUSR\000"
 3315      50555352 
 3315      00
 3316              	.LASF172:
 3317 07af 6D5F6F77 		.ascii	"m_owner\000"
 3317      6E657200 
 3318              	.LASF24:
 3319 07b7 50494F5F 		.ascii	"PIO_OER\000"
 3319      4F455200 
 3320              	.LASF63:
 3321 07bf 50494F5F 		.ascii	"PIO_AIMDR\000"
 3321      41494D44 
 3321      5200
 3322              	.LASF110:
 3323 07c9 34556172 		.ascii	"4Uart\000"
 3323      7400
 3324              	.LASF207:
 3325 07cf 53657269 		.ascii	"SerialDriver\000"
 3325      616C4472 
 3325      69766572 
 3325      00
 3326              	.LASF72:
 3327 07dc 50494F5F 		.ascii	"PIO_FRLHSR\000"
 3327      46524C48 
 3327      535200
 3328              	.LASF119:
 3329 07e7 55415254 		.ascii	"UART_BRGR\000"
 3329      5F425247 
 3329      5200
 3330              	.LASF182:
 3331 07f1 715F7761 		.ascii	"q_waiting\000"
 3331      6974696E 
 3331      6700
 3332              	.LASF23:
 3333 07fb 52657365 		.ascii	"Reserved1\000"
 3333      72766564 
 3333      3100
 3334              	.LASF27:
 3335 0805 52657365 		.ascii	"Reserved2\000"
 3335      72766564 
 3335      3200
 3336              	.LASF31:
 3337 080f 52657365 		.ascii	"Reserved3\000"
 3337      72766564 
 3337      3300
 3338              	.LASF43:
ARM GAS  /tmp/cc6M0mnT.s 			page 66


 3339 0819 52657365 		.ascii	"Reserved4\000"
 3339      72766564 
 3339      3400
 3340              	.LASF47:
 3341 0823 52657365 		.ascii	"Reserved5\000"
 3341      72766564 
 3341      3500
 3342              	.LASF49:
 3343 082d 52657365 		.ascii	"Reserved6\000"
 3343      72766564 
 3343      3600
 3344              	.LASF57:
 3345 0837 52657365 		.ascii	"Reserved7\000"
 3345      72766564 
 3345      3700
 3346              	.LASF61:
 3347 0841 52657365 		.ascii	"Reserved8\000"
 3347      72766564 
 3347      3800
 3348              	.LASF65:
 3349 084b 52657365 		.ascii	"Reserved9\000"
 3349      72766564 
 3349      3900
 3350              	.LASF62:
 3351 0855 50494F5F 		.ascii	"PIO_AIMER\000"
 3351      41494D45 
 3351      5200
 3352              	.LASF206:
 3353 085f 73647374 		.ascii	"sdstate_t\000"
 3353      6174655F 
 3353      7400
 3354              	.LASF42:
 3355 0869 50494F5F 		.ascii	"PIO_MDSR\000"
 3355      4D445352 
 3355      00
 3356              	.LASF38:
 3357 0872 50494F5F 		.ascii	"PIO_IMR\000"
 3357      494D5200 
 3358              	.LASF205:
 3359 087a 53445F52 		.ascii	"SD_READY\000"
 3359      45414459 
 3359      00
 3360              	.LASF34:
 3361 0883 50494F5F 		.ascii	"PIO_ODSR\000"
 3361      4F445352 
 3361      00
 3362              	.LASF91:
 3363 088c 50494F5F 		.ascii	"PIO_RNCR\000"
 3363      524E4352 
 3363      00
 3364              	.LASF107:
 3365 0895 534D435F 		.ascii	"SMC_WPMR\000"
 3365      57504D52 
 3365      00
 3366              	.LASF93:
 3367 089e 50494F5F 		.ascii	"PIO_TNCR\000"
 3367      544E4352 
ARM GAS  /tmp/cc6M0mnT.s 			page 67


 3367      00
 3368              	.LASF78:
 3369 08a7 50494F5F 		.ascii	"PIO_SCHMITT\000"
 3369      5343484D 
 3369      49545400 
 3370              	.LASF2:
 3371 08b3 73686F72 		.ascii	"short int\000"
 3371      7420696E 
 3371      7400
 3372              	.LASF16:
 3373 08bd 526F5265 		.ascii	"RoReg\000"
 3373      6700
 3374              	.LASF121:
 3375 08c3 55415254 		.ascii	"UART_RCR\000"
 3375      5F524352 
 3375      00
 3376              	.LASF213:
 3377 08cc 75617274 		.ascii	"uart\000"
 3377      00
 3378              	.LASF210:
 3379 08d1 73746174 		.ascii	"state\000"
 3379      6500
 3380              	.LASF132:
 3381 08d7 626F6F6C 		.ascii	"bool_t\000"
 3381      5F7400
 3382              	.LASF140:
 3383 08de 54687265 		.ascii	"Thread\000"
 3383      616400
 3384              	.LASF18:
 3385 08e5 52775265 		.ascii	"RwReg\000"
 3385      6700
 3386              	.LASF219:
 3387 08eb 67657466 		.ascii	"getflags\000"
 3387      6C616773 
 3387      00
 3388              	.LASF112:
 3389 08f4 55415254 		.ascii	"UART_MR\000"
 3389      5F4D5200 
 3390              	.LASF83:
 3391 08fc 50494F5F 		.ascii	"PIO_PCIMR\000"
 3391      5043494D 
 3391      5200
 3392              	.LASF135:
 3393 0906 74726566 		.ascii	"trefs_t\000"
 3393      735F7400 
 3394              	.LASF174:
 3395 090e 4576656E 		.ascii	"EventListener\000"
 3395      744C6973 
 3395      74656E65 
 3395      7200
 3396              	.LASF80:
 3397 091c 50494F5F 		.ascii	"PIO_PCMR\000"
 3397      50434D52 
 3397      00
 3398              	.LASF228:
 3399 0925 63685379 		.ascii	"chSysInit\000"
 3399      73496E69 
ARM GAS  /tmp/cc6M0mnT.s 			page 68


 3399      7400
 3400              	.LASF14:
 3401 092f 75696E74 		.ascii	"uint32_t\000"
 3401      33325F74 
 3401      00
 3402              	.LASF106:
 3403 0938 534D435F 		.ascii	"SMC_KEY2\000"
 3403      4B455932 
 3403      00
 3404              	.LASF125:
 3405 0941 55415254 		.ascii	"UART_RNCR\000"
 3405      5F524E43 
 3405      5200
 3406              	.LASF163:
 3407 094b 54687265 		.ascii	"ThreadsQueue\000"
 3407      61647351 
 3407      75657565 
 3407      00
 3408              	.LASF15:
 3409 0958 75696E74 		.ascii	"uint_fast16_t\000"
 3409      5F666173 
 3409      7431365F 
 3409      7400
 3410              	.LASF127:
 3411 0966 55415254 		.ascii	"UART_TNCR\000"
 3411      5F544E43 
 3411      5200
 3412              	.LASF71:
 3413 0970 50494F5F 		.ascii	"PIO_REHLSR\000"
 3413      5245484C 
 3413      535200
 3414              	.LASF141:
 3415 097b 7264796D 		.ascii	"rdymsg\000"
 3415      736700
 3416              	.LASF3:
 3417 0982 73686F72 		.ascii	"short unsigned int\000"
 3417      7420756E 
 3417      7369676E 
 3417      65642069 
 3417      6E7400
 3418              	.LASF20:
 3419 0995 50494F5F 		.ascii	"PIO_PER\000"
 3419      50455200 
 3420              	.LASF190:
 3421 099d 496E7075 		.ascii	"InputQueue\000"
 3421      74517565 
 3421      756500
 3422              	.LASF231:
 3423 09a8 506D634D 		.ascii	"PmcMasterClockSelection\000"
 3423      61737465 
 3423      72436C6F 
 3423      636B5365 
 3423      6C656374 
 3424              	.LASF5:
 3425 09c0 5F5F696E 		.ascii	"__int32_t\000"
 3425      7433325F 
 3425      7400
ARM GAS  /tmp/cc6M0mnT.s 			page 69


 3426              	.LASF204:
 3427 09ca 53445F53 		.ascii	"SD_STOP\000"
 3427      544F5000 
 3428              	.LASF165:
 3429 09d2 31315468 		.ascii	"11ThreadsList\000"
 3429      72656164 
 3429      734C6973 
 3429      7400
 3430              	.LASF192:
 3431 09e0 42617365 		.ascii	"BaseChannelVMT\000"
 3431      4368616E 
 3431      6E656C56 
 3431      4D5400
 3432              	.LASF177:
 3433 09ef 656C5F6D 		.ascii	"el_mask\000"
 3433      61736B00 
 3434              	.LASF151:
 3435 09f7 705F6E61 		.ascii	"p_name\000"
 3435      6D6500
 3436              	.LASF173:
 3437 09fe 6D5F6E65 		.ascii	"m_next\000"
 3437      787400
 3438              	.LASF200:
 3439 0a05 42617365 		.ascii	"BaseChannel\000"
 3439      4368616E 
 3439      6E656C00 
 3440              	.LASF39:
 3441 0a11 50494F5F 		.ascii	"PIO_ISR\000"
 3441      49535200 
 3442              	.LASF117:
 3443 0a19 55415254 		.ascii	"UART_RHR\000"
 3443      5F524852 
 3443      00
 3444              	.LASF158:
 3445 0a22 705F6D73 		.ascii	"p_msg\000"
 3445      6700
 3446              	.LASF176:
 3447 0a28 656C5F6C 		.ascii	"el_listener\000"
 3447      69737465 
 3447      6E657200 
 3448              	.LASF94:
 3449 0a34 50494F5F 		.ascii	"PIO_PTCR\000"
 3449      50544352 
 3449      00
 3450              	.LASF152:
 3451 0a3d 705F7374 		.ascii	"p_state\000"
 3451      61746500 
 3452              		.ident	"GCC: (GNU Tools for ARM Embedded Processors) 4.9.3 20150529 (release) [ARM/embedded-4_9-br
ARM GAS  /tmp/cc6M0mnT.s 			page 70


DEFINED SYMBOLS
                            *ABS*:00000000 main.cpp
     /tmp/cc6M0mnT.s:19     .text.startup.main:00000000 $t
     /tmp/cc6M0mnT.s:25     .text.startup.main:00000000 main
     /tmp/cc6M0mnT.s:114    .text.startup.main:00000070 $d
     .ARM.exidx.text.startup.main:00000000 $d
     /tmp/cc6M0mnT.s:125    .rodata._ZL6pinPCK:00000000 $d
     /tmp/cc6M0mnT.s:129    .rodata._ZL6pinPCK:00000000 _ZL6pinPCK
     /tmp/cc6M0mnT.s:137    .rodata.str1.4:00000000 $d
     /tmp/cc6M0mnT.s:141    .rodata._ZL8pinPsram:00000000 $d
     /tmp/cc6M0mnT.s:145    .rodata._ZL8pinPsram:00000000 _ZL8pinPsram
                     .debug_frame:00000010 $d

UNDEFINED SYMBOLS
halInit
chSysInit
sdStart
PIO_Configure
PmcConfigurePllClock
PmcMasterClockSelection
ConfigurePck
_Z20BOARD_ConfigurePSRAMP3Smc
chprintf
chThdSleep
SD2
__aeabi_unwind_cpp_pr0
