ARM GAS  /tmp/cc6M0mnT.s 			page 1


   1              		.syntax unified
   2              		.cpu cortex-m3
   3              		.fpu softvfp
   4              		.eabi_attribute 20, 1
   5              		.eabi_attribute 21, 1
   6              		.eabi_attribute 23, 3
   7              		.eabi_attribute 24, 1
   8              		.eabi_attribute 25, 1
   9              		.eabi_attribute 26, 1
  10              		.eabi_attribute 30, 2
  11              		.eabi_attribute 34, 1
  12              		.eabi_attribute 18, 4
  13              		.thumb
  14              		.file	"main.cpp"
  15              		.text
  16              	.Ltext0:
  17              		.cfi_sections	.debug_frame
  18              		.section	.text.startup.main,"ax",%progbits
  19              		.align	2
  20              		.p2align 4,,15
  21              		.global	main
  22              		.thumb
  23              		.thumb_func
  24              		.type	main, %function
  25              	main:
  26              		.fnstart
  27              	.LFB36:
  28              		.file 1 "main.cpp"
  29              		.loc 1 30 0
  30              		.cfi_startproc
  31              		@ args = 0, pretend = 0, frame = 0
  32              		@ frame_needed = 0, uses_anonymous_args = 0
  33 0000 38B5     		push	{r3, r4, r5, lr}
  34              		.save {r3, r4, r5, lr}
  35              		.cfi_def_cfa_offset 16
  36              		.cfi_offset 3, -16
  37              		.cfi_offset 4, -12
  38              		.cfi_offset 5, -8
  39              		.cfi_offset 14, -4
  40              		.loc 1 32 0
  41 0002 FFF7FEFF 		bl	halInit
  42              	.LVL0:
  43              		.loc 1 33 0
  44 0006 FFF7FEFF 		bl	chSysInit
  45              	.LVL1:
  46              		.loc 1 36 0
  47 000a 1948     		ldr	r0, .L5
  48 000c 0021     		movs	r1, #0
  49 000e FFF7FEFF 		bl	sdStart
  50              	.LVL2:
  51              		.loc 1 39 0
  52 0012 0121     		movs	r1, #1
  53 0014 1748     		ldr	r0, .L5+4
  54 0016 FFF7FEFF 		bl	PIO_Configure
  55              	.LVL3:
  56              		.loc 1 41 0
  57 001a 0122     		movs	r2, #1
ARM GAS  /tmp/cc6M0mnT.s 			page 2


  58 001c 0020     		movs	r0, #0
  59 001e 1F21     		movs	r1, #31
  60 0020 FFF7FEFF 		bl	PmcConfigurePllClock
  61              	.LVL4:
  62              		.loc 1 44 0
  63 0024 0120     		movs	r0, #1
  64 0026 0021     		movs	r1, #0
  65 0028 FFF7FEFF 		bl	PmcMasterClockSelection
  66              	.LVL5:
  67              		.loc 1 46 0
  68 002c 0220     		movs	r0, #2
  69 002e 0021     		movs	r1, #0
  70 0030 FFF7FEFF 		bl	PmcMasterClockSelection
  71              	.LVL6:
  72              		.loc 1 48 0
  73 0034 0220     		movs	r0, #2
  74 0036 1021     		movs	r1, #16
  75 0038 FFF7FEFF 		bl	ConfigurePck
  76              	.LVL7:
  77              		.loc 1 51 0
  78 003c 0521     		movs	r1, #5
  79 003e 0E48     		ldr	r0, .L5+8
  80 0040 FFF7FEFF 		bl	PIO_Configure
  81              	.LVL8:
  82              		.loc 1 53 0
  83 0044 0D48     		ldr	r0, .L5+12
  84 0046 FFF7FEFF 		bl	_Z20BOARD_ConfigurePSRAMP3Smc
  85              	.LVL9:
  86              		.loc 1 57 0
  87 004a 0D4D     		ldr	r5, .L5+16
  88              	.L2:
  89              		.loc 1 56 0 discriminator 1
  90 004c 0D49     		ldr	r1, .L5+20
  91              		.loc 1 57 0 discriminator 1
  92 004e 4FF40034 		mov	r4, #131072
  93              		.loc 1 56 0 discriminator 1
  94 0052 0748     		ldr	r0, .L5
  95 0054 FFF7FEFF 		bl	chprintf
  96              	.LVL10:
  97              		.loc 1 57 0 discriminator 1
  98 0058 6C63     		str	r4, [r5, #52]
  99              		.loc 1 58 0 discriminator 1
 100 005a 41F28830 		movw	r0, #5000
 101 005e FFF7FEFF 		bl	chThdSleep
 102              	.LVL11:
 103              		.loc 1 59 0 discriminator 1
 104 0062 2C63     		str	r4, [r5, #48]
 105              		.loc 1 60 0 discriminator 1
 106 0064 41F28830 		movw	r0, #5000
 107 0068 FFF7FEFF 		bl	chThdSleep
 108              	.LVL12:
 109              		.loc 1 30 0 discriminator 1
 110 006c EEE7     		b	.L2
 111              	.L6:
 112 006e 00BF     		.align	2
 113              	.L5:
 114 0070 00000000 		.word	SD2
ARM GAS  /tmp/cc6M0mnT.s 			page 3


 115 0074 00000000 		.word	.LANCHOR0
 116 0078 00000000 		.word	.LANCHOR1
 117 007c 00000E40 		.word	1074659328
 118 0080 00120E40 		.word	1074663936
 119 0084 00000000 		.word	.LC0
 120              		.cfi_endproc
 121              	.LFE36:
 122              		.fnend
 123              		.size	main, .-main
 124              		.section	.rodata._ZL6pinPCK,"a",%progbits
 125              		.align	2
 126              		.set	.LANCHOR0,. + 0
 127              		.type	_ZL6pinPCK, %object
 128              		.size	_ZL6pinPCK, 12
 129              	_ZL6pinPCK:
 130 0000 00000080 		.word	-2147483648
 131 0004 000E0E40 		.word	1074662912
 132 0008 0B       		.byte	11
 133 0009 01       		.byte	1
 134 000a 00       		.byte	0
 135 000b 00       		.space	1
 136              		.section	.rodata.str1.4,"aMS",%progbits,1
 137              		.align	2
 138              	.LC0:
 139 0000 48656C6C 		.ascii	"Hello World.\015\012\000"
 139      6F20576F 
 139      726C642E 
 139      0D0A00
 140              		.section	.rodata._ZL8pinPsram,"a",%progbits
 141              		.align	2
 142              		.set	.LANCHOR1,. + 0
 143              		.type	_ZL8pinPsram, %object
 144              		.size	_ZL8pinPsram, 60
 145              	_ZL8pinPsram:
 146 0000 FF000000 		.word	255
 147 0004 00120E40 		.word	1074663936
 148 0008 0D       		.byte	13
 149 0009 00       		.byte	0
 150 000a 01       		.byte	1
 151 000b 00       		.space	1
 152 000c 00080000 		.word	2048
 153 0010 00120E40 		.word	1074663936
 154 0014 0D       		.byte	13
 155 0015 00       		.byte	0
 156 0016 01       		.byte	1
 157 0017 00       		.space	1
 158 0018 00010000 		.word	256
 159 001c 00120E40 		.word	1074663936
 160 0020 0D       		.byte	13
 161 0021 00       		.byte	0
 162 0022 01       		.byte	1
 163 0023 00       		.space	1
 164 0024 00100000 		.word	4096
 165 0028 00120E40 		.word	1074663936
 166 002c 0D       		.byte	13
 167 002d 00       		.byte	0
 168 002e 01       		.byte	1
ARM GAS  /tmp/cc6M0mnT.s 			page 4


 169 002f 00       		.space	1
 170 0030 0000FCFF 		.word	-262144
 171 0034 00120E40 		.word	1074663936
 172 0038 0D       		.byte	13
 173 0039 00       		.byte	0
 174 003a 01       		.byte	1
 175 003b 00       		.space	1
 176              		.text
 177              	.Letext0:
 178              		.file 2 "/home/nixtropy/opt/gcc-arm-none-eabi-4_9-2015q3/arm-none-eabi/include/machine/_default_ty
 179              		.file 3 "/home/nixtropy/opt/gcc-arm-none-eabi-4_9-2015q3/arm-none-eabi/include/sys/_stdint.h"
 180              		.file 4 "/home/nixtropy/opt/gcc-arm-none-eabi-4_9-2015q3/arm-none-eabi/include/stdint.h"
 181              		.file 5 "../../ext/ChibiOS/os/hal/platforms/AT91SAM3S/at91lib/SAM3S.h"
 182              		.file 6 "/home/nixtropy/opt/gcc-arm-none-eabi-4_9-2015q3/lib/gcc/arm-none-eabi/4.9.3/include/stdde
 183              		.file 7 "../../ext/ChibiOS/os/ports/GCC/ARMCMx/chtypes.h"
 184              		.file 8 "../../ext/ChibiOS/os/kernel/include/chlists.h"
 185              		.file 9 "../../ext/ChibiOS/os/kernel/include/chthreads.h"
 186              		.file 10 "../../ext/ChibiOS/os/ports/GCC/ARMCMx/chcore_v7m.h"
 187              		.file 11 "../../ext/ChibiOS/os/kernel/include/chmtx.h"
 188              		.file 12 "../../ext/ChibiOS/os/kernel/include/chevents.h"
 189              		.file 13 "../../ext/ChibiOS/os/kernel/include/chqueues.h"
 190              		.file 14 "../../ext/ChibiOS/os/kernel/include/chioch.h"
 191              		.file 15 "../../ext/ChibiOS/os/hal/platforms/AT91SAM3S/pal_lld.h"
 192              		.file 16 "../../ext/ChibiOS/os/hal/include/serial.h"
 193              		.file 17 "../../ext/ChibiOS/os/hal/platforms/AT91SAM3S/serial_lld.h"
 194              		.file 18 "../../ext/ChibiOS/os/hal/platforms/AT91SAM3S/pio.h"
 195              		.file 19 "psram.h"
 196              		.file 20 "../../ext/ChibiOS/os/hal/include/hal.h"
 197              		.file 21 "../../ext/ChibiOS/os/kernel/include/chsys.h"
 198              		.file 22 "../../ext/ChibiOS/os/hal/platforms/AT91SAM3S/pmc.h"
 199              		.file 23 "../../ext/ChibiOS/os/various/chprintf.h"
 200              		.file 24 "../../ext/ChibiOS/os/hal/platforms/AT91SAM3S/core_cm3.h"