ARM GAS  /tmp/cc1feWkh.s 			page 1


   1              		.syntax unified
   2              		.cpu cortex-m3
   3              		.fpu softvfp
   4              		.eabi_attribute 20, 1
   5              		.eabi_attribute 21, 1
   6              		.eabi_attribute 23, 3
   7              		.eabi_attribute 24, 1
   8              		.eabi_attribute 25, 1
   9              		.eabi_attribute 26, 1
  10              		.eabi_attribute 30, 2
  11              		.eabi_attribute 34, 1
  12              		.eabi_attribute 18, 4
  13              		.thumb
  14              		.file	"main.cpp"
  15              		.text
  16              	.Ltext0:
  17              		.cfi_sections	.debug_frame
  18              		.section	.text._ZL7Thread1Pv,"ax",%progbits
  19              		.align	2
  20              		.p2align 4,,15
  21              		.thumb
  22              		.thumb_func
  23              		.type	_ZL7Thread1Pv, %function
  24              	_ZL7Thread1Pv:
  25              		.fnstart
  26              	.LFB36:
  27              		.file 1 "main.cpp"
  28              		.loc 1 21 0
  29              		.cfi_startproc
  30              		@ args = 0, pretend = 0, frame = 0
  31              		@ frame_needed = 0, uses_anonymous_args = 0
  32              	.LVL0:
  33 0000 70B5     		push	{r4, r5, r6, lr}
  34              		.save {r4, r5, r6, lr}
  35              		.cfi_def_cfa_offset 16
  36              		.cfi_offset 4, -16
  37              		.cfi_offset 5, -12
  38              		.cfi_offset 6, -8
  39              		.cfi_offset 14, -4
  40              		.loc 1 24 0
  41 0002 4FF40035 		mov	r5, #131072
  42 0006 2E46     		mov	r6, r5
  43 0008 044C     		ldr	r4, .L5
  44              	.LVL1:
  45              	.L2:
  46              		.loc 1 24 0 is_stmt 0 discriminator 1
  47 000a 6663     		str	r6, [r4, #52]
  48              		.loc 1 25 0 is_stmt 1 discriminator 1
  49 000c 3220     		movs	r0, #50
  50 000e FFF7FEFF 		bl	chThdSleep
  51              	.LVL2:
  52              		.loc 1 26 0 discriminator 1
  53 0012 2563     		str	r5, [r4, #48]
  54              		.loc 1 27 0 discriminator 1
  55 0014 3220     		movs	r0, #50
  56 0016 FFF7FEFF 		bl	chThdSleep
  57              	.LVL3:
ARM GAS  /tmp/cc1feWkh.s 			page 2


  58              		.loc 1 21 0 discriminator 1
  59 001a F6E7     		b	.L2
  60              	.L6:
  61              		.align	2
  62              	.L5:
  63 001c 00120E40 		.word	1074663936
  64              		.cfi_endproc
  65              	.LFE36:
  66              		.fnend
  67              		.size	_ZL7Thread1Pv, .-_ZL7Thread1Pv
  68              		.section	.text.startup.main,"ax",%progbits
  69              		.align	2
  70              		.p2align 4,,15
  71              		.global	main
  72              		.thumb
  73              		.thumb_func
  74              		.type	main, %function
  75              	main:
  76              		.fnstart
  77              	.LFB37:
  78              		.loc 1 36 0
  79              		.cfi_startproc
  80              		@ args = 0, pretend = 0, frame = 0
  81              		@ frame_needed = 0, uses_anonymous_args = 0
  82 0000 00B5     		push	{lr}
  83              		.save {lr}
  84              		.cfi_def_cfa_offset 4
  85              		.cfi_offset 14, -4
  86              		.pad #12
  87 0002 83B0     		sub	sp, sp, #12
  88              		.cfi_def_cfa_offset 16
  89              		.loc 1 38 0
  90 0004 FFF7FEFF 		bl	halInit
  91              	.LVL4:
  92              		.loc 1 39 0
  93 0008 FFF7FEFF 		bl	chSysInit
  94              	.LVL5:
  95              		.loc 1 40 0
  96 000c 1048     		ldr	r0, .L10
  97 000e FFF7FEFF 		bl	_ZN7creator3I2C4InitEv
  98              	.LVL6:
  99              		.loc 1 43 0
 100 0012 1048     		ldr	r0, .L10+4
 101 0014 0021     		movs	r1, #0
 102 0016 FFF7FEFF 		bl	sdStart
 103              	.LVL7:
 104              		.loc 1 46 0
 105 001a 0023     		movs	r3, #0
 106 001c 0093     		str	r3, [sp]
 107 001e 0E48     		ldr	r0, .L10+8
 108 0020 4FF49871 		mov	r1, #304
 109 0024 4022     		movs	r2, #64
 110 0026 0D4B     		ldr	r3, .L10+12
 111 0028 FFF7FEFF 		bl	chThdCreateStatic
 112              	.LVL8:
 113              	.L8:
 114              		.loc 1 49 0 discriminator 1
ARM GAS  /tmp/cc1feWkh.s 			page 3


 115 002c 0C49     		ldr	r1, .L10+16
 116 002e 0948     		ldr	r0, .L10+4
 117 0030 FFF7FEFF 		bl	chprintf
 118              	.LVL9:
 119              		.loc 1 50 0 discriminator 1
 120 0034 4FF47A70 		mov	r0, #1000
 121 0038 FFF7FEFF 		bl	chThdSleep
 122              	.LVL10:
 123              		.loc 1 51 0 discriminator 1
 124 003c 0448     		ldr	r0, .L10
 125 003e 0121     		movs	r1, #1
 126 0040 5022     		movs	r2, #80
 127 0042 FFF7FEFF 		bl	_ZN7creator3I2C9WriteByteEhh
 128              	.LVL11:
 129              		.loc 1 52 0 discriminator 1
 130 0046 4FF47A70 		mov	r0, #1000
 131 004a FFF7FEFF 		bl	chThdSleep
 132              	.LVL12:
 133              		.loc 1 36 0 discriminator 1
 134 004e EDE7     		b	.L8
 135              	.L11:
 136              		.align	2
 137              	.L10:
 138 0050 00000000 		.word	.LANCHOR0
 139 0054 00000000 		.word	SD2
 140 0058 00000000 		.word	.LANCHOR1
 141 005c 00000000 		.word	_ZL7Thread1Pv
 142 0060 00000000 		.word	.LC0
 143              		.cfi_endproc
 144              	.LFE37:
 145              		.fnend
 146              		.size	main, .-main
 147              		.global	i2c
 148              		.section	.bss._ZL9waThread1,"aw",%nobits
 149              		.align	3
 150              		.set	.LANCHOR1,. + 0
 151              		.type	_ZL9waThread1, %object
 152              		.size	_ZL9waThread1, 304
 153              	_ZL9waThread1:
 154 0000 00000000 		.space	304
 154      00000000 
 154      00000000 
 154      00000000 
 154      00000000 
 155              		.section	.bss.i2c,"aw",%nobits
 156              		.align	2
 157              		.set	.LANCHOR0,. + 0
 158              		.type	i2c, %object
 159              		.size	i2c, 8
 160              	i2c:
 161 0000 00000000 		.space	8
 161      00000000 
 162              		.section	.rodata.str1.4,"aMS",%progbits,1
 163              		.align	2
 164              	.LC0:
 165 0000 6B696C6C 		.ascii	"kill me\015\012\000"
 165      206D650D 
ARM GAS  /tmp/cc1feWkh.s 			page 4


 165      0A00
 166              		.text
 167              	.Letext0:
 168              		.file 2 "/home/nixtropy/opt/gcc-arm-none-eabi-4_9-2015q3/lib/gcc/arm-none-eabi/4.9.3/include/stdde
 169              		.file 3 "/home/nixtropy/opt/gcc-arm-none-eabi-4_9-2015q3/arm-none-eabi/include/machine/_default_ty
 170              		.file 4 "/home/nixtropy/opt/gcc-arm-none-eabi-4_9-2015q3/arm-none-eabi/include/sys/_stdint.h"
 171              		.file 5 "/home/nixtropy/opt/gcc-arm-none-eabi-4_9-2015q3/arm-none-eabi/include/stdint.h"
 172              		.file 6 "../../ext/ChibiOS/os/ports/GCC/ARMCMx/chtypes.h"
 173              		.file 7 "../../ext/ChibiOS/os/kernel/include/chlists.h"
 174              		.file 8 "../../ext/ChibiOS/os/kernel/include/chthreads.h"
 175              		.file 9 "../../ext/ChibiOS/os/ports/GCC/ARMCMx/chcore_v7m.h"
 176              		.file 10 "../../ext/ChibiOS/os/kernel/include/chmtx.h"
 177              		.file 11 "../../ext/ChibiOS/os/kernel/include/chevents.h"
 178              		.file 12 "../../ext/ChibiOS/os/kernel/include/chqueues.h"
 179              		.file 13 "../../ext/ChibiOS/os/kernel/include/chioch.h"
 180              		.file 14 "../../ext/ChibiOS/os/hal/platforms/AT91SAM3S/at91lib/SAM3S.h"
 181              		.file 15 "../../ext/ChibiOS/os/hal/platforms/AT91SAM3S/pal_lld.h"
 182              		.file 16 "../../ext/ChibiOS/os/hal/include/serial.h"
 183              		.file 17 "../../ext/ChibiOS/os/hal/platforms/AT91SAM3S/serial_lld.h"
 184              		.file 18 "../../ext/ChibiOS/os/hal/platforms/AT91SAM3S/async.h"
 185              		.file 19 "../../ext/ChibiOS/os/hal/platforms/AT91SAM3S/atmel_twid.h"
 186              		.file 20 "./i2c.h"
 187              		.file 21 "../../ext/ChibiOS/os/hal/include/hal.h"
 188              		.file 22 "../../ext/ChibiOS/os/kernel/include/chsys.h"
 189              		.file 23 "../../ext/ChibiOS/os/various/chprintf.h"
 190              		.file 24 "../../ext/ChibiOS/os/hal/platforms/AT91SAM3S/core_cm3.h"
 191              		.section	.debug_info,"",%progbits
 192              	.Ldebug_info0:
 193 0000 1E130000 		.4byte	0x131e
 194 0004 0400     		.2byte	0x4
 195 0006 00000000 		.4byte	.Ldebug_abbrev0
 196 000a 04       		.byte	0x4
 197 000b 01       		.uleb128 0x1
 198 000c E8030000 		.4byte	.LASF257
 199 0010 04       		.byte	0x4
 200 0011 CB010000 		.4byte	.LASF258
 201 0015 64050000 		.4byte	.LASF259
 202 0019 00000000 		.4byte	.Ldebug_ranges0+0
 203 001d 00000000 		.4byte	0
 204 0021 00000000 		.4byte	.Ldebug_line0
 205 0025 02       		.uleb128 0x2
 206 0026 04       		.byte	0x4
 207 0027 05       		.byte	0x5
 208 0028 696E7400 		.ascii	"int\000"
 209 002c 03       		.uleb128 0x3
 210 002d 13000000 		.4byte	.LASF2
 211 0031 02       		.byte	0x2
 212 0032 D4       		.byte	0xd4
 213 0033 37000000 		.4byte	0x37
 214 0037 04       		.uleb128 0x4
 215 0038 04       		.byte	0x4
 216 0039 07       		.byte	0x7
 217 003a A0060000 		.4byte	.LASF0
 218 003e 04       		.uleb128 0x4
 219 003f 01       		.byte	0x1
 220 0040 06       		.byte	0x6
 221 0041 D4010000 		.4byte	.LASF1
ARM GAS  /tmp/cc1feWkh.s 			page 5


 222 0045 03       		.uleb128 0x3
 223 0046 E8000000 		.4byte	.LASF3
 224 004a 03       		.byte	0x3
 225 004b 1D       		.byte	0x1d
 226 004c 50000000 		.4byte	0x50
 227 0050 04       		.uleb128 0x4
 228 0051 01       		.byte	0x1
 229 0052 08       		.byte	0x8
 230 0053 15020000 		.4byte	.LASF4
 231 0057 04       		.uleb128 0x4
 232 0058 02       		.byte	0x2
 233 0059 05       		.byte	0x5
 234 005a 6B090000 		.4byte	.LASF5
 235 005e 04       		.uleb128 0x4
 236 005f 02       		.byte	0x2
 237 0060 07       		.byte	0x7
 238 0061 410A0000 		.4byte	.LASF6
 239 0065 03       		.uleb128 0x3
 240 0066 6E0A0000 		.4byte	.LASF7
 241 006a 03       		.byte	0x3
 242 006b 3F       		.byte	0x3f
 243 006c 70000000 		.4byte	0x70
 244 0070 04       		.uleb128 0x4
 245 0071 04       		.byte	0x4
 246 0072 05       		.byte	0x5
 247 0073 33010000 		.4byte	.LASF8
 248 0077 03       		.uleb128 0x3
 249 0078 B7050000 		.4byte	.LASF9
 250 007c 03       		.byte	0x3
 251 007d 41       		.byte	0x41
 252 007e 82000000 		.4byte	0x82
 253 0082 04       		.uleb128 0x4
 254 0083 04       		.byte	0x4
 255 0084 07       		.byte	0x7
 256 0085 DA040000 		.4byte	.LASF10
 257 0089 04       		.uleb128 0x4
 258 008a 08       		.byte	0x8
 259 008b 05       		.byte	0x5
 260 008c DB050000 		.4byte	.LASF11
 261 0090 04       		.uleb128 0x4
 262 0091 08       		.byte	0x8
 263 0092 07       		.byte	0x7
 264 0093 B3070000 		.4byte	.LASF12
 265 0097 03       		.uleb128 0x3
 266 0098 E7010000 		.4byte	.LASF13
 267 009c 04       		.byte	0x4
 268 009d 14       		.byte	0x14
 269 009e 45000000 		.4byte	0x45
 270 00a2 03       		.uleb128 0x3
 271 00a3 46000000 		.4byte	.LASF14
 272 00a7 04       		.byte	0x4
 273 00a8 1F       		.byte	0x1f
 274 00a9 65000000 		.4byte	0x65
 275 00ad 03       		.uleb128 0x3
 276 00ae F7090000 		.4byte	.LASF15
 277 00b2 04       		.byte	0x4
 278 00b3 20       		.byte	0x20
ARM GAS  /tmp/cc1feWkh.s 			page 6


 279 00b4 77000000 		.4byte	0x77
 280 00b8 03       		.uleb128 0x3
 281 00b9 170A0000 		.4byte	.LASF16
 282 00bd 05       		.byte	0x5
 283 00be 3E       		.byte	0x3e
 284 00bf 37000000 		.4byte	0x37
 285 00c3 03       		.uleb128 0x3
 286 00c4 97090000 		.4byte	.LASF17
 287 00c8 06       		.byte	0x6
 288 00c9 2E       		.byte	0x2e
 289 00ca A2000000 		.4byte	0xa2
 290 00ce 03       		.uleb128 0x3
 291 00cf D7080000 		.4byte	.LASF18
 292 00d3 06       		.byte	0x6
 293 00d4 2F       		.byte	0x2f
 294 00d5 97000000 		.4byte	0x97
 295 00d9 03       		.uleb128 0x3
 296 00da 89010000 		.4byte	.LASF19
 297 00de 06       		.byte	0x6
 298 00df 30       		.byte	0x30
 299 00e0 97000000 		.4byte	0x97
 300 00e4 03       		.uleb128 0x3
 301 00e5 C6090000 		.4byte	.LASF20
 302 00e9 06       		.byte	0x6
 303 00ea 31       		.byte	0x31
 304 00eb 97000000 		.4byte	0x97
 305 00ef 03       		.uleb128 0x3
 306 00f0 33000000 		.4byte	.LASF21
 307 00f4 06       		.byte	0x6
 308 00f5 32       		.byte	0x32
 309 00f6 AD000000 		.4byte	0xad
 310 00fa 03       		.uleb128 0x3
 311 00fb E2070000 		.4byte	.LASF22
 312 00ff 06       		.byte	0x6
 313 0100 33       		.byte	0x33
 314 0101 A2000000 		.4byte	0xa2
 315 0105 03       		.uleb128 0x3
 316 0106 F8010000 		.4byte	.LASF23
 317 010a 06       		.byte	0x6
 318 010b 35       		.byte	0x35
 319 010c AD000000 		.4byte	0xad
 320 0110 03       		.uleb128 0x3
 321 0111 23000000 		.4byte	.LASF24
 322 0115 06       		.byte	0x6
 323 0116 36       		.byte	0x36
 324 0117 AD000000 		.4byte	0xad
 325 011b 03       		.uleb128 0x3
 326 011c 9E090000 		.4byte	.LASF25
 327 0120 07       		.byte	0x7
 328 0121 2A       		.byte	0x2a
 329 0122 26010000 		.4byte	0x126
 330 0126 05       		.uleb128 0x5
 331 0127 9E090000 		.4byte	.LASF25
 332 012b 48       		.byte	0x48
 333 012c 08       		.byte	0x8
 334 012d 5E       		.byte	0x5e
 335 012e 4C020000 		.4byte	0x24c
ARM GAS  /tmp/cc1feWkh.s 			page 7


 336 0132 06       		.uleb128 0x6
 337 0133 04       		.byte	0x4
 338 0134 08       		.byte	0x8
 339 0135 90       		.byte	0x90
 340 0136 67010000 		.4byte	0x167
 341 013a 07       		.uleb128 0x7
 342 013b 3A0A0000 		.4byte	.LASF26
 343 013f 08       		.byte	0x8
 344 0140 97       		.byte	0x97
 345 0141 FA000000 		.4byte	0xfa
 346 0145 07       		.uleb128 0x7
 347 0146 DF000000 		.4byte	.LASF27
 348 014a 08       		.byte	0x8
 349 014b 9E       		.byte	0x9e
 350 014c FA000000 		.4byte	0xfa
 351 0150 07       		.uleb128 0x7
 352 0151 D0020000 		.4byte	.LASF28
 353 0155 08       		.byte	0x8
 354 0156 A5       		.byte	0xa5
 355 0157 B1020000 		.4byte	0x2b1
 356 015b 07       		.uleb128 0x7
 357 015c E0010000 		.4byte	.LASF29
 358 0160 08       		.byte	0x8
 359 0161 AC       		.byte	0xac
 360 0162 05010000 		.4byte	0x105
 361 0166 00       		.byte	0
 362 0167 08       		.uleb128 0x8
 363 0168 44010000 		.4byte	.LASF30
 364 016c 08       		.byte	0x8
 365 016d 5F       		.byte	0x5f
 366 016e 63040000 		.4byte	0x463
 367 0172 00       		.byte	0
 368 0173 08       		.uleb128 0x8
 369 0174 5B010000 		.4byte	.LASF31
 370 0178 08       		.byte	0x8
 371 0179 61       		.byte	0x61
 372 017a 63040000 		.4byte	0x463
 373 017e 04       		.byte	0x4
 374 017f 08       		.uleb128 0x8
 375 0180 B3020000 		.4byte	.LASF32
 376 0184 08       		.byte	0x8
 377 0185 63       		.byte	0x63
 378 0186 EF000000 		.4byte	0xef
 379 018a 08       		.byte	0x8
 380 018b 08       		.uleb128 0x8
 381 018c 2D000000 		.4byte	.LASF33
 382 0190 08       		.byte	0x8
 383 0191 64       		.byte	0x64
 384 0192 2E030000 		.4byte	0x32e
 385 0196 0C       		.byte	0xc
 386 0197 08       		.uleb128 0x8
 387 0198 2B010000 		.4byte	.LASF34
 388 019c 08       		.byte	0x8
 389 019d 66       		.byte	0x66
 390 019e 63040000 		.4byte	0x463
 391 01a2 10       		.byte	0x10
 392 01a3 08       		.uleb128 0x8
ARM GAS  /tmp/cc1feWkh.s 			page 8


 393 01a4 CA070000 		.4byte	.LASF35
 394 01a8 08       		.byte	0x8
 395 01a9 67       		.byte	0x67
 396 01aa 63040000 		.4byte	0x463
 397 01ae 14       		.byte	0x14
 398 01af 08       		.uleb128 0x8
 399 01b0 AA0A0000 		.4byte	.LASF36
 400 01b4 08       		.byte	0x8
 401 01b5 6E       		.byte	0x6e
 402 01b6 69040000 		.4byte	0x469
 403 01ba 18       		.byte	0x18
 404 01bb 08       		.uleb128 0x8
 405 01bc 0E0B0000 		.4byte	.LASF37
 406 01c0 08       		.byte	0x8
 407 01c1 79       		.byte	0x79
 408 01c2 D9000000 		.4byte	0xd9
 409 01c6 1C       		.byte	0x1c
 410 01c7 08       		.uleb128 0x8
 411 01c8 93060000 		.4byte	.LASF38
 412 01cc 08       		.byte	0x8
 413 01cd 7D       		.byte	0x7d
 414 01ce CE000000 		.4byte	0xce
 415 01d2 1D       		.byte	0x1d
 416 01d3 08       		.uleb128 0x8
 417 01d4 C6060000 		.4byte	.LASF39
 418 01d8 08       		.byte	0x8
 419 01d9 82       		.byte	0x82
 420 01da E4000000 		.4byte	0xe4
 421 01de 1E       		.byte	0x1e
 422 01df 08       		.uleb128 0x8
 423 01e0 0A070000 		.4byte	.LASF40
 424 01e4 08       		.byte	0x8
 425 01e5 89       		.byte	0x89
 426 01e6 B0030000 		.4byte	0x3b0
 427 01ea 20       		.byte	0x20
 428 01eb 09       		.uleb128 0x9
 429 01ec 705F7500 		.ascii	"p_u\000"
 430 01f0 08       		.byte	0x8
 431 01f1 AE       		.byte	0xae
 432 01f2 32010000 		.4byte	0x132
 433 01f6 24       		.byte	0x24
 434 01f7 08       		.uleb128 0x8
 435 01f8 83060000 		.4byte	.LASF41
 436 01fc 08       		.byte	0x8
 437 01fd B3       		.byte	0xb3
 438 01fe 9B020000 		.4byte	0x29b
 439 0202 28       		.byte	0x28
 440 0203 08       		.uleb128 0x8
 441 0204 3B000000 		.4byte	.LASF42
 442 0208 08       		.byte	0x8
 443 0209 B9       		.byte	0xb9
 444 020a 77020000 		.4byte	0x277
 445 020e 2C       		.byte	0x2c
 446 020f 08       		.uleb128 0x8
 447 0210 E90A0000 		.4byte	.LASF43
 448 0214 08       		.byte	0x8
 449 0215 BD       		.byte	0xbd
ARM GAS  /tmp/cc1feWkh.s 			page 9


 450 0216 FA000000 		.4byte	0xfa
 451 021a 34       		.byte	0x34
 452 021b 08       		.uleb128 0x8
 453 021c AB030000 		.4byte	.LASF44
 454 0220 08       		.byte	0x8
 455 0221 C3       		.byte	0xc3
 456 0222 05010000 		.4byte	0x105
 457 0226 38       		.byte	0x38
 458 0227 08       		.uleb128 0x8
 459 0228 97010000 		.4byte	.LASF45
 460 022c 08       		.byte	0x8
 461 022d CA       		.byte	0xca
 462 022e 7B040000 		.4byte	0x47b
 463 0232 3C       		.byte	0x3c
 464 0233 08       		.uleb128 0x8
 465 0234 59070000 		.4byte	.LASF46
 466 0238 08       		.byte	0x8
 467 0239 CE       		.byte	0xce
 468 023a EF000000 		.4byte	0xef
 469 023e 40       		.byte	0x40
 470 023f 08       		.uleb128 0x8
 471 0240 B6060000 		.4byte	.LASF47
 472 0244 08       		.byte	0x8
 473 0245 D4       		.byte	0xd4
 474 0246 B1020000 		.4byte	0x2b1
 475 024a 44       		.byte	0x44
 476 024b 00       		.byte	0
 477 024c 0A       		.uleb128 0xa
 478 024d 08       		.byte	0x8
 479 024e 07       		.byte	0x7
 480 024f 61       		.byte	0x61
 481 0250 5A020000 		.4byte	.LASF49
 482 0254 71020000 		.4byte	0x271
 483 0258 08       		.uleb128 0x8
 484 0259 44010000 		.4byte	.LASF30
 485 025d 07       		.byte	0x7
 486 025e 62       		.byte	0x62
 487 025f 71020000 		.4byte	0x271
 488 0263 00       		.byte	0
 489 0264 08       		.uleb128 0x8
 490 0265 5B010000 		.4byte	.LASF31
 491 0269 07       		.byte	0x7
 492 026a 64       		.byte	0x64
 493 026b 71020000 		.4byte	0x271
 494 026f 04       		.byte	0x4
 495 0270 00       		.byte	0
 496 0271 0B       		.uleb128 0xb
 497 0272 04       		.byte	0x4
 498 0273 1B010000 		.4byte	0x11b
 499 0277 03       		.uleb128 0x3
 500 0278 0A0A0000 		.4byte	.LASF48
 501 027c 07       		.byte	0x7
 502 027d 66       		.byte	0x66
 503 027e 4C020000 		.4byte	0x24c
 504 0282 0A       		.uleb128 0xa
 505 0283 04       		.byte	0x4
 506 0284 07       		.byte	0x7
ARM GAS  /tmp/cc1feWkh.s 			page 10


 507 0285 6B       		.byte	0x6b
 508 0286 800A0000 		.4byte	.LASF50
 509 028a 9B020000 		.4byte	0x29b
 510 028e 08       		.uleb128 0x8
 511 028f 44010000 		.4byte	.LASF30
 512 0293 07       		.byte	0x7
 513 0294 6D       		.byte	0x6d
 514 0295 71020000 		.4byte	0x271
 515 0299 00       		.byte	0
 516 029a 00       		.byte	0
 517 029b 03       		.uleb128 0x3
 518 029c EF060000 		.4byte	.LASF51
 519 02a0 07       		.byte	0x7
 520 02a1 70       		.byte	0x70
 521 02a2 82020000 		.4byte	0x282
 522 02a6 03       		.uleb128 0x3
 523 02a7 A8010000 		.4byte	.LASF52
 524 02ab 09       		.byte	0x9
 525 02ac D7       		.byte	0xd7
 526 02ad B1020000 		.4byte	0x2b1
 527 02b1 0C       		.uleb128 0xc
 528 02b2 04       		.byte	0x4
 529 02b3 05       		.uleb128 0x5
 530 02b4 A4030000 		.4byte	.LASF53
 531 02b8 24       		.byte	0x24
 532 02b9 09       		.byte	0x9
 533 02ba FE       		.byte	0xfe
 534 02bb 2E030000 		.4byte	0x32e
 535 02bf 0D       		.uleb128 0xd
 536 02c0 723400   		.ascii	"r4\000"
 537 02c3 09       		.byte	0x9
 538 02c4 1101     		.2byte	0x111
 539 02c6 A6020000 		.4byte	0x2a6
 540 02ca 00       		.byte	0
 541 02cb 0D       		.uleb128 0xd
 542 02cc 723500   		.ascii	"r5\000"
 543 02cf 09       		.byte	0x9
 544 02d0 1201     		.2byte	0x112
 545 02d2 A6020000 		.4byte	0x2a6
 546 02d6 04       		.byte	0x4
 547 02d7 0D       		.uleb128 0xd
 548 02d8 723600   		.ascii	"r6\000"
 549 02db 09       		.byte	0x9
 550 02dc 1301     		.2byte	0x113
 551 02de A6020000 		.4byte	0x2a6
 552 02e2 08       		.byte	0x8
 553 02e3 0D       		.uleb128 0xd
 554 02e4 723700   		.ascii	"r7\000"
 555 02e7 09       		.byte	0x9
 556 02e8 1401     		.2byte	0x114
 557 02ea A6020000 		.4byte	0x2a6
 558 02ee 0C       		.byte	0xc
 559 02ef 0D       		.uleb128 0xd
 560 02f0 723800   		.ascii	"r8\000"
 561 02f3 09       		.byte	0x9
 562 02f4 1501     		.2byte	0x115
 563 02f6 A6020000 		.4byte	0x2a6
ARM GAS  /tmp/cc1feWkh.s 			page 11


 564 02fa 10       		.byte	0x10
 565 02fb 0D       		.uleb128 0xd
 566 02fc 723900   		.ascii	"r9\000"
 567 02ff 09       		.byte	0x9
 568 0300 1601     		.2byte	0x116
 569 0302 A6020000 		.4byte	0x2a6
 570 0306 14       		.byte	0x14
 571 0307 0D       		.uleb128 0xd
 572 0308 72313000 		.ascii	"r10\000"
 573 030c 09       		.byte	0x9
 574 030d 1701     		.2byte	0x117
 575 030f A6020000 		.4byte	0x2a6
 576 0313 18       		.byte	0x18
 577 0314 0D       		.uleb128 0xd
 578 0315 72313100 		.ascii	"r11\000"
 579 0319 09       		.byte	0x9
 580 031a 1801     		.2byte	0x118
 581 031c A6020000 		.4byte	0x2a6
 582 0320 1C       		.byte	0x1c
 583 0321 0D       		.uleb128 0xd
 584 0322 6C7200   		.ascii	"lr\000"
 585 0325 09       		.byte	0x9
 586 0326 1901     		.2byte	0x119
 587 0328 A6020000 		.4byte	0x2a6
 588 032c 20       		.byte	0x20
 589 032d 00       		.byte	0
 590 032e 0E       		.uleb128 0xe
 591 032f 04020000 		.4byte	.LASF54
 592 0333 04       		.byte	0x4
 593 0334 09       		.byte	0x9
 594 0335 2301     		.2byte	0x123
 595 0337 49030000 		.4byte	0x349
 596 033b 0D       		.uleb128 0xd
 597 033c 72313300 		.ascii	"r13\000"
 598 0340 09       		.byte	0x9
 599 0341 2401     		.2byte	0x124
 600 0343 49030000 		.4byte	0x349
 601 0347 00       		.byte	0
 602 0348 00       		.byte	0
 603 0349 0B       		.uleb128 0xb
 604 034a 04       		.byte	0x4
 605 034b B3020000 		.4byte	0x2b3
 606 034f 0F       		.uleb128 0xf
 607 0350 97000000 		.4byte	0x97
 608 0354 0F       		.uleb128 0xf
 609 0355 AD000000 		.4byte	0xad
 610 0359 04       		.uleb128 0x4
 611 035a 04       		.byte	0x4
 612 035b 07       		.byte	0x7
 613 035c 1A000000 		.4byte	.LASF55
 614 0360 10       		.uleb128 0x10
 615 0361 82000000 		.4byte	0x82
 616 0365 70030000 		.4byte	0x370
 617 0369 11       		.uleb128 0x11
 618 036a 59030000 		.4byte	0x359
 619 036e 02       		.byte	0x2
 620 036f 00       		.byte	0
ARM GAS  /tmp/cc1feWkh.s 			page 12


 621 0370 10       		.uleb128 0x10
 622 0371 82000000 		.4byte	0x82
 623 0375 80030000 		.4byte	0x380
 624 0379 11       		.uleb128 0x11
 625 037a 59030000 		.4byte	0x359
 626 037e 01       		.byte	0x1
 627 037f 00       		.byte	0
 628 0380 10       		.uleb128 0x10
 629 0381 82000000 		.4byte	0x82
 630 0385 90030000 		.4byte	0x390
 631 0389 11       		.uleb128 0x11
 632 038a 59030000 		.4byte	0x359
 633 038e 03       		.byte	0x3
 634 038f 00       		.byte	0
 635 0390 10       		.uleb128 0x10
 636 0391 82000000 		.4byte	0x82
 637 0395 A0030000 		.4byte	0x3a0
 638 0399 11       		.uleb128 0x11
 639 039a 59030000 		.4byte	0x359
 640 039e 04       		.byte	0x4
 641 039f 00       		.byte	0
 642 03a0 10       		.uleb128 0x10
 643 03a1 82000000 		.4byte	0x82
 644 03a5 B0030000 		.4byte	0x3b0
 645 03a9 11       		.uleb128 0x11
 646 03aa 59030000 		.4byte	0x359
 647 03ae 00       		.byte	0
 648 03af 00       		.byte	0
 649 03b0 0F       		.uleb128 0xf
 650 03b1 10010000 		.4byte	0x110
 651 03b5 05       		.uleb128 0x5
 652 03b6 CA050000 		.4byte	.LASF56
 653 03ba 10       		.byte	0x10
 654 03bb 0A       		.byte	0xa
 655 03bc 2C       		.byte	0x2c
 656 03bd E6030000 		.4byte	0x3e6
 657 03c1 08       		.uleb128 0x8
 658 03c2 E9050000 		.4byte	.LASF57
 659 03c6 0A       		.byte	0xa
 660 03c7 2D       		.byte	0x2d
 661 03c8 77020000 		.4byte	0x277
 662 03cc 00       		.byte	0
 663 03cd 08       		.uleb128 0x8
 664 03ce D7000000 		.4byte	.LASF58
 665 03d2 0A       		.byte	0xa
 666 03d3 2F       		.byte	0x2f
 667 03d4 71020000 		.4byte	0x271
 668 03d8 08       		.byte	0x8
 669 03d9 08       		.uleb128 0x8
 670 03da BB0A0000 		.4byte	.LASF59
 671 03de 0A       		.byte	0xa
 672 03df 31       		.byte	0x31
 673 03e0 E6030000 		.4byte	0x3e6
 674 03e4 0C       		.byte	0xc
 675 03e5 00       		.byte	0
 676 03e6 0B       		.uleb128 0xb
 677 03e7 04       		.byte	0x4
ARM GAS  /tmp/cc1feWkh.s 			page 13


 678 03e8 B5030000 		.4byte	0x3b5
 679 03ec 03       		.uleb128 0x3
 680 03ed CA050000 		.4byte	.LASF56
 681 03f1 0A       		.byte	0xa
 682 03f2 33       		.byte	0x33
 683 03f3 B5030000 		.4byte	0x3b5
 684 03f7 03       		.uleb128 0x3
 685 03f8 D6090000 		.4byte	.LASF60
 686 03fc 0B       		.byte	0xb
 687 03fd 29       		.byte	0x29
 688 03fe 02040000 		.4byte	0x402
 689 0402 05       		.uleb128 0x5
 690 0403 D6090000 		.4byte	.LASF60
 691 0407 0C       		.byte	0xc
 692 0408 0B       		.byte	0xb
 693 0409 2E       		.byte	0x2e
 694 040a 33040000 		.4byte	0x433
 695 040e 08       		.uleb128 0x8
 696 040f 0A050000 		.4byte	.LASF61
 697 0413 0B       		.byte	0xb
 698 0414 2F       		.byte	0x2f
 699 0415 33040000 		.4byte	0x433
 700 0419 00       		.byte	0
 701 041a 08       		.uleb128 0x8
 702 041b EF0A0000 		.4byte	.LASF62
 703 041f 0B       		.byte	0xb
 704 0420 32       		.byte	0x32
 705 0421 71020000 		.4byte	0x271
 706 0425 04       		.byte	0x4
 707 0426 08       		.uleb128 0x8
 708 0427 9D0A0000 		.4byte	.LASF63
 709 042b 0B       		.byte	0xb
 710 042c 34       		.byte	0x34
 711 042d 05010000 		.4byte	0x105
 712 0431 08       		.byte	0x8
 713 0432 00       		.byte	0
 714 0433 0B       		.uleb128 0xb
 715 0434 04       		.byte	0x4
 716 0435 02040000 		.4byte	0x402
 717 0439 05       		.uleb128 0x5
 718 043a CE040000 		.4byte	.LASF64
 719 043e 04       		.byte	0x4
 720 043f 0B       		.byte	0xb
 721 0440 3C       		.byte	0x3c
 722 0441 52040000 		.4byte	0x452
 723 0445 08       		.uleb128 0x8
 724 0446 D6030000 		.4byte	.LASF65
 725 044a 0B       		.byte	0xb
 726 044b 3D       		.byte	0x3d
 727 044c 52040000 		.4byte	0x452
 728 0450 00       		.byte	0
 729 0451 00       		.byte	0
 730 0452 0B       		.uleb128 0xb
 731 0453 04       		.byte	0x4
 732 0454 F7030000 		.4byte	0x3f7
 733 0458 03       		.uleb128 0x3
 734 0459 CE040000 		.4byte	.LASF64
ARM GAS  /tmp/cc1feWkh.s 			page 14


 735 045d 0B       		.byte	0xb
 736 045e 40       		.byte	0x40
 737 045f 39040000 		.4byte	0x439
 738 0463 0B       		.uleb128 0xb
 739 0464 04       		.byte	0x4
 740 0465 26010000 		.4byte	0x126
 741 0469 0B       		.uleb128 0xb
 742 046a 04       		.byte	0x4
 743 046b 6F040000 		.4byte	0x46f
 744 046f 12       		.uleb128 0x12
 745 0470 74040000 		.4byte	0x474
 746 0474 04       		.uleb128 0x4
 747 0475 01       		.byte	0x1
 748 0476 08       		.byte	0x8
 749 0477 7A020000 		.4byte	.LASF66
 750 047b 0B       		.uleb128 0xb
 751 047c 04       		.byte	0x4
 752 047d EC030000 		.4byte	0x3ec
 753 0481 03       		.uleb128 0x3
 754 0482 54060000 		.4byte	.LASF67
 755 0486 08       		.byte	0x8
 756 0487 DF       		.byte	0xdf
 757 0488 8C040000 		.4byte	0x48c
 758 048c 0B       		.uleb128 0xb
 759 048d 04       		.byte	0x4
 760 048e 92040000 		.4byte	0x492
 761 0492 13       		.uleb128 0x13
 762 0493 FA000000 		.4byte	0xfa
 763 0497 A1040000 		.4byte	0x4a1
 764 049b 14       		.uleb128 0x14
 765 049c B1020000 		.4byte	0x2b1
 766 04a0 00       		.byte	0
 767 04a1 03       		.uleb128 0x3
 768 04a2 BA020000 		.4byte	.LASF68
 769 04a6 0C       		.byte	0xc
 770 04a7 37       		.byte	0x37
 771 04a8 AC040000 		.4byte	0x4ac
 772 04ac 05       		.uleb128 0x5
 773 04ad BA020000 		.4byte	.LASF68
 774 04b1 20       		.byte	0x20
 775 04b2 0C       		.byte	0xc
 776 04b3 45       		.byte	0x45
 777 04b4 0D050000 		.4byte	0x50d
 778 04b8 08       		.uleb128 0x8
 779 04b9 87080000 		.4byte	.LASF69
 780 04bd 0C       		.byte	0xc
 781 04be 46       		.byte	0x46
 782 04bf 77020000 		.4byte	0x277
 783 04c3 00       		.byte	0
 784 04c4 08       		.uleb128 0x8
 785 04c5 DE030000 		.4byte	.LASF70
 786 04c9 0C       		.byte	0xc
 787 04ca 47       		.byte	0x47
 788 04cb 2C000000 		.4byte	0x2c
 789 04cf 08       		.byte	0x8
 790 04d0 08       		.uleb128 0x8
 791 04d1 0F010000 		.4byte	.LASF71
ARM GAS  /tmp/cc1feWkh.s 			page 15


 792 04d5 0C       		.byte	0xc
 793 04d6 48       		.byte	0x48
 794 04d7 2F050000 		.4byte	0x52f
 795 04db 0C       		.byte	0xc
 796 04dc 08       		.uleb128 0x8
 797 04dd FA000000 		.4byte	.LASF72
 798 04e1 0C       		.byte	0xc
 799 04e2 49       		.byte	0x49
 800 04e3 2F050000 		.4byte	0x52f
 801 04e7 10       		.byte	0x10
 802 04e8 08       		.uleb128 0x8
 803 04e9 17050000 		.4byte	.LASF73
 804 04ed 0C       		.byte	0xc
 805 04ee 4B       		.byte	0x4b
 806 04ef 2F050000 		.4byte	0x52f
 807 04f3 14       		.byte	0x14
 808 04f4 08       		.uleb128 0x8
 809 04f5 53010000 		.4byte	.LASF74
 810 04f9 0C       		.byte	0xc
 811 04fa 4C       		.byte	0x4c
 812 04fb 2F050000 		.4byte	0x52f
 813 04ff 18       		.byte	0x18
 814 0500 08       		.uleb128 0x8
 815 0501 18010000 		.4byte	.LASF75
 816 0505 0C       		.byte	0xc
 817 0506 4D       		.byte	0x4d
 818 0507 0D050000 		.4byte	0x50d
 819 050b 1C       		.byte	0x1c
 820 050c 00       		.byte	0
 821 050d 03       		.uleb128 0x3
 822 050e 79060000 		.4byte	.LASF76
 823 0512 0C       		.byte	0xc
 824 0513 3A       		.byte	0x3a
 825 0514 18050000 		.4byte	0x518
 826 0518 0B       		.uleb128 0xb
 827 0519 04       		.byte	0x4
 828 051a 1E050000 		.4byte	0x51e
 829 051e 15       		.uleb128 0x15
 830 051f 29050000 		.4byte	0x529
 831 0523 14       		.uleb128 0x14
 832 0524 29050000 		.4byte	0x529
 833 0528 00       		.byte	0
 834 0529 0B       		.uleb128 0xb
 835 052a 04       		.byte	0x4
 836 052b A1040000 		.4byte	0x4a1
 837 052f 0B       		.uleb128 0xb
 838 0530 04       		.byte	0x4
 839 0531 97000000 		.4byte	0x97
 840 0535 03       		.uleb128 0x3
 841 0536 630A0000 		.4byte	.LASF77
 842 053a 0C       		.byte	0xc
 843 053b 76       		.byte	0x76
 844 053c A1040000 		.4byte	0x4a1
 845 0540 03       		.uleb128 0x3
 846 0541 F1020000 		.4byte	.LASF78
 847 0545 0C       		.byte	0xc
 848 0546 E6       		.byte	0xe6
ARM GAS  /tmp/cc1feWkh.s 			page 16


 849 0547 A1040000 		.4byte	0x4a1
 850 054b 13       		.uleb128 0x13
 851 054c 2C000000 		.4byte	0x2c
 852 0550 64050000 		.4byte	0x564
 853 0554 14       		.uleb128 0x14
 854 0555 B1020000 		.4byte	0x2b1
 855 0559 14       		.uleb128 0x14
 856 055a 64050000 		.4byte	0x564
 857 055e 14       		.uleb128 0x14
 858 055f 2C000000 		.4byte	0x2c
 859 0563 00       		.byte	0
 860 0564 0B       		.uleb128 0xb
 861 0565 04       		.byte	0x4
 862 0566 6A050000 		.4byte	0x56a
 863 056a 12       		.uleb128 0x12
 864 056b 97000000 		.4byte	0x97
 865 056f 0B       		.uleb128 0xb
 866 0570 04       		.byte	0x4
 867 0571 4B050000 		.4byte	0x54b
 868 0575 13       		.uleb128 0x13
 869 0576 2C000000 		.4byte	0x2c
 870 057a 8E050000 		.4byte	0x58e
 871 057e 14       		.uleb128 0x14
 872 057f B1020000 		.4byte	0x2b1
 873 0583 14       		.uleb128 0x14
 874 0584 2F050000 		.4byte	0x52f
 875 0588 14       		.uleb128 0x14
 876 0589 2C000000 		.4byte	0x2c
 877 058d 00       		.byte	0
 878 058e 0B       		.uleb128 0xb
 879 058f 04       		.byte	0x4
 880 0590 75050000 		.4byte	0x575
 881 0594 05       		.uleb128 0x5
 882 0595 8E0A0000 		.4byte	.LASF79
 883 0599 20       		.byte	0x20
 884 059a 0D       		.byte	0xd
 885 059b 51       		.byte	0x51
 886 059c 01060000 		.4byte	0x601
 887 05a0 08       		.uleb128 0x8
 888 05a1 84000000 		.4byte	.LASF80
 889 05a5 0D       		.byte	0xd
 890 05a6 52       		.byte	0x52
 891 05a7 6F050000 		.4byte	0x56f
 892 05ab 00       		.byte	0
 893 05ac 08       		.uleb128 0x8
 894 05ad 9B060000 		.4byte	.LASF81
 895 05b1 0D       		.byte	0xd
 896 05b2 52       		.byte	0x52
 897 05b3 8E050000 		.4byte	0x58e
 898 05b7 04       		.byte	0x4
 899 05b8 08       		.uleb128 0x8
 900 05b9 2A030000 		.4byte	.LASF82
 901 05bd 0D       		.byte	0xd
 902 05be 52       		.byte	0x52
 903 05bf 10060000 		.4byte	0x610
 904 05c3 08       		.byte	0x8
 905 05c4 08       		.uleb128 0x8
ARM GAS  /tmp/cc1feWkh.s 			page 17


 906 05c5 84070000 		.4byte	.LASF83
 907 05c9 0D       		.byte	0xd
 908 05ca 52       		.byte	0x52
 909 05cb 10060000 		.4byte	0x610
 910 05cf 0C       		.byte	0xc
 911 05d0 09       		.uleb128 0x9
 912 05d1 70757400 		.ascii	"put\000"
 913 05d5 0D       		.byte	0xd
 914 05d6 52       		.byte	0x52
 915 05d7 2F060000 		.4byte	0x62f
 916 05db 10       		.byte	0x10
 917 05dc 09       		.uleb128 0x9
 918 05dd 67657400 		.ascii	"get\000"
 919 05e1 0D       		.byte	0xd
 920 05e2 52       		.byte	0x52
 921 05e3 49060000 		.4byte	0x649
 922 05e7 14       		.byte	0x14
 923 05e8 08       		.uleb128 0x8
 924 05e9 5B000000 		.4byte	.LASF84
 925 05ed 0D       		.byte	0xd
 926 05ee 52       		.byte	0x52
 927 05ef 6D060000 		.4byte	0x66d
 928 05f3 18       		.byte	0x18
 929 05f4 08       		.uleb128 0x8
 930 05f5 09010000 		.4byte	.LASF85
 931 05f9 0D       		.byte	0xd
 932 05fa 52       		.byte	0x52
 933 05fb 91060000 		.4byte	0x691
 934 05ff 1C       		.byte	0x1c
 935 0600 00       		.byte	0
 936 0601 13       		.uleb128 0x13
 937 0602 C3000000 		.4byte	0xc3
 938 0606 10060000 		.4byte	0x610
 939 060a 14       		.uleb128 0x14
 940 060b B1020000 		.4byte	0x2b1
 941 060f 00       		.byte	0
 942 0610 0B       		.uleb128 0xb
 943 0611 04       		.byte	0x4
 944 0612 01060000 		.4byte	0x601
 945 0616 13       		.uleb128 0x13
 946 0617 FA000000 		.4byte	0xfa
 947 061b 2F060000 		.4byte	0x62f
 948 061f 14       		.uleb128 0x14
 949 0620 B1020000 		.4byte	0x2b1
 950 0624 14       		.uleb128 0x14
 951 0625 97000000 		.4byte	0x97
 952 0629 14       		.uleb128 0x14
 953 062a 10010000 		.4byte	0x110
 954 062e 00       		.byte	0
 955 062f 0B       		.uleb128 0xb
 956 0630 04       		.byte	0x4
 957 0631 16060000 		.4byte	0x616
 958 0635 13       		.uleb128 0x13
 959 0636 FA000000 		.4byte	0xfa
 960 063a 49060000 		.4byte	0x649
 961 063e 14       		.uleb128 0x14
 962 063f B1020000 		.4byte	0x2b1
ARM GAS  /tmp/cc1feWkh.s 			page 18


 963 0643 14       		.uleb128 0x14
 964 0644 10010000 		.4byte	0x110
 965 0648 00       		.byte	0
 966 0649 0B       		.uleb128 0xb
 967 064a 04       		.byte	0x4
 968 064b 35060000 		.4byte	0x635
 969 064f 13       		.uleb128 0x13
 970 0650 2C000000 		.4byte	0x2c
 971 0654 6D060000 		.4byte	0x66d
 972 0658 14       		.uleb128 0x14
 973 0659 B1020000 		.4byte	0x2b1
 974 065d 14       		.uleb128 0x14
 975 065e 64050000 		.4byte	0x564
 976 0662 14       		.uleb128 0x14
 977 0663 2C000000 		.4byte	0x2c
 978 0667 14       		.uleb128 0x14
 979 0668 10010000 		.4byte	0x110
 980 066c 00       		.byte	0
 981 066d 0B       		.uleb128 0xb
 982 066e 04       		.byte	0x4
 983 066f 4F060000 		.4byte	0x64f
 984 0673 13       		.uleb128 0x13
 985 0674 2C000000 		.4byte	0x2c
 986 0678 91060000 		.4byte	0x691
 987 067c 14       		.uleb128 0x14
 988 067d B1020000 		.4byte	0x2b1
 989 0681 14       		.uleb128 0x14
 990 0682 2F050000 		.4byte	0x52f
 991 0686 14       		.uleb128 0x14
 992 0687 2C000000 		.4byte	0x2c
 993 068b 14       		.uleb128 0x14
 994 068c 10010000 		.4byte	0x110
 995 0690 00       		.byte	0
 996 0691 0B       		.uleb128 0xb
 997 0692 04       		.byte	0x4
 998 0693 73060000 		.4byte	0x673
 999 0697 0A       		.uleb128 0xa
 1000 0698 04       		.byte	0x4
 1001 0699 0D       		.byte	0xd
 1002 069a 5C       		.byte	0x5c
 1003 069b 4F030000 		.4byte	.LASF86
 1004 069f B0060000 		.4byte	0x6b0
 1005 06a3 09       		.uleb128 0x9
 1006 06a4 766D7400 		.ascii	"vmt\000"
 1007 06a8 0D       		.byte	0xd
 1008 06a9 5E       		.byte	0x5e
 1009 06aa B0060000 		.4byte	0x6b0
 1010 06ae 00       		.byte	0
 1011 06af 00       		.byte	0
 1012 06b0 0B       		.uleb128 0xb
 1013 06b1 04       		.byte	0x4
 1014 06b2 B6060000 		.4byte	0x6b6
 1015 06b6 12       		.uleb128 0x12
 1016 06b7 94050000 		.4byte	0x594
 1017 06bb 03       		.uleb128 0x3
 1018 06bc C20A0000 		.4byte	.LASF87
 1019 06c0 0D       		.byte	0xd
ARM GAS  /tmp/cc1feWkh.s 			page 19


 1020 06c1 60       		.byte	0x60
 1021 06c2 97060000 		.4byte	0x697
 1022 06c6 16       		.uleb128 0x16
 1023 06c7 FB060000 		.4byte	.LASF88
 1024 06cb 0D       		.byte	0xd
 1025 06cc 0B01     		.2byte	0x10b
 1026 06ce B8000000 		.4byte	0xb8
 1027 06d2 13       		.uleb128 0x13
 1028 06d3 C6060000 		.4byte	0x6c6
 1029 06d7 E1060000 		.4byte	0x6e1
 1030 06db 14       		.uleb128 0x14
 1031 06dc B1020000 		.4byte	0x2b1
 1032 06e0 00       		.byte	0
 1033 06e1 0B       		.uleb128 0xb
 1034 06e2 04       		.byte	0x4
 1035 06e3 D2060000 		.4byte	0x6d2
 1036 06e7 03       		.uleb128 0x3
 1037 06e8 75090000 		.4byte	.LASF89
 1038 06ec 0E       		.byte	0xe
 1039 06ed 37       		.byte	0x37
 1040 06ee 54030000 		.4byte	0x354
 1041 06f2 03       		.uleb128 0x3
 1042 06f3 75000000 		.4byte	.LASF90
 1043 06f7 0E       		.byte	0xe
 1044 06f8 39       		.byte	0x39
 1045 06f9 54030000 		.4byte	0x354
 1046 06fd 03       		.uleb128 0x3
 1047 06fe A5090000 		.4byte	.LASF91
 1048 0702 0E       		.byte	0xe
 1049 0703 3A       		.byte	0x3a
 1050 0704 54030000 		.4byte	0x354
 1051 0708 10       		.uleb128 0x10
 1052 0709 82000000 		.4byte	0x82
 1053 070d 18070000 		.4byte	0x718
 1054 0711 11       		.uleb128 0x11
 1055 0712 59030000 		.4byte	0x359
 1056 0716 12       		.byte	0x12
 1057 0717 00       		.byte	0
 1058 0718 17       		.uleb128 0x17
 1059 0719 9001     		.2byte	0x190
 1060 071b 0E       		.byte	0xe
 1061 071c DA06     		.2byte	0x6da
 1062 071e 12050000 		.4byte	.LASF168
 1063 0722 150B0000 		.4byte	0xb15
 1064 0726 18       		.uleb128 0x18
 1065 0727 5B0A0000 		.4byte	.LASF92
 1066 072b 0E       		.byte	0xe
 1067 072c DB06     		.2byte	0x6db
 1068 072e F2060000 		.4byte	0x6f2
 1069 0732 00       		.byte	0
 1070 0733 18       		.uleb128 0x18
 1071 0734 22030000 		.4byte	.LASF93
 1072 0738 0E       		.byte	0xe
 1073 0739 DC06     		.2byte	0x6dc
 1074 073b F2060000 		.4byte	0x6f2
 1075 073f 04       		.byte	0x4
 1076 0740 18       		.uleb128 0x18
ARM GAS  /tmp/cc1feWkh.s 			page 20


 1077 0741 C5030000 		.4byte	.LASF94
 1078 0745 0E       		.byte	0xe
 1079 0746 DD06     		.2byte	0x6dd
 1080 0748 E7060000 		.4byte	0x6e7
 1081 074c 08       		.byte	0x8
 1082 074d 18       		.uleb128 0x18
 1083 074e 91080000 		.4byte	.LASF95
 1084 0752 0E       		.byte	0xe
 1085 0753 DE06     		.2byte	0x6de
 1086 0755 150B0000 		.4byte	0xb15
 1087 0759 0C       		.byte	0xc
 1088 075a 18       		.uleb128 0x18
 1089 075b 10080000 		.4byte	.LASF96
 1090 075f 0E       		.byte	0xe
 1091 0760 DF06     		.2byte	0x6df
 1092 0762 F2060000 		.4byte	0x6f2
 1093 0766 10       		.byte	0x10
 1094 0767 18       		.uleb128 0x18
 1095 0768 DA070000 		.4byte	.LASF97
 1096 076c 0E       		.byte	0xe
 1097 076d E006     		.2byte	0x6e0
 1098 076f F2060000 		.4byte	0x6f2
 1099 0773 14       		.byte	0x14
 1100 0774 18       		.uleb128 0x18
 1101 0775 C3010000 		.4byte	.LASF98
 1102 0779 0E       		.byte	0xe
 1103 077a E106     		.2byte	0x6e1
 1104 077c E7060000 		.4byte	0x6e7
 1105 0780 18       		.byte	0x18
 1106 0781 18       		.uleb128 0x18
 1107 0782 9B080000 		.4byte	.LASF99
 1108 0786 0E       		.byte	0xe
 1109 0787 E206     		.2byte	0x6e2
 1110 0789 1A0B0000 		.4byte	0xb1a
 1111 078d 1C       		.byte	0x1c
 1112 078e 18       		.uleb128 0x18
 1113 078f E8070000 		.4byte	.LASF100
 1114 0793 0E       		.byte	0xe
 1115 0794 E306     		.2byte	0x6e3
 1116 0796 F2060000 		.4byte	0x6f2
 1117 079a 20       		.byte	0x20
 1118 079b 18       		.uleb128 0x18
 1119 079c 9B070000 		.4byte	.LASF101
 1120 07a0 0E       		.byte	0xe
 1121 07a1 E406     		.2byte	0x6e4
 1122 07a3 F2060000 		.4byte	0x6f2
 1123 07a7 24       		.byte	0x24
 1124 07a8 18       		.uleb128 0x18
 1125 07a9 75010000 		.4byte	.LASF102
 1126 07ad 0E       		.byte	0xe
 1127 07ae E506     		.2byte	0x6e5
 1128 07b0 E7060000 		.4byte	0x6e7
 1129 07b4 28       		.byte	0x28
 1130 07b5 18       		.uleb128 0x18
 1131 07b6 A5080000 		.4byte	.LASF103
 1132 07ba 0E       		.byte	0xe
 1133 07bb E606     		.2byte	0x6e6
ARM GAS  /tmp/cc1feWkh.s 			page 21


 1134 07bd 1F0B0000 		.4byte	0xb1f
 1135 07c1 2C       		.byte	0x2c
 1136 07c2 18       		.uleb128 0x18
 1137 07c3 5C060000 		.4byte	.LASF104
 1138 07c7 0E       		.byte	0xe
 1139 07c8 E706     		.2byte	0x6e7
 1140 07ca F2060000 		.4byte	0x6f2
 1141 07ce 30       		.byte	0x30
 1142 07cf 18       		.uleb128 0x18
 1143 07d0 37050000 		.4byte	.LASF105
 1144 07d4 0E       		.byte	0xe
 1145 07d5 E806     		.2byte	0x6e8
 1146 07d7 F2060000 		.4byte	0x6f2
 1147 07db 34       		.byte	0x34
 1148 07dc 18       		.uleb128 0x18
 1149 07dd 20090000 		.4byte	.LASF106
 1150 07e1 0E       		.byte	0xe
 1151 07e2 E906     		.2byte	0x6e9
 1152 07e4 FD060000 		.4byte	0x6fd
 1153 07e8 38       		.byte	0x38
 1154 07e9 18       		.uleb128 0x18
 1155 07ea D7020000 		.4byte	.LASF107
 1156 07ee 0E       		.byte	0xe
 1157 07ef EA06     		.2byte	0x6ea
 1158 07f1 E7060000 		.4byte	0x6e7
 1159 07f5 3C       		.byte	0x3c
 1160 07f6 18       		.uleb128 0x18
 1161 07f7 35060000 		.4byte	.LASF108
 1162 07fb 0E       		.byte	0xe
 1163 07fc EB06     		.2byte	0x6eb
 1164 07fe F2060000 		.4byte	0x6f2
 1165 0802 40       		.byte	0x40
 1166 0803 18       		.uleb128 0x18
 1167 0804 C2050000 		.4byte	.LASF109
 1168 0808 0E       		.byte	0xe
 1169 0809 EC06     		.2byte	0x6ec
 1170 080b F2060000 		.4byte	0x6f2
 1171 080f 44       		.byte	0x44
 1172 0810 18       		.uleb128 0x18
 1173 0811 0F090000 		.4byte	.LASF110
 1174 0815 0E       		.byte	0xe
 1175 0816 ED06     		.2byte	0x6ed
 1176 0818 E7060000 		.4byte	0x6e7
 1177 081c 48       		.byte	0x48
 1178 081d 18       		.uleb128 0x18
 1179 081e CE0A0000 		.4byte	.LASF111
 1180 0822 0E       		.byte	0xe
 1181 0823 EE06     		.2byte	0x6ee
 1182 0825 E7060000 		.4byte	0x6e7
 1183 0829 4C       		.byte	0x4c
 1184 082a 18       		.uleb128 0x18
 1185 082b 10030000 		.4byte	.LASF112
 1186 082f 0E       		.byte	0xe
 1187 0830 EF06     		.2byte	0x6ef
 1188 0832 F2060000 		.4byte	0x6f2
 1189 0836 50       		.byte	0x50
 1190 0837 18       		.uleb128 0x18
ARM GAS  /tmp/cc1feWkh.s 			page 22


 1191 0838 C7020000 		.4byte	.LASF113
 1192 083c 0E       		.byte	0xe
 1193 083d F006     		.2byte	0x6f0
 1194 083f F2060000 		.4byte	0x6f2
 1195 0843 54       		.byte	0x54
 1196 0844 18       		.uleb128 0x18
 1197 0845 FD080000 		.4byte	.LASF114
 1198 0849 0E       		.byte	0xe
 1199 084a F106     		.2byte	0x6f1
 1200 084c E7060000 		.4byte	0x6e7
 1201 0850 58       		.byte	0x58
 1202 0851 18       		.uleb128 0x18
 1203 0852 AF080000 		.4byte	.LASF115
 1204 0856 0E       		.byte	0xe
 1205 0857 F206     		.2byte	0x6f2
 1206 0859 240B0000 		.4byte	0xb24
 1207 085d 5C       		.byte	0x5c
 1208 085e 18       		.uleb128 0x18
 1209 085f 23020000 		.4byte	.LASF116
 1210 0863 0E       		.byte	0xe
 1211 0864 F306     		.2byte	0x6f3
 1212 0866 F2060000 		.4byte	0x6f2
 1213 086a 60       		.byte	0x60
 1214 086b 18       		.uleb128 0x18
 1215 086c 71020000 		.4byte	.LASF117
 1216 0870 0E       		.byte	0xe
 1217 0871 F406     		.2byte	0x6f4
 1218 0873 F2060000 		.4byte	0x6f2
 1219 0877 64       		.byte	0x64
 1220 0878 18       		.uleb128 0x18
 1221 0879 07080000 		.4byte	.LASF118
 1222 087d 0E       		.byte	0xe
 1223 087e F506     		.2byte	0x6f5
 1224 0880 E7060000 		.4byte	0x6e7
 1225 0884 68       		.byte	0x68
 1226 0885 18       		.uleb128 0x18
 1227 0886 B9080000 		.4byte	.LASF119
 1228 088a 0E       		.byte	0xe
 1229 088b F606     		.2byte	0x6f6
 1230 088d 290B0000 		.4byte	0xb29
 1231 0891 6C       		.byte	0x6c
 1232 0892 18       		.uleb128 0x18
 1233 0893 7E010000 		.4byte	.LASF120
 1234 0897 0E       		.byte	0xe
 1235 0898 F706     		.2byte	0x6f7
 1236 089a 2E0B0000 		.4byte	0xb2e
 1237 089e 70       		.byte	0x70
 1238 089f 18       		.uleb128 0x18
 1239 08a0 C3080000 		.4byte	.LASF121
 1240 08a4 0E       		.byte	0xe
 1241 08a5 F806     		.2byte	0x6f8
 1242 08a7 330B0000 		.4byte	0xb33
 1243 08ab 78       		.byte	0x78
 1244 08ac 18       		.uleb128 0x18
 1245 08ad 16060000 		.4byte	.LASF122
 1246 08b1 0E       		.byte	0xe
 1247 08b2 F906     		.2byte	0x6f9
ARM GAS  /tmp/cc1feWkh.s 			page 23


 1248 08b4 F2060000 		.4byte	0x6f2
 1249 08b8 80       		.byte	0x80
 1250 08b9 18       		.uleb128 0x18
 1251 08ba 65060000 		.4byte	.LASF123
 1252 08be 0E       		.byte	0xe
 1253 08bf FA06     		.2byte	0x6fa
 1254 08c1 F2060000 		.4byte	0x6f2
 1255 08c5 84       		.byte	0x84
 1256 08c6 18       		.uleb128 0x18
 1257 08c7 00000000 		.4byte	.LASF124
 1258 08cb 0E       		.byte	0xe
 1259 08cc FB06     		.2byte	0x6fb
 1260 08ce E7060000 		.4byte	0x6e7
 1261 08d2 88       		.byte	0x88
 1262 08d3 18       		.uleb128 0x18
 1263 08d4 F1050000 		.4byte	.LASF125
 1264 08d8 0E       		.byte	0xe
 1265 08d9 FC06     		.2byte	0x6fc
 1266 08db FD060000 		.4byte	0x6fd
 1267 08df 8C       		.byte	0x8c
 1268 08e0 18       		.uleb128 0x18
 1269 08e1 21010000 		.4byte	.LASF126
 1270 08e5 0E       		.byte	0xe
 1271 08e6 FD06     		.2byte	0x6fd
 1272 08e8 F2060000 		.4byte	0x6f2
 1273 08ec 90       		.byte	0x90
 1274 08ed 18       		.uleb128 0x18
 1275 08ee B1010000 		.4byte	.LASF127
 1276 08f2 0E       		.byte	0xe
 1277 08f3 FE06     		.2byte	0x6fe
 1278 08f5 F2060000 		.4byte	0x6f2
 1279 08f9 94       		.byte	0x94
 1280 08fa 18       		.uleb128 0x18
 1281 08fb 47070000 		.4byte	.LASF128
 1282 08ff 0E       		.byte	0xe
 1283 0900 FF06     		.2byte	0x6ff
 1284 0902 E7060000 		.4byte	0x6e7
 1285 0906 98       		.byte	0x98
 1286 0907 18       		.uleb128 0x18
 1287 0908 CD080000 		.4byte	.LASF129
 1288 090c 0E       		.byte	0xe
 1289 090d 0007     		.2byte	0x700
 1290 090f 380B0000 		.4byte	0xb38
 1291 0913 9C       		.byte	0x9c
 1292 0914 18       		.uleb128 0x18
 1293 0915 6C010000 		.4byte	.LASF130
 1294 0919 0E       		.byte	0xe
 1295 091a 0107     		.2byte	0x701
 1296 091c F2060000 		.4byte	0x6f2
 1297 0920 A0       		.byte	0xa0
 1298 0921 18       		.uleb128 0x18
 1299 0922 00010000 		.4byte	.LASF131
 1300 0926 0E       		.byte	0xe
 1301 0927 0207     		.2byte	0x702
 1302 0929 F2060000 		.4byte	0x6f2
 1303 092d A4       		.byte	0xa4
 1304 092e 18       		.uleb128 0x18
ARM GAS  /tmp/cc1feWkh.s 			page 24


 1305 092f 11070000 		.4byte	.LASF132
 1306 0933 0E       		.byte	0xe
 1307 0934 0307     		.2byte	0x703
 1308 0936 E7060000 		.4byte	0x6e7
 1309 093a A8       		.byte	0xa8
 1310 093b 18       		.uleb128 0x18
 1311 093c B4000000 		.4byte	.LASF133
 1312 0940 0E       		.byte	0xe
 1313 0941 0407     		.2byte	0x704
 1314 0943 3D0B0000 		.4byte	0xb3d
 1315 0947 AC       		.byte	0xac
 1316 0948 18       		.uleb128 0x18
 1317 0949 E9080000 		.4byte	.LASF134
 1318 094d 0E       		.byte	0xe
 1319 094e 0507     		.2byte	0x705
 1320 0950 F2060000 		.4byte	0x6f2
 1321 0954 B0       		.byte	0xb0
 1322 0955 18       		.uleb128 0x18
 1323 0956 3E080000 		.4byte	.LASF135
 1324 095a 0E       		.byte	0xe
 1325 095b 0607     		.2byte	0x706
 1326 095d F2060000 		.4byte	0x6f2
 1327 0961 B4       		.byte	0xb4
 1328 0962 18       		.uleb128 0x18
 1329 0963 62000000 		.4byte	.LASF136
 1330 0967 0E       		.byte	0xe
 1331 0968 0707     		.2byte	0x707
 1332 096a E7060000 		.4byte	0x6e7
 1333 096e B8       		.byte	0xb8
 1334 096f 18       		.uleb128 0x18
 1335 0970 DF080000 		.4byte	.LASF137
 1336 0974 0E       		.byte	0xe
 1337 0975 0807     		.2byte	0x708
 1338 0977 420B0000 		.4byte	0xb42
 1339 097b BC       		.byte	0xbc
 1340 097c 18       		.uleb128 0x18
 1341 097d BB010000 		.4byte	.LASF138
 1342 0981 0E       		.byte	0xe
 1343 0982 0907     		.2byte	0x709
 1344 0984 F2060000 		.4byte	0x6f2
 1345 0988 C0       		.byte	0xc0
 1346 0989 18       		.uleb128 0x18
 1347 098a DE060000 		.4byte	.LASF139
 1348 098e 0E       		.byte	0xe
 1349 098f 0A07     		.2byte	0x70a
 1350 0991 F2060000 		.4byte	0x6f2
 1351 0995 C4       		.byte	0xc4
 1352 0996 18       		.uleb128 0x18
 1353 0997 92030000 		.4byte	.LASF140
 1354 099b 0E       		.byte	0xe
 1355 099c 0B07     		.2byte	0x70b
 1356 099e E7060000 		.4byte	0x6e7
 1357 09a2 C8       		.byte	0xc8
 1358 09a3 18       		.uleb128 0x18
 1359 09a4 87020000 		.4byte	.LASF141
 1360 09a8 0E       		.byte	0xe
 1361 09a9 0C07     		.2byte	0x70c
ARM GAS  /tmp/cc1feWkh.s 			page 25


 1362 09ab 470B0000 		.4byte	0xb47
 1363 09af CC       		.byte	0xcc
 1364 09b0 18       		.uleb128 0x18
 1365 09b1 FD020000 		.4byte	.LASF142
 1366 09b5 0E       		.byte	0xe
 1367 09b6 0D07     		.2byte	0x70d
 1368 09b8 F2060000 		.4byte	0x6f2
 1369 09bc D0       		.byte	0xd0
 1370 09bd 18       		.uleb128 0x18
 1371 09be 2F0A0000 		.4byte	.LASF143
 1372 09c2 0E       		.byte	0xe
 1373 09c3 0E07     		.2byte	0x70e
 1374 09c5 F2060000 		.4byte	0x6f2
 1375 09c9 D4       		.byte	0xd4
 1376 09ca 18       		.uleb128 0x18
 1377 09cb 6A080000 		.4byte	.LASF144
 1378 09cf 0E       		.byte	0xe
 1379 09d0 0F07     		.2byte	0x70f
 1380 09d2 E7060000 		.4byte	0x6e7
 1381 09d6 D8       		.byte	0xd8
 1382 09d7 18       		.uleb128 0x18
 1383 09d8 92020000 		.4byte	.LASF145
 1384 09dc 0E       		.byte	0xe
 1385 09dd 1007     		.2byte	0x710
 1386 09df 4C0B0000 		.4byte	0xb4c
 1387 09e3 DC       		.byte	0xdc
 1388 09e4 18       		.uleb128 0x18
 1389 09e5 E6020000 		.4byte	.LASF146
 1390 09e9 0E       		.byte	0xe
 1391 09ea 1107     		.2byte	0x711
 1392 09ec E7060000 		.4byte	0x6e7
 1393 09f0 E0       		.byte	0xe0
 1394 09f1 18       		.uleb128 0x18
 1395 09f2 7B000000 		.4byte	.LASF147
 1396 09f6 0E       		.byte	0xe
 1397 09f7 1207     		.2byte	0x712
 1398 09f9 FD060000 		.4byte	0x6fd
 1399 09fd E4       		.byte	0xe4
 1400 09fe 18       		.uleb128 0x18
 1401 09ff 48020000 		.4byte	.LASF148
 1402 0a03 0E       		.byte	0xe
 1403 0a04 1307     		.2byte	0x713
 1404 0a06 E7060000 		.4byte	0x6e7
 1405 0a0a E8       		.byte	0xe8
 1406 0a0b 18       		.uleb128 0x18
 1407 0a0c 9D020000 		.4byte	.LASF149
 1408 0a10 0E       		.byte	0xe
 1409 0a11 1407     		.2byte	0x714
 1410 0a13 510B0000 		.4byte	0xb51
 1411 0a17 EC       		.byte	0xec
 1412 0a18 19       		.uleb128 0x19
 1413 0a19 5F090000 		.4byte	.LASF150
 1414 0a1d 0E       		.byte	0xe
 1415 0a1e 1507     		.2byte	0x715
 1416 0a20 FD060000 		.4byte	0x6fd
 1417 0a24 0001     		.2byte	0x100
 1418 0a26 19       		.uleb128 0x19
ARM GAS  /tmp/cc1feWkh.s 			page 26


 1419 0a27 A8020000 		.4byte	.LASF151
 1420 0a2b 0E       		.byte	0xe
 1421 0a2c 1607     		.2byte	0x716
 1422 0a2e 560B0000 		.4byte	0xb56
 1423 0a32 0401     		.2byte	0x104
 1424 0a34 19       		.uleb128 0x19
 1425 0a35 E4090000 		.4byte	.LASF152
 1426 0a39 0E       		.byte	0xe
 1427 0a3a 1707     		.2byte	0x717
 1428 0a3c FD060000 		.4byte	0x6fd
 1429 0a40 5001     		.2byte	0x150
 1430 0a42 19       		.uleb128 0x19
 1431 0a43 040B0000 		.4byte	.LASF153
 1432 0a47 0E       		.byte	0xe
 1433 0a48 1807     		.2byte	0x718
 1434 0a4a F2060000 		.4byte	0x6f2
 1435 0a4e 5401     		.2byte	0x154
 1436 0a50 19       		.uleb128 0x19
 1437 0a51 D4060000 		.4byte	.LASF154
 1438 0a55 0E       		.byte	0xe
 1439 0a56 1907     		.2byte	0x719
 1440 0a58 F2060000 		.4byte	0x6f2
 1441 0a5c 5801     		.2byte	0x158
 1442 0a5e 19       		.uleb128 0x19
 1443 0a5f BC090000 		.4byte	.LASF155
 1444 0a63 0E       		.byte	0xe
 1445 0a64 1A07     		.2byte	0x71a
 1446 0a66 E7060000 		.4byte	0x6e7
 1447 0a6a 5C01     		.2byte	0x15c
 1448 0a6c 19       		.uleb128 0x19
 1449 0a6d A1000000 		.4byte	.LASF156
 1450 0a71 0E       		.byte	0xe
 1451 0a72 1B07     		.2byte	0x71b
 1452 0a74 E7060000 		.4byte	0x6e7
 1453 0a78 6001     		.2byte	0x160
 1454 0a7a 19       		.uleb128 0x19
 1455 0a7b 3D060000 		.4byte	.LASF157
 1456 0a7f 0E       		.byte	0xe
 1457 0a80 1C07     		.2byte	0x71c
 1458 0a82 E7060000 		.4byte	0x6e7
 1459 0a86 6401     		.2byte	0x164
 1460 0a88 19       		.uleb128 0x19
 1461 0a89 D2070000 		.4byte	.LASF158
 1462 0a8d 0E       		.byte	0xe
 1463 0a8e 1D07     		.2byte	0x71d
 1464 0a90 FD060000 		.4byte	0x6fd
 1465 0a94 6801     		.2byte	0x168
 1466 0a96 19       		.uleb128 0x19
 1467 0a97 7F020000 		.4byte	.LASF159
 1468 0a9b 0E       		.byte	0xe
 1469 0a9c 1E07     		.2byte	0x71e
 1470 0a9e FD060000 		.4byte	0x6fd
 1471 0aa2 6C01     		.2byte	0x16c
 1472 0aa4 19       		.uleb128 0x19
 1473 0aa5 BE000000 		.4byte	.LASF160
 1474 0aa9 0E       		.byte	0xe
 1475 0aaa 1F07     		.2byte	0x71f
ARM GAS  /tmp/cc1feWkh.s 			page 27


 1476 0aac FD060000 		.4byte	0x6fd
 1477 0ab0 7001     		.2byte	0x170
 1478 0ab2 19       		.uleb128 0x19
 1479 0ab3 AB070000 		.4byte	.LASF161
 1480 0ab7 0E       		.byte	0xe
 1481 0ab8 2007     		.2byte	0x720
 1482 0aba FD060000 		.4byte	0x6fd
 1483 0abe 7401     		.2byte	0x174
 1484 0ac0 19       		.uleb128 0x19
 1485 0ac1 0C020000 		.4byte	.LASF162
 1486 0ac5 0E       		.byte	0xe
 1487 0ac6 2107     		.2byte	0x721
 1488 0ac8 FD060000 		.4byte	0x6fd
 1489 0acc 7801     		.2byte	0x178
 1490 0ace 19       		.uleb128 0x19
 1491 0acf 29090000 		.4byte	.LASF163
 1492 0ad3 0E       		.byte	0xe
 1493 0ad4 2207     		.2byte	0x722
 1494 0ad6 FD060000 		.4byte	0x6fd
 1495 0ada 7C01     		.2byte	0x17c
 1496 0adc 19       		.uleb128 0x19
 1497 0add 35020000 		.4byte	.LASF164
 1498 0ae1 0E       		.byte	0xe
 1499 0ae2 2307     		.2byte	0x723
 1500 0ae4 FD060000 		.4byte	0x6fd
 1501 0ae8 8001     		.2byte	0x180
 1502 0aea 19       		.uleb128 0x19
 1503 0aeb 3B090000 		.4byte	.LASF165
 1504 0aef 0E       		.byte	0xe
 1505 0af0 2407     		.2byte	0x724
 1506 0af2 FD060000 		.4byte	0x6fd
 1507 0af6 8401     		.2byte	0x184
 1508 0af8 19       		.uleb128 0x19
 1509 0af9 FB0A0000 		.4byte	.LASF166
 1510 0afd 0E       		.byte	0xe
 1511 0afe 2507     		.2byte	0x725
 1512 0b00 F2060000 		.4byte	0x6f2
 1513 0b04 8801     		.2byte	0x188
 1514 0b06 19       		.uleb128 0x19
 1515 0b07 2C060000 		.4byte	.LASF167
 1516 0b0b 0E       		.byte	0xe
 1517 0b0c 2607     		.2byte	0x726
 1518 0b0e E7060000 		.4byte	0x6e7
 1519 0b12 8C01     		.2byte	0x18c
 1520 0b14 00       		.byte	0
 1521 0b15 0F       		.uleb128 0xf
 1522 0b16 A0030000 		.4byte	0x3a0
 1523 0b1a 0F       		.uleb128 0xf
 1524 0b1b A0030000 		.4byte	0x3a0
 1525 0b1f 0F       		.uleb128 0xf
 1526 0b20 A0030000 		.4byte	0x3a0
 1527 0b24 0F       		.uleb128 0xf
 1528 0b25 A0030000 		.4byte	0x3a0
 1529 0b29 0F       		.uleb128 0xf
 1530 0b2a A0030000 		.4byte	0x3a0
 1531 0b2e 0F       		.uleb128 0xf
 1532 0b2f 70030000 		.4byte	0x370
ARM GAS  /tmp/cc1feWkh.s 			page 28


 1533 0b33 0F       		.uleb128 0xf
 1534 0b34 70030000 		.4byte	0x370
 1535 0b38 0F       		.uleb128 0xf
 1536 0b39 A0030000 		.4byte	0x3a0
 1537 0b3d 0F       		.uleb128 0xf
 1538 0b3e A0030000 		.4byte	0x3a0
 1539 0b42 0F       		.uleb128 0xf
 1540 0b43 A0030000 		.4byte	0x3a0
 1541 0b47 0F       		.uleb128 0xf
 1542 0b48 A0030000 		.4byte	0x3a0
 1543 0b4c 0F       		.uleb128 0xf
 1544 0b4d A0030000 		.4byte	0x3a0
 1545 0b51 0F       		.uleb128 0xf
 1546 0b52 90030000 		.4byte	0x390
 1547 0b56 0F       		.uleb128 0xf
 1548 0b57 08070000 		.4byte	0x708
 1549 0b5b 1A       		.uleb128 0x1a
 1550 0b5c 50696F00 		.ascii	"Pio\000"
 1551 0b60 0E       		.byte	0xe
 1552 0b61 2707     		.2byte	0x727
 1553 0b63 18070000 		.4byte	0x718
 1554 0b67 17       		.uleb128 0x17
 1555 0b68 2801     		.2byte	0x128
 1556 0b6a 0E       		.byte	0xe
 1557 0b6b 5116     		.2byte	0x1651
 1558 0b6d F1070000 		.4byte	.LASF169
 1559 0b71 AB0C0000 		.4byte	0xcab
 1560 0b75 18       		.uleb128 0x18
 1561 0b76 CD060000 		.4byte	.LASF170
 1562 0b7a 0E       		.byte	0xe
 1563 0b7b 5216     		.2byte	0x1652
 1564 0b7d F2060000 		.4byte	0x6f2
 1565 0b81 00       		.byte	0
 1566 0b82 18       		.uleb128 0x18
 1567 0b83 51070000 		.4byte	.LASF171
 1568 0b87 0E       		.byte	0xe
 1569 0b88 5316     		.2byte	0x1653
 1570 0b8a FD060000 		.4byte	0x6fd
 1571 0b8e 04       		.byte	0x4
 1572 0b8f 18       		.uleb128 0x18
 1573 0b90 7F080000 		.4byte	.LASF172
 1574 0b94 0E       		.byte	0xe
 1575 0b95 5416     		.2byte	0x1654
 1576 0b97 FD060000 		.4byte	0x6fd
 1577 0b9b 08       		.byte	0x8
 1578 0b9c 18       		.uleb128 0x18
 1579 0b9d EF010000 		.4byte	.LASF173
 1580 0ba1 0E       		.byte	0xe
 1581 0ba2 5516     		.2byte	0x1655
 1582 0ba4 FD060000 		.4byte	0x6fd
 1583 0ba8 0C       		.byte	0xc
 1584 0ba9 18       		.uleb128 0x18
 1585 0baa F6070000 		.4byte	.LASF174
 1586 0bae 0E       		.byte	0xe
 1587 0baf 5616     		.2byte	0x1656
 1588 0bb1 FD060000 		.4byte	0x6fd
 1589 0bb5 10       		.byte	0x10
ARM GAS  /tmp/cc1feWkh.s 			page 29


 1590 0bb6 18       		.uleb128 0x18
 1591 0bb7 91080000 		.4byte	.LASF95
 1592 0bbb 0E       		.byte	0xe
 1593 0bbc 5716     		.2byte	0x1657
 1594 0bbe AB0C0000 		.4byte	0xcab
 1595 0bc2 14       		.byte	0x14
 1596 0bc3 18       		.uleb128 0x18
 1597 0bc4 C6000000 		.4byte	.LASF175
 1598 0bc8 0E       		.byte	0xe
 1599 0bc9 5816     		.2byte	0x1658
 1600 0bcb E7060000 		.4byte	0x6e7
 1601 0bcf 20       		.byte	0x20
 1602 0bd0 18       		.uleb128 0x18
 1603 0bd1 BE060000 		.4byte	.LASF176
 1604 0bd5 0E       		.byte	0xe
 1605 0bd6 5916     		.2byte	0x1659
 1606 0bd8 F2060000 		.4byte	0x6f2
 1607 0bdc 24       		.byte	0x24
 1608 0bdd 18       		.uleb128 0x18
 1609 0bde F2000000 		.4byte	.LASF177
 1610 0be2 0E       		.byte	0xe
 1611 0be3 5A16     		.2byte	0x165a
 1612 0be5 F2060000 		.4byte	0x6f2
 1613 0be9 28       		.byte	0x28
 1614 0bea 18       		.uleb128 0x18
 1615 0beb 8F090000 		.4byte	.LASF178
 1616 0bef 0E       		.byte	0xe
 1617 0bf0 5B16     		.2byte	0x165b
 1618 0bf2 E7060000 		.4byte	0x6e7
 1619 0bf6 2C       		.byte	0x2c
 1620 0bf7 18       		.uleb128 0x18
 1621 0bf8 AF050000 		.4byte	.LASF179
 1622 0bfc 0E       		.byte	0xe
 1623 0bfd 5C16     		.2byte	0x165c
 1624 0bff E7060000 		.4byte	0x6e7
 1625 0c03 30       		.byte	0x30
 1626 0c04 18       		.uleb128 0x18
 1627 0c05 CE090000 		.4byte	.LASF180
 1628 0c09 0E       		.byte	0xe
 1629 0c0a 5D16     		.2byte	0x165d
 1630 0c0c F2060000 		.4byte	0x6f2
 1631 0c10 34       		.byte	0x34
 1632 0c11 18       		.uleb128 0x18
 1633 0c12 9B080000 		.4byte	.LASF99
 1634 0c16 0E       		.byte	0xe
 1635 0c17 5E16     		.2byte	0x165e
 1636 0c19 C00C0000 		.4byte	0xcc0
 1637 0c1d 38       		.byte	0x38
 1638 0c1e 19       		.uleb128 0x19
 1639 0c1f 36080000 		.4byte	.LASF181
 1640 0c23 0E       		.byte	0xe
 1641 0c24 5F16     		.2byte	0x165f
 1642 0c26 FD060000 		.4byte	0x6fd
 1643 0c2a 0001     		.2byte	0x100
 1644 0c2c 19       		.uleb128 0x19
 1645 0c2d 08030000 		.4byte	.LASF182
 1646 0c31 0E       		.byte	0xe
ARM GAS  /tmp/cc1feWkh.s 			page 30


 1647 0c32 6016     		.2byte	0x1660
 1648 0c34 FD060000 		.4byte	0x6fd
 1649 0c38 0401     		.2byte	0x104
 1650 0c3a 19       		.uleb128 0x19
 1651 0c3b 3C010000 		.4byte	.LASF183
 1652 0c3f 0E       		.byte	0xe
 1653 0c40 6116     		.2byte	0x1661
 1654 0c42 FD060000 		.4byte	0x6fd
 1655 0c46 0801     		.2byte	0x108
 1656 0c48 19       		.uleb128 0x19
 1657 0c49 FF070000 		.4byte	.LASF184
 1658 0c4d 0E       		.byte	0xe
 1659 0c4e 6216     		.2byte	0x1662
 1660 0c50 FD060000 		.4byte	0x6fd
 1661 0c54 0C01     		.2byte	0x10c
 1662 0c56 19       		.uleb128 0x19
 1663 0c57 61080000 		.4byte	.LASF185
 1664 0c5b 0E       		.byte	0xe
 1665 0c5c 6316     		.2byte	0x1663
 1666 0c5e FD060000 		.4byte	0x6fd
 1667 0c62 1001     		.2byte	0x110
 1668 0c64 19       		.uleb128 0x19
 1669 0c65 6B030000 		.4byte	.LASF186
 1670 0c69 0E       		.byte	0xe
 1671 0c6a 6416     		.2byte	0x1664
 1672 0c6c FD060000 		.4byte	0x6fd
 1673 0c70 1401     		.2byte	0x114
 1674 0c72 19       		.uleb128 0x19
 1675 0c73 06090000 		.4byte	.LASF187
 1676 0c77 0E       		.byte	0xe
 1677 0c78 6516     		.2byte	0x1665
 1678 0c7a FD060000 		.4byte	0x6fd
 1679 0c7e 1801     		.2byte	0x118
 1680 0c80 19       		.uleb128 0x19
 1681 0c81 9B030000 		.4byte	.LASF188
 1682 0c85 0E       		.byte	0xe
 1683 0c86 6616     		.2byte	0x1666
 1684 0c88 FD060000 		.4byte	0x6fd
 1685 0c8c 1C01     		.2byte	0x11c
 1686 0c8e 19       		.uleb128 0x19
 1687 0c8f 70060000 		.4byte	.LASF189
 1688 0c93 0E       		.byte	0xe
 1689 0c94 6716     		.2byte	0x1667
 1690 0c96 F2060000 		.4byte	0x6f2
 1691 0c9a 2001     		.2byte	0x120
 1692 0c9c 19       		.uleb128 0x19
 1693 0c9d 90000000 		.4byte	.LASF190
 1694 0ca1 0E       		.byte	0xe
 1695 0ca2 6816     		.2byte	0x1668
 1696 0ca4 E7060000 		.4byte	0x6e7
 1697 0ca8 2401     		.2byte	0x124
 1698 0caa 00       		.byte	0
 1699 0cab 0F       		.uleb128 0xf
 1700 0cac 60030000 		.4byte	0x360
 1701 0cb0 10       		.uleb128 0x10
 1702 0cb1 82000000 		.4byte	0x82
 1703 0cb5 C00C0000 		.4byte	0xcc0
ARM GAS  /tmp/cc1feWkh.s 			page 31


 1704 0cb9 11       		.uleb128 0x11
 1705 0cba 59030000 		.4byte	0x359
 1706 0cbe 31       		.byte	0x31
 1707 0cbf 00       		.byte	0
 1708 0cc0 0F       		.uleb128 0xf
 1709 0cc1 B00C0000 		.4byte	0xcb0
 1710 0cc5 1A       		.uleb128 0x1a
 1711 0cc6 54776900 		.ascii	"Twi\000"
 1712 0cca 0E       		.byte	0xe
 1713 0ccb 6916     		.2byte	0x1669
 1714 0ccd 670B0000 		.4byte	0xb67
 1715 0cd1 17       		.uleb128 0x17
 1716 0cd2 2801     		.2byte	0x128
 1717 0cd4 0E       		.byte	0xe
 1718 0cd5 0817     		.2byte	0x1708
 1719 0cd7 48080000 		.4byte	.LASF191
 1720 0cdb EE0D0000 		.4byte	0xdee
 1721 0cdf 18       		.uleb128 0x18
 1722 0ce0 69020000 		.4byte	.LASF192
 1723 0ce4 0E       		.byte	0xe
 1724 0ce5 0917     		.2byte	0x1709
 1725 0ce7 F2060000 		.4byte	0x6f2
 1726 0ceb 00       		.byte	0
 1727 0cec 18       		.uleb128 0x18
 1728 0ced B4090000 		.4byte	.LASF193
 1729 0cf1 0E       		.byte	0xe
 1730 0cf2 0A17     		.2byte	0x170a
 1731 0cf4 FD060000 		.4byte	0x6fd
 1732 0cf8 04       		.byte	0x4
 1733 0cf9 18       		.uleb128 0x18
 1734 0cfa AB000000 		.4byte	.LASF194
 1735 0cfe 0E       		.byte	0xe
 1736 0cff 0B17     		.2byte	0x170b
 1737 0d01 F2060000 		.4byte	0x6f2
 1738 0d05 08       		.byte	0x8
 1739 0d06 18       		.uleb128 0x18
 1740 0d07 6C000000 		.4byte	.LASF195
 1741 0d0b 0E       		.byte	0xe
 1742 0d0c 0C17     		.2byte	0x170c
 1743 0d0e F2060000 		.4byte	0x6f2
 1744 0d12 0C       		.byte	0xc
 1745 0d13 18       		.uleb128 0x18
 1746 0d14 5D030000 		.4byte	.LASF196
 1747 0d18 0E       		.byte	0xe
 1748 0d19 0D17     		.2byte	0x170d
 1749 0d1b E7060000 		.4byte	0x6e7
 1750 0d1f 10       		.byte	0x10
 1751 0d20 18       		.uleb128 0x18
 1752 0d21 99000000 		.4byte	.LASF197
 1753 0d25 0E       		.byte	0xe
 1754 0d26 0E17     		.2byte	0x170e
 1755 0d28 E7060000 		.4byte	0x6e7
 1756 0d2c 14       		.byte	0x14
 1757 0d2d 18       		.uleb128 0x18
 1758 0d2e D60A0000 		.4byte	.LASF198
 1759 0d32 0E       		.byte	0xe
 1760 0d33 0F17     		.2byte	0x170f
ARM GAS  /tmp/cc1feWkh.s 			page 32


 1761 0d35 E7060000 		.4byte	0x6e7
 1762 0d39 18       		.byte	0x18
 1763 0d3a 18       		.uleb128 0x18
 1764 0d3b CD030000 		.4byte	.LASF199
 1765 0d3f 0E       		.byte	0xe
 1766 0d40 1017     		.2byte	0x1710
 1767 0d42 F2060000 		.4byte	0x6f2
 1768 0d46 1C       		.byte	0x1c
 1769 0d47 18       		.uleb128 0x18
 1770 0d48 75080000 		.4byte	.LASF200
 1771 0d4c 0E       		.byte	0xe
 1772 0d4d 1117     		.2byte	0x1711
 1773 0d4f FD060000 		.4byte	0x6fd
 1774 0d53 20       		.byte	0x20
 1775 0d54 18       		.uleb128 0x18
 1776 0d55 91080000 		.4byte	.LASF95
 1777 0d59 0E       		.byte	0xe
 1778 0d5a 1217     		.2byte	0x1712
 1779 0d5c FE0D0000 		.4byte	0xdfe
 1780 0d60 24       		.byte	0x24
 1781 0d61 19       		.uleb128 0x19
 1782 0d62 51020000 		.4byte	.LASF201
 1783 0d66 0E       		.byte	0xe
 1784 0d67 1317     		.2byte	0x1713
 1785 0d69 FD060000 		.4byte	0x6fd
 1786 0d6d 0001     		.2byte	0x100
 1787 0d6f 19       		.uleb128 0x19
 1788 0d70 7B090000 		.4byte	.LASF202
 1789 0d74 0E       		.byte	0xe
 1790 0d75 1417     		.2byte	0x1714
 1791 0d77 FD060000 		.4byte	0x6fd
 1792 0d7b 0401     		.2byte	0x104
 1793 0d7d 19       		.uleb128 0x19
 1794 0d7e 92070000 		.4byte	.LASF203
 1795 0d82 0E       		.byte	0xe
 1796 0d83 1517     		.2byte	0x1715
 1797 0d85 FD060000 		.4byte	0x6fd
 1798 0d89 0801     		.2byte	0x108
 1799 0d8b 19       		.uleb128 0x19
 1800 0d8c 2C020000 		.4byte	.LASF204
 1801 0d90 0E       		.byte	0xe
 1802 0d91 1617     		.2byte	0x1716
 1803 0d93 FD060000 		.4byte	0x6fd
 1804 0d97 0C01     		.2byte	0x10c
 1805 0d99 19       		.uleb128 0x19
 1806 0d9a 45030000 		.4byte	.LASF205
 1807 0d9e 0E       		.byte	0xe
 1808 0d9f 1717     		.2byte	0x1717
 1809 0da1 FD060000 		.4byte	0x6fd
 1810 0da5 1001     		.2byte	0x110
 1811 0da7 19       		.uleb128 0x19
 1812 0da8 000A0000 		.4byte	.LASF206
 1813 0dac 0E       		.byte	0xe
 1814 0dad 1817     		.2byte	0x1718
 1815 0daf FD060000 		.4byte	0x6fd
 1816 0db3 1401     		.2byte	0x114
 1817 0db5 19       		.uleb128 0x19
ARM GAS  /tmp/cc1feWkh.s 			page 33


 1818 0db6 74030000 		.4byte	.LASF207
 1819 0dba 0E       		.byte	0xe
 1820 0dbb 1917     		.2byte	0x1719
 1821 0dbd FD060000 		.4byte	0x6fd
 1822 0dc1 1801     		.2byte	0x118
 1823 0dc3 19       		.uleb128 0x19
 1824 0dc4 250A0000 		.4byte	.LASF208
 1825 0dc8 0E       		.byte	0xe
 1826 0dc9 1A17     		.2byte	0x171a
 1827 0dcb FD060000 		.4byte	0x6fd
 1828 0dcf 1C01     		.2byte	0x11c
 1829 0dd1 19       		.uleb128 0x19
 1830 0dd2 CD000000 		.4byte	.LASF209
 1831 0dd6 0E       		.byte	0xe
 1832 0dd7 1B17     		.2byte	0x171b
 1833 0dd9 F2060000 		.4byte	0x6f2
 1834 0ddd 2001     		.2byte	0x120
 1835 0ddf 19       		.uleb128 0x19
 1836 0de0 37070000 		.4byte	.LASF210
 1837 0de4 0E       		.byte	0xe
 1838 0de5 1C17     		.2byte	0x171c
 1839 0de7 E7060000 		.4byte	0x6e7
 1840 0deb 2401     		.2byte	0x124
 1841 0ded 00       		.byte	0
 1842 0dee 10       		.uleb128 0x10
 1843 0def 82000000 		.4byte	0x82
 1844 0df3 FE0D0000 		.4byte	0xdfe
 1845 0df7 11       		.uleb128 0x11
 1846 0df8 59030000 		.4byte	0x359
 1847 0dfc 36       		.byte	0x36
 1848 0dfd 00       		.byte	0
 1849 0dfe 0F       		.uleb128 0xf
 1850 0dff EE0D0000 		.4byte	0xdee
 1851 0e03 16       		.uleb128 0x16
 1852 0e04 66030000 		.4byte	.LASF211
 1853 0e08 0E       		.byte	0xe
 1854 0e09 1D17     		.2byte	0x171d
 1855 0e0b D10C0000 		.4byte	0xcd1
 1856 0e0f 03       		.uleb128 0x3
 1857 0e10 38030000 		.4byte	.LASF212
 1858 0e14 0F       		.byte	0xf
 1859 0e15 5D       		.byte	0x5d
 1860 0e16 AD000000 		.4byte	0xad
 1861 0e1a 1B       		.uleb128 0x1b
 1862 0e1b 01       		.byte	0x1
 1863 0e1c 10       		.byte	0x10
 1864 0e1d 64       		.byte	0x64
 1865 0e1e D0050000 		.4byte	.LASF260
 1866 0e22 390E0000 		.4byte	0xe39
 1867 0e26 1C       		.uleb128 0x1c
 1868 0e27 3E020000 		.4byte	.LASF213
 1869 0e2b 00       		.sleb128 0
 1870 0e2c 1C       		.uleb128 0x1c
 1871 0e2d 780A0000 		.4byte	.LASF214
 1872 0e31 01       		.sleb128 1
 1873 0e32 1C       		.uleb128 0x1c
 1874 0e33 17090000 		.4byte	.LASF215
ARM GAS  /tmp/cc1feWkh.s 			page 34


 1875 0e37 02       		.sleb128 2
 1876 0e38 00       		.byte	0
 1877 0e39 03       		.uleb128 0x3
 1878 0e3a F3080000 		.4byte	.LASF216
 1879 0e3e 10       		.byte	0x10
 1880 0e3f 68       		.byte	0x68
 1881 0e40 1A0E0000 		.4byte	0xe1a
 1882 0e44 03       		.uleb128 0x3
 1883 0e45 54080000 		.4byte	.LASF217
 1884 0e49 10       		.byte	0x10
 1885 0e4a 6D       		.byte	0x6d
 1886 0e4b 4F0E0000 		.4byte	0xe4f
 1887 0e4f 05       		.uleb128 0x5
 1888 0e50 54080000 		.4byte	.LASF217
 1889 0e54 74       		.byte	0x74
 1890 0e55 10       		.byte	0x10
 1891 0e56 87       		.byte	0x87
 1892 0e57 C60E0000 		.4byte	0xec6
 1893 0e5b 09       		.uleb128 0x9
 1894 0e5c 766D7400 		.ascii	"vmt\000"
 1895 0e60 10       		.byte	0x10
 1896 0e61 89       		.byte	0x89
 1897 0e62 6F0F0000 		.4byte	0xf6f
 1898 0e66 00       		.byte	0
 1899 0e67 08       		.uleb128 0x8
 1900 0e68 8D060000 		.4byte	.LASF218
 1901 0e6c 10       		.byte	0x10
 1902 0e6d 8A       		.byte	0x8a
 1903 0e6e 58040000 		.4byte	0x458
 1904 0e72 04       		.byte	0x4
 1905 0e73 08       		.uleb128 0x8
 1906 0e74 E0020000 		.4byte	.LASF219
 1907 0e78 10       		.byte	0x10
 1908 0e79 8A       		.byte	0x8a
 1909 0e7a C6060000 		.4byte	0x6c6
 1910 0e7e 08       		.byte	0x8
 1911 0e7f 08       		.uleb128 0x8
 1912 0e80 89090000 		.4byte	.LASF220
 1913 0e84 10       		.byte	0x10
 1914 0e85 8A       		.byte	0x8a
 1915 0e86 390E0000 		.4byte	0xe39
 1916 0e8a 0C       		.byte	0xc
 1917 0e8b 08       		.uleb128 0x8
 1918 0e8c A4070000 		.4byte	.LASF221
 1919 0e90 10       		.byte	0x10
 1920 0e91 8A       		.byte	0x8a
 1921 0e92 35050000 		.4byte	0x535
 1922 0e96 10       		.byte	0x10
 1923 0e97 08       		.uleb128 0x8
 1924 0e98 A1010000 		.4byte	.LASF222
 1925 0e9c 10       		.byte	0x10
 1926 0e9d 8A       		.byte	0x8a
 1927 0e9e 40050000 		.4byte	0x540
 1928 0ea2 30       		.byte	0x30
 1929 0ea3 09       		.uleb128 0x9
 1930 0ea4 696200   		.ascii	"ib\000"
 1931 0ea7 10       		.byte	0x10
ARM GAS  /tmp/cc1feWkh.s 			page 35


 1932 0ea8 8A       		.byte	0x8a
 1933 0ea9 7A0F0000 		.4byte	0xf7a
 1934 0ead 50       		.byte	0x50
 1935 0eae 09       		.uleb128 0x9
 1936 0eaf 6F6200   		.ascii	"ob\000"
 1937 0eb2 10       		.byte	0x10
 1938 0eb3 8A       		.byte	0x8a
 1939 0eb4 7A0F0000 		.4byte	0xf7a
 1940 0eb8 60       		.byte	0x60
 1941 0eb9 08       		.uleb128 0x8
 1942 0eba 84090000 		.4byte	.LASF223
 1943 0ebe 10       		.byte	0x10
 1944 0ebf 8A       		.byte	0x8a
 1945 0ec0 8A0F0000 		.4byte	0xf8a
 1946 0ec4 70       		.byte	0x70
 1947 0ec5 00       		.byte	0
 1948 0ec6 0A       		.uleb128 0xa
 1949 0ec7 08       		.byte	0x8
 1950 0ec8 11       		.byte	0x11
 1951 0ec9 58       		.byte	0x58
 1952 0eca B6030000 		.4byte	.LASF224
 1953 0ece EB0E0000 		.4byte	0xeeb
 1954 0ed2 08       		.uleb128 0x8
 1955 0ed3 E6060000 		.4byte	.LASF225
 1956 0ed7 11       		.byte	0x11
 1957 0ed8 5D       		.byte	0x5d
 1958 0ed9 AD000000 		.4byte	0xad
 1959 0edd 00       		.byte	0
 1960 0ede 08       		.uleb128 0x8
 1961 0edf 8A000000 		.4byte	.LASF226
 1962 0ee3 11       		.byte	0x11
 1963 0ee4 62       		.byte	0x62
 1964 0ee5 AD000000 		.4byte	0xad
 1965 0ee9 04       		.byte	0x4
 1966 0eea 00       		.byte	0
 1967 0eeb 03       		.uleb128 0x3
 1968 0eec 4E000000 		.4byte	.LASF227
 1969 0ef0 11       		.byte	0x11
 1970 0ef1 63       		.byte	0x63
 1971 0ef2 C60E0000 		.4byte	0xec6
 1972 0ef6 05       		.uleb128 0x5
 1973 0ef7 1F050000 		.4byte	.LASF228
 1974 0efb 24       		.byte	0x24
 1975 0efc 10       		.byte	0x10
 1976 0efd 7C       		.byte	0x7c
 1977 0efe 6F0F0000 		.4byte	0xf6f
 1978 0f02 08       		.uleb128 0x8
 1979 0f03 84000000 		.4byte	.LASF80
 1980 0f07 10       		.byte	0x10
 1981 0f08 7D       		.byte	0x7d
 1982 0f09 6F050000 		.4byte	0x56f
 1983 0f0d 00       		.byte	0
 1984 0f0e 08       		.uleb128 0x8
 1985 0f0f 9B060000 		.4byte	.LASF81
 1986 0f13 10       		.byte	0x10
 1987 0f14 7D       		.byte	0x7d
 1988 0f15 8E050000 		.4byte	0x58e
ARM GAS  /tmp/cc1feWkh.s 			page 36


 1989 0f19 04       		.byte	0x4
 1990 0f1a 08       		.uleb128 0x8
 1991 0f1b 2A030000 		.4byte	.LASF82
 1992 0f1f 10       		.byte	0x10
 1993 0f20 7D       		.byte	0x7d
 1994 0f21 10060000 		.4byte	0x610
 1995 0f25 08       		.byte	0x8
 1996 0f26 08       		.uleb128 0x8
 1997 0f27 84070000 		.4byte	.LASF83
 1998 0f2b 10       		.byte	0x10
 1999 0f2c 7D       		.byte	0x7d
 2000 0f2d 10060000 		.4byte	0x610
 2001 0f31 0C       		.byte	0xc
 2002 0f32 09       		.uleb128 0x9
 2003 0f33 70757400 		.ascii	"put\000"
 2004 0f37 10       		.byte	0x10
 2005 0f38 7D       		.byte	0x7d
 2006 0f39 2F060000 		.4byte	0x62f
 2007 0f3d 10       		.byte	0x10
 2008 0f3e 09       		.uleb128 0x9
 2009 0f3f 67657400 		.ascii	"get\000"
 2010 0f43 10       		.byte	0x10
 2011 0f44 7D       		.byte	0x7d
 2012 0f45 49060000 		.4byte	0x649
 2013 0f49 14       		.byte	0x14
 2014 0f4a 08       		.uleb128 0x8
 2015 0f4b 5B000000 		.4byte	.LASF84
 2016 0f4f 10       		.byte	0x10
 2017 0f50 7D       		.byte	0x7d
 2018 0f51 6D060000 		.4byte	0x66d
 2019 0f55 18       		.byte	0x18
 2020 0f56 08       		.uleb128 0x8
 2021 0f57 09010000 		.4byte	.LASF85
 2022 0f5b 10       		.byte	0x10
 2023 0f5c 7D       		.byte	0x7d
 2024 0f5d 91060000 		.4byte	0x691
 2025 0f61 1C       		.byte	0x1c
 2026 0f62 08       		.uleb128 0x8
 2027 0f63 AB090000 		.4byte	.LASF229
 2028 0f67 10       		.byte	0x10
 2029 0f68 7D       		.byte	0x7d
 2030 0f69 E1060000 		.4byte	0x6e1
 2031 0f6d 20       		.byte	0x20
 2032 0f6e 00       		.byte	0
 2033 0f6f 0B       		.uleb128 0xb
 2034 0f70 04       		.byte	0x4
 2035 0f71 750F0000 		.4byte	0xf75
 2036 0f75 12       		.uleb128 0x12
 2037 0f76 F60E0000 		.4byte	0xef6
 2038 0f7a 10       		.uleb128 0x10
 2039 0f7b 50000000 		.4byte	0x50
 2040 0f7f 8A0F0000 		.4byte	0xf8a
 2041 0f83 11       		.uleb128 0x11
 2042 0f84 59030000 		.4byte	0x359
 2043 0f88 0F       		.byte	0xf
 2044 0f89 00       		.byte	0
 2045 0f8a 0B       		.uleb128 0xb
ARM GAS  /tmp/cc1feWkh.s 			page 37


 2046 0f8b 04       		.byte	0x4
 2047 0f8c 030E0000 		.4byte	0xe03
 2048 0f90 10       		.uleb128 0x10
 2049 0f91 90000000 		.4byte	0x90
 2050 0f95 A00F0000 		.4byte	0xfa0
 2051 0f99 11       		.uleb128 0x11
 2052 0f9a 59030000 		.4byte	0x359
 2053 0f9e 25       		.byte	0x25
 2054 0f9f 00       		.byte	0
 2055 0fa0 05       		.uleb128 0x5
 2056 0fa1 540A0000 		.4byte	.LASF230
 2057 0fa5 18       		.byte	0x18
 2058 0fa6 12       		.byte	0x12
 2059 0fa7 3C       		.byte	0x3c
 2060 0fa8 D10F0000 		.4byte	0xfd1
 2061 0fac 08       		.uleb128 0x8
 2062 0fad EC040000 		.4byte	.LASF231
 2063 0fb1 12       		.byte	0x12
 2064 0fb2 3F       		.byte	0x3f
 2065 0fb3 4F030000 		.4byte	0x34f
 2066 0fb7 00       		.byte	0
 2067 0fb8 08       		.uleb128 0x8
 2068 0fb9 32090000 		.4byte	.LASF232
 2069 0fbd 12       		.byte	0x12
 2070 0fbe 41       		.byte	0x41
 2071 0fbf B1020000 		.4byte	0x2b1
 2072 0fc3 04       		.byte	0x4
 2073 0fc4 08       		.uleb128 0x8
 2074 0fc5 19030000 		.4byte	.LASF233
 2075 0fc9 12       		.byte	0x12
 2076 0fca 43       		.byte	0x43
 2077 0fcb 80030000 		.4byte	0x380
 2078 0fcf 08       		.byte	0x8
 2079 0fd0 00       		.byte	0
 2080 0fd1 03       		.uleb128 0x3
 2081 0fd2 41070000 		.4byte	.LASF234
 2082 0fd6 12       		.byte	0x12
 2083 0fd7 44       		.byte	0x44
 2084 0fd8 A00F0000 		.4byte	0xfa0
 2085 0fdc 05       		.uleb128 0x5
 2086 0fdd 4E080000 		.4byte	.LASF235
 2087 0fe1 08       		.byte	0x8
 2088 0fe2 13       		.byte	0x13
 2089 0fe3 3B       		.byte	0x3b
 2090 0fe4 01100000 		.4byte	0x1001
 2091 0fe8 08       		.uleb128 0x8
 2092 0fe9 27060000 		.4byte	.LASF236
 2093 0fed 13       		.byte	0x13
 2094 0fee 3E       		.byte	0x3e
 2095 0fef 01100000 		.4byte	0x1001
 2096 0ff3 00       		.byte	0
 2097 0ff4 08       		.uleb128 0x8
 2098 0ff5 5A050000 		.4byte	.LASF237
 2099 0ff9 13       		.byte	0x13
 2100 0ffa 40       		.byte	0x40
 2101 0ffb 07100000 		.4byte	0x1007
 2102 0fff 04       		.byte	0x4
ARM GAS  /tmp/cc1feWkh.s 			page 38


 2103 1000 00       		.byte	0
 2104 1001 0B       		.uleb128 0xb
 2105 1002 04       		.byte	0x4
 2106 1003 C50C0000 		.4byte	0xcc5
 2107 1007 0B       		.uleb128 0xb
 2108 1008 04       		.byte	0x4
 2109 1009 D10F0000 		.4byte	0xfd1
 2110 100d 03       		.uleb128 0x3
 2111 100e A50A0000 		.4byte	.LASF238
 2112 1012 13       		.byte	0x13
 2113 1013 41       		.byte	0x41
 2114 1014 DC0F0000 		.4byte	0xfdc
 2115 1018 1D       		.uleb128 0x1d
 2116 1019 4B010000 		.4byte	.LASF261
 2117 101d 14       		.byte	0x14
 2118 101e 1C       		.byte	0x1c
 2119 101f 19110000 		.4byte	0x1119
 2120 1023 1E       		.uleb128 0x1e
 2121 1024 49324300 		.ascii	"I2C\000"
 2122 1028 08       		.byte	0x8
 2123 1029 14       		.byte	0x14
 2124 102a 1E       		.byte	0x1e
 2125 102b 08       		.uleb128 0x8
 2126 102c 21060000 		.4byte	.LASF239
 2127 1030 14       		.byte	0x14
 2128 1031 2C       		.byte	0x2c
 2129 1032 0D100000 		.4byte	0x100d
 2130 1036 00       		.byte	0
 2131 1037 1F       		.uleb128 0x1f
 2132 1038 05070000 		.4byte	.LASF240
 2133 103c 14       		.byte	0x14
 2134 103d 20       		.byte	0x20
 2135 103e F3040000 		.4byte	.LASF242
 2136 1042 01       		.byte	0x1
 2137 1043 4B100000 		.4byte	0x104b
 2138 1047 51100000 		.4byte	0x1051
 2139 104b 20       		.uleb128 0x20
 2140 104c 19110000 		.4byte	0x1119
 2141 1050 00       		.byte	0
 2142 1051 1F       		.uleb128 0x1f
 2143 1052 62010000 		.4byte	.LASF241
 2144 1056 14       		.byte	0x14
 2145 1057 22       		.byte	0x22
 2146 1058 18080000 		.4byte	.LASF243
 2147 105c 01       		.byte	0x1
 2148 105d 65100000 		.4byte	0x1065
 2149 1061 7A100000 		.4byte	0x107a
 2150 1065 20       		.uleb128 0x20
 2151 1066 19110000 		.4byte	0x1119
 2152 106a 14       		.uleb128 0x14
 2153 106b 97000000 		.4byte	0x97
 2154 106f 14       		.uleb128 0x14
 2155 1070 97000000 		.4byte	0x97
 2156 1074 14       		.uleb128 0x14
 2157 1075 97000000 		.4byte	0x97
 2158 1079 00       		.byte	0
 2159 107a 1F       		.uleb128 0x1f
ARM GAS  /tmp/cc1feWkh.s 			page 39


 2160 107b 62010000 		.4byte	.LASF241
 2161 107f 14       		.byte	0x14
 2162 1080 24       		.byte	0x24
 2163 1081 1A070000 		.4byte	.LASF244
 2164 1085 01       		.byte	0x1
 2165 1086 8E100000 		.4byte	0x108e
 2166 108a 9E100000 		.4byte	0x109e
 2167 108e 20       		.uleb128 0x20
 2168 108f 19110000 		.4byte	0x1119
 2169 1093 14       		.uleb128 0x14
 2170 1094 97000000 		.4byte	0x97
 2171 1098 14       		.uleb128 0x14
 2172 1099 97000000 		.4byte	0x97
 2173 109d 00       		.byte	0
 2174 109e 21       		.uleb128 0x21
 2175 109f AD060000 		.4byte	.LASF245
 2176 10a3 14       		.byte	0x14
 2177 10a4 26       		.byte	0x26
 2178 10a5 FA050000 		.4byte	.LASF246
 2179 10a9 97000000 		.4byte	0x97
 2180 10ad 01       		.byte	0x1
 2181 10ae B6100000 		.4byte	0x10b6
 2182 10b2 C6100000 		.4byte	0x10c6
 2183 10b6 20       		.uleb128 0x20
 2184 10b7 19110000 		.4byte	0x1119
 2185 10bb 14       		.uleb128 0x14
 2186 10bc 97000000 		.4byte	0x97
 2187 10c0 14       		.uleb128 0x14
 2188 10c1 97000000 		.4byte	0x97
 2189 10c5 00       		.byte	0
 2190 10c6 21       		.uleb128 0x21
 2191 10c7 AD060000 		.4byte	.LASF245
 2192 10cb 14       		.byte	0x14
 2193 10cc 27       		.byte	0x27
 2194 10cd 44090000 		.4byte	.LASF247
 2195 10d1 97000000 		.4byte	0x97
 2196 10d5 01       		.byte	0x1
 2197 10d6 DE100000 		.4byte	0x10de
 2198 10da E9100000 		.4byte	0x10e9
 2199 10de 20       		.uleb128 0x20
 2200 10df 19110000 		.4byte	0x1119
 2201 10e3 14       		.uleb128 0x14
 2202 10e4 97000000 		.4byte	0x97
 2203 10e8 00       		.byte	0
 2204 10e9 22       		.uleb128 0x22
 2205 10ea B10A0000 		.4byte	.LASF248
 2206 10ee 14       		.byte	0x14
 2207 10ef 28       		.byte	0x28
 2208 10f0 64070000 		.4byte	.LASF249
 2209 10f4 97000000 		.4byte	0x97
 2210 10f8 01       		.byte	0x1
 2211 10f9 FD100000 		.4byte	0x10fd
 2212 10fd 20       		.uleb128 0x20
 2213 10fe 19110000 		.4byte	0x1119
 2214 1102 14       		.uleb128 0x14
 2215 1103 97000000 		.4byte	0x97
 2216 1107 14       		.uleb128 0x14
ARM GAS  /tmp/cc1feWkh.s 			page 40


 2217 1108 97000000 		.4byte	0x97
 2218 110c 14       		.uleb128 0x14
 2219 110d 2F050000 		.4byte	0x52f
 2220 1111 14       		.uleb128 0x14
 2221 1112 97000000 		.4byte	0x97
 2222 1116 00       		.byte	0
 2223 1117 00       		.byte	0
 2224 1118 00       		.byte	0
 2225 1119 0B       		.uleb128 0xb
 2226 111a 04       		.byte	0x4
 2227 111b 23100000 		.4byte	0x1023
 2228 111f 23       		.uleb128 0x23
 2229 1120 0B000000 		.4byte	.LASF262
 2230 1124 01       		.byte	0x1
 2231 1125 15       		.byte	0x15
 2232 1126 FA000000 		.4byte	0xfa
 2233 112a 00000000 		.4byte	.LFB36
 2234 112e 20000000 		.4byte	.LFE36-.LFB36
 2235 1132 01       		.uleb128 0x1
 2236 1133 9C       		.byte	0x9c
 2237 1134 6C110000 		.4byte	0x116c
 2238 1138 24       		.uleb128 0x24
 2239 1139 61726700 		.ascii	"arg\000"
 2240 113d 01       		.byte	0x1
 2241 113e 15       		.byte	0x15
 2242 113f B1020000 		.4byte	0x2b1
 2243 1143 00000000 		.4byte	.LLST0
 2244 1147 25       		.uleb128 0x25
 2245 1148 12000000 		.4byte	.LVL2
 2246 114c 92120000 		.4byte	0x1292
 2247 1150 5B110000 		.4byte	0x115b
 2248 1154 26       		.uleb128 0x26
 2249 1155 01       		.uleb128 0x1
 2250 1156 50       		.byte	0x50
 2251 1157 02       		.uleb128 0x2
 2252 1158 08       		.byte	0x8
 2253 1159 32       		.byte	0x32
 2254 115a 00       		.byte	0
 2255 115b 27       		.uleb128 0x27
 2256 115c 1A000000 		.4byte	.LVL3
 2257 1160 92120000 		.4byte	0x1292
 2258 1164 26       		.uleb128 0x26
 2259 1165 01       		.uleb128 0x1
 2260 1166 50       		.byte	0x50
 2261 1167 02       		.uleb128 0x2
 2262 1168 08       		.byte	0x8
 2263 1169 32       		.byte	0x32
 2264 116a 00       		.byte	0
 2265 116b 00       		.byte	0
 2266 116c 28       		.uleb128 0x28
 2267 116d 92010000 		.4byte	.LASF250
 2268 1171 01       		.byte	0x1
 2269 1172 24       		.byte	0x24
 2270 1173 25000000 		.4byte	0x25
 2271 1177 00000000 		.4byte	.LFB37
 2272 117b 64000000 		.4byte	.LFE37-.LFB37
 2273 117f 01       		.uleb128 0x1
ARM GAS  /tmp/cc1feWkh.s 			page 41


 2274 1180 9C       		.byte	0x9c
 2275 1181 54120000 		.4byte	0x1254
 2276 1185 29       		.uleb128 0x29
 2277 1186 08000000 		.4byte	.LVL4
 2278 118a A4120000 		.4byte	0x12a4
 2279 118e 29       		.uleb128 0x29
 2280 118f 0C000000 		.4byte	.LVL5
 2281 1193 AB120000 		.4byte	0x12ab
 2282 1197 25       		.uleb128 0x25
 2283 1198 12000000 		.4byte	.LVL6
 2284 119c 37100000 		.4byte	0x1037
 2285 11a0 AE110000 		.4byte	0x11ae
 2286 11a4 26       		.uleb128 0x26
 2287 11a5 01       		.uleb128 0x1
 2288 11a6 50       		.byte	0x50
 2289 11a7 05       		.uleb128 0x5
 2290 11a8 03       		.byte	0x3
 2291 11a9 00000000 		.4byte	.LANCHOR0
 2292 11ad 00       		.byte	0
 2293 11ae 25       		.uleb128 0x25
 2294 11af 1A000000 		.4byte	.LVL7
 2295 11b3 B2120000 		.4byte	0x12b2
 2296 11b7 C1110000 		.4byte	0x11c1
 2297 11bb 26       		.uleb128 0x26
 2298 11bc 01       		.uleb128 0x1
 2299 11bd 51       		.byte	0x51
 2300 11be 01       		.uleb128 0x1
 2301 11bf 30       		.byte	0x30
 2302 11c0 00       		.byte	0
 2303 11c1 25       		.uleb128 0x25
 2304 11c2 2C000000 		.4byte	.LVL8
 2305 11c6 DA120000 		.4byte	0x12da
 2306 11ca F4110000 		.4byte	0x11f4
 2307 11ce 26       		.uleb128 0x26
 2308 11cf 01       		.uleb128 0x1
 2309 11d0 53       		.byte	0x53
 2310 11d1 05       		.uleb128 0x5
 2311 11d2 03       		.byte	0x3
 2312 11d3 00000000 		.4byte	_ZL7Thread1Pv
 2313 11d7 26       		.uleb128 0x26
 2314 11d8 01       		.uleb128 0x1
 2315 11d9 52       		.byte	0x52
 2316 11da 02       		.uleb128 0x2
 2317 11db 08       		.byte	0x8
 2318 11dc 40       		.byte	0x40
 2319 11dd 26       		.uleb128 0x26
 2320 11de 01       		.uleb128 0x1
 2321 11df 51       		.byte	0x51
 2322 11e0 03       		.uleb128 0x3
 2323 11e1 0A       		.byte	0xa
 2324 11e2 3001     		.2byte	0x130
 2325 11e4 26       		.uleb128 0x26
 2326 11e5 01       		.uleb128 0x1
 2327 11e6 50       		.byte	0x50
 2328 11e7 05       		.uleb128 0x5
 2329 11e8 03       		.byte	0x3
 2330 11e9 00000000 		.4byte	.LANCHOR1
ARM GAS  /tmp/cc1feWkh.s 			page 42


 2331 11ed 26       		.uleb128 0x26
 2332 11ee 02       		.uleb128 0x2
 2333 11ef 7D       		.byte	0x7d
 2334 11f0 00       		.sleb128 0
 2335 11f1 01       		.uleb128 0x1
 2336 11f2 30       		.byte	0x30
 2337 11f3 00       		.byte	0
 2338 11f4 25       		.uleb128 0x25
 2339 11f5 34000000 		.4byte	.LVL9
 2340 11f9 04130000 		.4byte	0x1304
 2341 11fd 0B120000 		.4byte	0x120b
 2342 1201 26       		.uleb128 0x26
 2343 1202 01       		.uleb128 0x1
 2344 1203 51       		.byte	0x51
 2345 1204 05       		.uleb128 0x5
 2346 1205 03       		.byte	0x3
 2347 1206 00000000 		.4byte	.LC0
 2348 120a 00       		.byte	0
 2349 120b 25       		.uleb128 0x25
 2350 120c 3C000000 		.4byte	.LVL10
 2351 1210 92120000 		.4byte	0x1292
 2352 1214 20120000 		.4byte	0x1220
 2353 1218 26       		.uleb128 0x26
 2354 1219 01       		.uleb128 0x1
 2355 121a 50       		.byte	0x50
 2356 121b 03       		.uleb128 0x3
 2357 121c 0A       		.byte	0xa
 2358 121d E803     		.2byte	0x3e8
 2359 121f 00       		.byte	0
 2360 1220 25       		.uleb128 0x25
 2361 1221 46000000 		.4byte	.LVL11
 2362 1225 7A100000 		.4byte	0x107a
 2363 1229 42120000 		.4byte	0x1242
 2364 122d 26       		.uleb128 0x26
 2365 122e 01       		.uleb128 0x1
 2366 122f 52       		.byte	0x52
 2367 1230 02       		.uleb128 0x2
 2368 1231 08       		.byte	0x8
 2369 1232 50       		.byte	0x50
 2370 1233 26       		.uleb128 0x26
 2371 1234 01       		.uleb128 0x1
 2372 1235 51       		.byte	0x51
 2373 1236 01       		.uleb128 0x1
 2374 1237 31       		.byte	0x31
 2375 1238 26       		.uleb128 0x26
 2376 1239 01       		.uleb128 0x1
 2377 123a 50       		.byte	0x50
 2378 123b 05       		.uleb128 0x5
 2379 123c 03       		.byte	0x3
 2380 123d 00000000 		.4byte	.LANCHOR0
 2381 1241 00       		.byte	0
 2382 1242 27       		.uleb128 0x27
 2383 1243 4E000000 		.4byte	.LVL12
 2384 1247 92120000 		.4byte	0x1292
 2385 124b 26       		.uleb128 0x26
 2386 124c 01       		.uleb128 0x1
 2387 124d 50       		.byte	0x50
ARM GAS  /tmp/cc1feWkh.s 			page 43


 2388 124e 03       		.uleb128 0x3
 2389 124f 0A       		.byte	0xa
 2390 1250 E803     		.2byte	0x3e8
 2391 1252 00       		.byte	0
 2392 1253 00       		.byte	0
 2393 1254 2A       		.uleb128 0x2a
 2394 1255 47060000 		.4byte	.LASF251
 2395 1259 18       		.byte	0x18
 2396 125a CE06     		.2byte	0x6ce
 2397 125c 60120000 		.4byte	0x1260
 2398 1260 0F       		.uleb128 0xf
 2399 1261 25000000 		.4byte	0x25
 2400 1265 2B       		.uleb128 0x2b
 2401 1266 53443200 		.ascii	"SD2\000"
 2402 126a 11       		.byte	0x11
 2403 126b 85       		.byte	0x85
 2404 126c 440E0000 		.4byte	0xe44
 2405 1270 2C       		.uleb128 0x2c
 2406 1271 69326300 		.ascii	"i2c\000"
 2407 1275 01       		.byte	0x1
 2408 1276 10       		.byte	0x10
 2409 1277 23100000 		.4byte	0x1023
 2410 127b 05       		.uleb128 0x5
 2411 127c 03       		.byte	0x3
 2412 127d 00000000 		.4byte	i2c
 2413 1281 2D       		.uleb128 0x2d
 2414 1282 DF0A0000 		.4byte	.LASF263
 2415 1286 01       		.byte	0x1
 2416 1287 14       		.byte	0x14
 2417 1288 900F0000 		.4byte	0xf90
 2418 128c 05       		.uleb128 0x5
 2419 128d 03       		.byte	0x3
 2420 128e 00000000 		.4byte	_ZL9waThread1
 2421 1292 2E       		.uleb128 0x2e
 2422 1293 87030000 		.4byte	.LASF254
 2423 1297 08       		.byte	0x8
 2424 1298 6901     		.2byte	0x169
 2425 129a A4120000 		.4byte	0x12a4
 2426 129e 14       		.uleb128 0x14
 2427 129f 10010000 		.4byte	0x110
 2428 12a3 00       		.byte	0
 2429 12a4 2F       		.uleb128 0x2f
 2430 12a5 52050000 		.4byte	.LASF252
 2431 12a9 15       		.byte	0x15
 2432 12aa A4       		.byte	0xa4
 2433 12ab 2F       		.uleb128 0x2f
 2434 12ac ED090000 		.4byte	.LASF253
 2435 12b0 16       		.byte	0x16
 2436 12b1 F6       		.byte	0xf6
 2437 12b2 2E       		.uleb128 0x2e
 2438 12b3 2F050000 		.4byte	.LASF255
 2439 12b7 10       		.byte	0x10
 2440 12b8 3901     		.2byte	0x139
 2441 12ba C9120000 		.4byte	0x12c9
 2442 12be 14       		.uleb128 0x14
 2443 12bf C9120000 		.4byte	0x12c9
 2444 12c3 14       		.uleb128 0x14
ARM GAS  /tmp/cc1feWkh.s 			page 44


 2445 12c4 CF120000 		.4byte	0x12cf
 2446 12c8 00       		.byte	0
 2447 12c9 0B       		.uleb128 0xb
 2448 12ca 04       		.byte	0x4
 2449 12cb 440E0000 		.4byte	0xe44
 2450 12cf 0B       		.uleb128 0xb
 2451 12d0 04       		.byte	0x4
 2452 12d1 D5120000 		.4byte	0x12d5
 2453 12d5 12       		.uleb128 0x12
 2454 12d6 EB0E0000 		.4byte	0xeeb
 2455 12da 30       		.uleb128 0x30
 2456 12db 40050000 		.4byte	.LASF264
 2457 12df 08       		.byte	0x8
 2458 12e0 6401     		.2byte	0x164
 2459 12e2 71020000 		.4byte	0x271
 2460 12e6 04130000 		.4byte	0x1304
 2461 12ea 14       		.uleb128 0x14
 2462 12eb B1020000 		.4byte	0x2b1
 2463 12ef 14       		.uleb128 0x14
 2464 12f0 2C000000 		.4byte	0x2c
 2465 12f4 14       		.uleb128 0x14
 2466 12f5 EF000000 		.4byte	0xef
 2467 12f9 14       		.uleb128 0x14
 2468 12fa 81040000 		.4byte	0x481
 2469 12fe 14       		.uleb128 0x14
 2470 12ff B1020000 		.4byte	0x2b1
 2471 1303 00       		.byte	0
 2472 1304 31       		.uleb128 0x31
 2473 1305 7E030000 		.4byte	.LASF256
 2474 1309 17       		.byte	0x17
 2475 130a 2A       		.byte	0x2a
 2476 130b 1B130000 		.4byte	0x131b
 2477 130f 14       		.uleb128 0x14
 2478 1310 1B130000 		.4byte	0x131b
 2479 1314 14       		.uleb128 0x14
 2480 1315 69040000 		.4byte	0x469
 2481 1319 32       		.uleb128 0x32
 2482 131a 00       		.byte	0
 2483 131b 0B       		.uleb128 0xb
 2484 131c 04       		.byte	0x4
 2485 131d BB060000 		.4byte	0x6bb
 2486 1321 00       		.byte	0
 2487              		.section	.debug_abbrev,"",%progbits
 2488              	.Ldebug_abbrev0:
 2489 0000 01       		.uleb128 0x1
 2490 0001 11       		.uleb128 0x11
 2491 0002 01       		.byte	0x1
 2492 0003 25       		.uleb128 0x25
 2493 0004 0E       		.uleb128 0xe
 2494 0005 13       		.uleb128 0x13
 2495 0006 0B       		.uleb128 0xb
 2496 0007 03       		.uleb128 0x3
 2497 0008 0E       		.uleb128 0xe
 2498 0009 1B       		.uleb128 0x1b
 2499 000a 0E       		.uleb128 0xe
 2500 000b 55       		.uleb128 0x55
 2501 000c 17       		.uleb128 0x17
ARM GAS  /tmp/cc1feWkh.s 			page 45


 2502 000d 11       		.uleb128 0x11
 2503 000e 01       		.uleb128 0x1
 2504 000f 10       		.uleb128 0x10
 2505 0010 17       		.uleb128 0x17
 2506 0011 00       		.byte	0
 2507 0012 00       		.byte	0
 2508 0013 02       		.uleb128 0x2
 2509 0014 24       		.uleb128 0x24
 2510 0015 00       		.byte	0
 2511 0016 0B       		.uleb128 0xb
 2512 0017 0B       		.uleb128 0xb
 2513 0018 3E       		.uleb128 0x3e
 2514 0019 0B       		.uleb128 0xb
 2515 001a 03       		.uleb128 0x3
 2516 001b 08       		.uleb128 0x8
 2517 001c 00       		.byte	0
 2518 001d 00       		.byte	0
 2519 001e 03       		.uleb128 0x3
 2520 001f 16       		.uleb128 0x16
 2521 0020 00       		.byte	0
 2522 0021 03       		.uleb128 0x3
 2523 0022 0E       		.uleb128 0xe
 2524 0023 3A       		.uleb128 0x3a
 2525 0024 0B       		.uleb128 0xb
 2526 0025 3B       		.uleb128 0x3b
 2527 0026 0B       		.uleb128 0xb
 2528 0027 49       		.uleb128 0x49
 2529 0028 13       		.uleb128 0x13
 2530 0029 00       		.byte	0
 2531 002a 00       		.byte	0
 2532 002b 04       		.uleb128 0x4
 2533 002c 24       		.uleb128 0x24
 2534 002d 00       		.byte	0
 2535 002e 0B       		.uleb128 0xb
 2536 002f 0B       		.uleb128 0xb
 2537 0030 3E       		.uleb128 0x3e
 2538 0031 0B       		.uleb128 0xb
 2539 0032 03       		.uleb128 0x3
 2540 0033 0E       		.uleb128 0xe
 2541 0034 00       		.byte	0
 2542 0035 00       		.byte	0
 2543 0036 05       		.uleb128 0x5
 2544 0037 13       		.uleb128 0x13
 2545 0038 01       		.byte	0x1
 2546 0039 03       		.uleb128 0x3
 2547 003a 0E       		.uleb128 0xe
 2548 003b 0B       		.uleb128 0xb
 2549 003c 0B       		.uleb128 0xb
 2550 003d 3A       		.uleb128 0x3a
 2551 003e 0B       		.uleb128 0xb
 2552 003f 3B       		.uleb128 0x3b
 2553 0040 0B       		.uleb128 0xb
 2554 0041 01       		.uleb128 0x1
 2555 0042 13       		.uleb128 0x13
 2556 0043 00       		.byte	0
 2557 0044 00       		.byte	0
 2558 0045 06       		.uleb128 0x6
ARM GAS  /tmp/cc1feWkh.s 			page 46


 2559 0046 17       		.uleb128 0x17
 2560 0047 01       		.byte	0x1
 2561 0048 0B       		.uleb128 0xb
 2562 0049 0B       		.uleb128 0xb
 2563 004a 3A       		.uleb128 0x3a
 2564 004b 0B       		.uleb128 0xb
 2565 004c 3B       		.uleb128 0x3b
 2566 004d 0B       		.uleb128 0xb
 2567 004e 01       		.uleb128 0x1
 2568 004f 13       		.uleb128 0x13
 2569 0050 00       		.byte	0
 2570 0051 00       		.byte	0
 2571 0052 07       		.uleb128 0x7
 2572 0053 0D       		.uleb128 0xd
 2573 0054 00       		.byte	0
 2574 0055 03       		.uleb128 0x3
 2575 0056 0E       		.uleb128 0xe
 2576 0057 3A       		.uleb128 0x3a
 2577 0058 0B       		.uleb128 0xb
 2578 0059 3B       		.uleb128 0x3b
 2579 005a 0B       		.uleb128 0xb
 2580 005b 49       		.uleb128 0x49
 2581 005c 13       		.uleb128 0x13
 2582 005d 00       		.byte	0
 2583 005e 00       		.byte	0
 2584 005f 08       		.uleb128 0x8
 2585 0060 0D       		.uleb128 0xd
 2586 0061 00       		.byte	0
 2587 0062 03       		.uleb128 0x3
 2588 0063 0E       		.uleb128 0xe
 2589 0064 3A       		.uleb128 0x3a
 2590 0065 0B       		.uleb128 0xb
 2591 0066 3B       		.uleb128 0x3b
 2592 0067 0B       		.uleb128 0xb
 2593 0068 49       		.uleb128 0x49
 2594 0069 13       		.uleb128 0x13
 2595 006a 38       		.uleb128 0x38
 2596 006b 0B       		.uleb128 0xb
 2597 006c 00       		.byte	0
 2598 006d 00       		.byte	0
 2599 006e 09       		.uleb128 0x9
 2600 006f 0D       		.uleb128 0xd
 2601 0070 00       		.byte	0
 2602 0071 03       		.uleb128 0x3
 2603 0072 08       		.uleb128 0x8
 2604 0073 3A       		.uleb128 0x3a
 2605 0074 0B       		.uleb128 0xb
 2606 0075 3B       		.uleb128 0x3b
 2607 0076 0B       		.uleb128 0xb
 2608 0077 49       		.uleb128 0x49
 2609 0078 13       		.uleb128 0x13
 2610 0079 38       		.uleb128 0x38
 2611 007a 0B       		.uleb128 0xb
 2612 007b 00       		.byte	0
 2613 007c 00       		.byte	0
 2614 007d 0A       		.uleb128 0xa
 2615 007e 13       		.uleb128 0x13
ARM GAS  /tmp/cc1feWkh.s 			page 47


 2616 007f 01       		.byte	0x1
 2617 0080 0B       		.uleb128 0xb
 2618 0081 0B       		.uleb128 0xb
 2619 0082 3A       		.uleb128 0x3a
 2620 0083 0B       		.uleb128 0xb
 2621 0084 3B       		.uleb128 0x3b
 2622 0085 0B       		.uleb128 0xb
 2623 0086 6E       		.uleb128 0x6e
 2624 0087 0E       		.uleb128 0xe
 2625 0088 01       		.uleb128 0x1
 2626 0089 13       		.uleb128 0x13
 2627 008a 00       		.byte	0
 2628 008b 00       		.byte	0
 2629 008c 0B       		.uleb128 0xb
 2630 008d 0F       		.uleb128 0xf
 2631 008e 00       		.byte	0
 2632 008f 0B       		.uleb128 0xb
 2633 0090 0B       		.uleb128 0xb
 2634 0091 49       		.uleb128 0x49
 2635 0092 13       		.uleb128 0x13
 2636 0093 00       		.byte	0
 2637 0094 00       		.byte	0
 2638 0095 0C       		.uleb128 0xc
 2639 0096 0F       		.uleb128 0xf
 2640 0097 00       		.byte	0
 2641 0098 0B       		.uleb128 0xb
 2642 0099 0B       		.uleb128 0xb
 2643 009a 00       		.byte	0
 2644 009b 00       		.byte	0
 2645 009c 0D       		.uleb128 0xd
 2646 009d 0D       		.uleb128 0xd
 2647 009e 00       		.byte	0
 2648 009f 03       		.uleb128 0x3
 2649 00a0 08       		.uleb128 0x8
 2650 00a1 3A       		.uleb128 0x3a
 2651 00a2 0B       		.uleb128 0xb
 2652 00a3 3B       		.uleb128 0x3b
 2653 00a4 05       		.uleb128 0x5
 2654 00a5 49       		.uleb128 0x49
 2655 00a6 13       		.uleb128 0x13
 2656 00a7 38       		.uleb128 0x38
 2657 00a8 0B       		.uleb128 0xb
 2658 00a9 00       		.byte	0
 2659 00aa 00       		.byte	0
 2660 00ab 0E       		.uleb128 0xe
 2661 00ac 13       		.uleb128 0x13
 2662 00ad 01       		.byte	0x1
 2663 00ae 03       		.uleb128 0x3
 2664 00af 0E       		.uleb128 0xe
 2665 00b0 0B       		.uleb128 0xb
 2666 00b1 0B       		.uleb128 0xb
 2667 00b2 3A       		.uleb128 0x3a
 2668 00b3 0B       		.uleb128 0xb
 2669 00b4 3B       		.uleb128 0x3b
 2670 00b5 05       		.uleb128 0x5
 2671 00b6 01       		.uleb128 0x1
 2672 00b7 13       		.uleb128 0x13
ARM GAS  /tmp/cc1feWkh.s 			page 48


 2673 00b8 00       		.byte	0
 2674 00b9 00       		.byte	0
 2675 00ba 0F       		.uleb128 0xf
 2676 00bb 35       		.uleb128 0x35
 2677 00bc 00       		.byte	0
 2678 00bd 49       		.uleb128 0x49
 2679 00be 13       		.uleb128 0x13
 2680 00bf 00       		.byte	0
 2681 00c0 00       		.byte	0
 2682 00c1 10       		.uleb128 0x10
 2683 00c2 01       		.uleb128 0x1
 2684 00c3 01       		.byte	0x1
 2685 00c4 49       		.uleb128 0x49
 2686 00c5 13       		.uleb128 0x13
 2687 00c6 01       		.uleb128 0x1
 2688 00c7 13       		.uleb128 0x13
 2689 00c8 00       		.byte	0
 2690 00c9 00       		.byte	0
 2691 00ca 11       		.uleb128 0x11
 2692 00cb 21       		.uleb128 0x21
 2693 00cc 00       		.byte	0
 2694 00cd 49       		.uleb128 0x49
 2695 00ce 13       		.uleb128 0x13
 2696 00cf 2F       		.uleb128 0x2f
 2697 00d0 0B       		.uleb128 0xb
 2698 00d1 00       		.byte	0
 2699 00d2 00       		.byte	0
 2700 00d3 12       		.uleb128 0x12
 2701 00d4 26       		.uleb128 0x26
 2702 00d5 00       		.byte	0
 2703 00d6 49       		.uleb128 0x49
 2704 00d7 13       		.uleb128 0x13
 2705 00d8 00       		.byte	0
 2706 00d9 00       		.byte	0
 2707 00da 13       		.uleb128 0x13
 2708 00db 15       		.uleb128 0x15
 2709 00dc 01       		.byte	0x1
 2710 00dd 49       		.uleb128 0x49
 2711 00de 13       		.uleb128 0x13
 2712 00df 01       		.uleb128 0x1
 2713 00e0 13       		.uleb128 0x13
 2714 00e1 00       		.byte	0
 2715 00e2 00       		.byte	0
 2716 00e3 14       		.uleb128 0x14
 2717 00e4 05       		.uleb128 0x5
 2718 00e5 00       		.byte	0
 2719 00e6 49       		.uleb128 0x49
 2720 00e7 13       		.uleb128 0x13
 2721 00e8 00       		.byte	0
 2722 00e9 00       		.byte	0
 2723 00ea 15       		.uleb128 0x15
 2724 00eb 15       		.uleb128 0x15
 2725 00ec 01       		.byte	0x1
 2726 00ed 01       		.uleb128 0x1
 2727 00ee 13       		.uleb128 0x13
 2728 00ef 00       		.byte	0
 2729 00f0 00       		.byte	0
ARM GAS  /tmp/cc1feWkh.s 			page 49


 2730 00f1 16       		.uleb128 0x16
 2731 00f2 16       		.uleb128 0x16
 2732 00f3 00       		.byte	0
 2733 00f4 03       		.uleb128 0x3
 2734 00f5 0E       		.uleb128 0xe
 2735 00f6 3A       		.uleb128 0x3a
 2736 00f7 0B       		.uleb128 0xb
 2737 00f8 3B       		.uleb128 0x3b
 2738 00f9 05       		.uleb128 0x5
 2739 00fa 49       		.uleb128 0x49
 2740 00fb 13       		.uleb128 0x13
 2741 00fc 00       		.byte	0
 2742 00fd 00       		.byte	0
 2743 00fe 17       		.uleb128 0x17
 2744 00ff 13       		.uleb128 0x13
 2745 0100 01       		.byte	0x1
 2746 0101 0B       		.uleb128 0xb
 2747 0102 05       		.uleb128 0x5
 2748 0103 3A       		.uleb128 0x3a
 2749 0104 0B       		.uleb128 0xb
 2750 0105 3B       		.uleb128 0x3b
 2751 0106 05       		.uleb128 0x5
 2752 0107 6E       		.uleb128 0x6e
 2753 0108 0E       		.uleb128 0xe
 2754 0109 01       		.uleb128 0x1
 2755 010a 13       		.uleb128 0x13
 2756 010b 00       		.byte	0
 2757 010c 00       		.byte	0
 2758 010d 18       		.uleb128 0x18
 2759 010e 0D       		.uleb128 0xd
 2760 010f 00       		.byte	0
 2761 0110 03       		.uleb128 0x3
 2762 0111 0E       		.uleb128 0xe
 2763 0112 3A       		.uleb128 0x3a
 2764 0113 0B       		.uleb128 0xb
 2765 0114 3B       		.uleb128 0x3b
 2766 0115 05       		.uleb128 0x5
 2767 0116 49       		.uleb128 0x49
 2768 0117 13       		.uleb128 0x13
 2769 0118 38       		.uleb128 0x38
 2770 0119 0B       		.uleb128 0xb
 2771 011a 00       		.byte	0
 2772 011b 00       		.byte	0
 2773 011c 19       		.uleb128 0x19
 2774 011d 0D       		.uleb128 0xd
 2775 011e 00       		.byte	0
 2776 011f 03       		.uleb128 0x3
 2777 0120 0E       		.uleb128 0xe
 2778 0121 3A       		.uleb128 0x3a
 2779 0122 0B       		.uleb128 0xb
 2780 0123 3B       		.uleb128 0x3b
 2781 0124 05       		.uleb128 0x5
 2782 0125 49       		.uleb128 0x49
 2783 0126 13       		.uleb128 0x13
 2784 0127 38       		.uleb128 0x38
 2785 0128 05       		.uleb128 0x5
 2786 0129 00       		.byte	0
ARM GAS  /tmp/cc1feWkh.s 			page 50


 2787 012a 00       		.byte	0
 2788 012b 1A       		.uleb128 0x1a
 2789 012c 16       		.uleb128 0x16
 2790 012d 00       		.byte	0
 2791 012e 03       		.uleb128 0x3
 2792 012f 08       		.uleb128 0x8
 2793 0130 3A       		.uleb128 0x3a
 2794 0131 0B       		.uleb128 0xb
 2795 0132 3B       		.uleb128 0x3b
 2796 0133 05       		.uleb128 0x5
 2797 0134 49       		.uleb128 0x49
 2798 0135 13       		.uleb128 0x13
 2799 0136 00       		.byte	0
 2800 0137 00       		.byte	0
 2801 0138 1B       		.uleb128 0x1b
 2802 0139 04       		.uleb128 0x4
 2803 013a 01       		.byte	0x1
 2804 013b 0B       		.uleb128 0xb
 2805 013c 0B       		.uleb128 0xb
 2806 013d 3A       		.uleb128 0x3a
 2807 013e 0B       		.uleb128 0xb
 2808 013f 3B       		.uleb128 0x3b
 2809 0140 0B       		.uleb128 0xb
 2810 0141 6E       		.uleb128 0x6e
 2811 0142 0E       		.uleb128 0xe
 2812 0143 01       		.uleb128 0x1
 2813 0144 13       		.uleb128 0x13
 2814 0145 00       		.byte	0
 2815 0146 00       		.byte	0
 2816 0147 1C       		.uleb128 0x1c
 2817 0148 28       		.uleb128 0x28
 2818 0149 00       		.byte	0
 2819 014a 03       		.uleb128 0x3
 2820 014b 0E       		.uleb128 0xe
 2821 014c 1C       		.uleb128 0x1c
 2822 014d 0D       		.uleb128 0xd
 2823 014e 00       		.byte	0
 2824 014f 00       		.byte	0
 2825 0150 1D       		.uleb128 0x1d
 2826 0151 39       		.uleb128 0x39
 2827 0152 01       		.byte	0x1
 2828 0153 03       		.uleb128 0x3
 2829 0154 0E       		.uleb128 0xe
 2830 0155 3A       		.uleb128 0x3a
 2831 0156 0B       		.uleb128 0xb
 2832 0157 3B       		.uleb128 0x3b
 2833 0158 0B       		.uleb128 0xb
 2834 0159 01       		.uleb128 0x1
 2835 015a 13       		.uleb128 0x13
 2836 015b 00       		.byte	0
 2837 015c 00       		.byte	0
 2838 015d 1E       		.uleb128 0x1e
 2839 015e 02       		.uleb128 0x2
 2840 015f 01       		.byte	0x1
 2841 0160 03       		.uleb128 0x3
 2842 0161 08       		.uleb128 0x8
 2843 0162 0B       		.uleb128 0xb
ARM GAS  /tmp/cc1feWkh.s 			page 51


 2844 0163 0B       		.uleb128 0xb
 2845 0164 3A       		.uleb128 0x3a
 2846 0165 0B       		.uleb128 0xb
 2847 0166 3B       		.uleb128 0x3b
 2848 0167 0B       		.uleb128 0xb
 2849 0168 00       		.byte	0
 2850 0169 00       		.byte	0
 2851 016a 1F       		.uleb128 0x1f
 2852 016b 2E       		.uleb128 0x2e
 2853 016c 01       		.byte	0x1
 2854 016d 3F       		.uleb128 0x3f
 2855 016e 19       		.uleb128 0x19
 2856 016f 03       		.uleb128 0x3
 2857 0170 0E       		.uleb128 0xe
 2858 0171 3A       		.uleb128 0x3a
 2859 0172 0B       		.uleb128 0xb
 2860 0173 3B       		.uleb128 0x3b
 2861 0174 0B       		.uleb128 0xb
 2862 0175 6E       		.uleb128 0x6e
 2863 0176 0E       		.uleb128 0xe
 2864 0177 32       		.uleb128 0x32
 2865 0178 0B       		.uleb128 0xb
 2866 0179 3C       		.uleb128 0x3c
 2867 017a 19       		.uleb128 0x19
 2868 017b 64       		.uleb128 0x64
 2869 017c 13       		.uleb128 0x13
 2870 017d 01       		.uleb128 0x1
 2871 017e 13       		.uleb128 0x13
 2872 017f 00       		.byte	0
 2873 0180 00       		.byte	0
 2874 0181 20       		.uleb128 0x20
 2875 0182 05       		.uleb128 0x5
 2876 0183 00       		.byte	0
 2877 0184 49       		.uleb128 0x49
 2878 0185 13       		.uleb128 0x13
 2879 0186 34       		.uleb128 0x34
 2880 0187 19       		.uleb128 0x19
 2881 0188 00       		.byte	0
 2882 0189 00       		.byte	0
 2883 018a 21       		.uleb128 0x21
 2884 018b 2E       		.uleb128 0x2e
 2885 018c 01       		.byte	0x1
 2886 018d 3F       		.uleb128 0x3f
 2887 018e 19       		.uleb128 0x19
 2888 018f 03       		.uleb128 0x3
 2889 0190 0E       		.uleb128 0xe
 2890 0191 3A       		.uleb128 0x3a
 2891 0192 0B       		.uleb128 0xb
 2892 0193 3B       		.uleb128 0x3b
 2893 0194 0B       		.uleb128 0xb
 2894 0195 6E       		.uleb128 0x6e
 2895 0196 0E       		.uleb128 0xe
 2896 0197 49       		.uleb128 0x49
 2897 0198 13       		.uleb128 0x13
 2898 0199 32       		.uleb128 0x32
 2899 019a 0B       		.uleb128 0xb
 2900 019b 3C       		.uleb128 0x3c
ARM GAS  /tmp/cc1feWkh.s 			page 52


 2901 019c 19       		.uleb128 0x19
 2902 019d 64       		.uleb128 0x64
 2903 019e 13       		.uleb128 0x13
 2904 019f 01       		.uleb128 0x1
 2905 01a0 13       		.uleb128 0x13
 2906 01a1 00       		.byte	0
 2907 01a2 00       		.byte	0
 2908 01a3 22       		.uleb128 0x22
 2909 01a4 2E       		.uleb128 0x2e
 2910 01a5 01       		.byte	0x1
 2911 01a6 3F       		.uleb128 0x3f
 2912 01a7 19       		.uleb128 0x19
 2913 01a8 03       		.uleb128 0x3
 2914 01a9 0E       		.uleb128 0xe
 2915 01aa 3A       		.uleb128 0x3a
 2916 01ab 0B       		.uleb128 0xb
 2917 01ac 3B       		.uleb128 0x3b
 2918 01ad 0B       		.uleb128 0xb
 2919 01ae 6E       		.uleb128 0x6e
 2920 01af 0E       		.uleb128 0xe
 2921 01b0 49       		.uleb128 0x49
 2922 01b1 13       		.uleb128 0x13
 2923 01b2 32       		.uleb128 0x32
 2924 01b3 0B       		.uleb128 0xb
 2925 01b4 3C       		.uleb128 0x3c
 2926 01b5 19       		.uleb128 0x19
 2927 01b6 64       		.uleb128 0x64
 2928 01b7 13       		.uleb128 0x13
 2929 01b8 00       		.byte	0
 2930 01b9 00       		.byte	0
 2931 01ba 23       		.uleb128 0x23
 2932 01bb 2E       		.uleb128 0x2e
 2933 01bc 01       		.byte	0x1
 2934 01bd 03       		.uleb128 0x3
 2935 01be 0E       		.uleb128 0xe
 2936 01bf 3A       		.uleb128 0x3a
 2937 01c0 0B       		.uleb128 0xb
 2938 01c1 3B       		.uleb128 0x3b
 2939 01c2 0B       		.uleb128 0xb
 2940 01c3 49       		.uleb128 0x49
 2941 01c4 13       		.uleb128 0x13
 2942 01c5 11       		.uleb128 0x11
 2943 01c6 01       		.uleb128 0x1
 2944 01c7 12       		.uleb128 0x12
 2945 01c8 06       		.uleb128 0x6
 2946 01c9 40       		.uleb128 0x40
 2947 01ca 18       		.uleb128 0x18
 2948 01cb 9742     		.uleb128 0x2117
 2949 01cd 19       		.uleb128 0x19
 2950 01ce 01       		.uleb128 0x1
 2951 01cf 13       		.uleb128 0x13
 2952 01d0 00       		.byte	0
 2953 01d1 00       		.byte	0
 2954 01d2 24       		.uleb128 0x24
 2955 01d3 05       		.uleb128 0x5
 2956 01d4 00       		.byte	0
 2957 01d5 03       		.uleb128 0x3
ARM GAS  /tmp/cc1feWkh.s 			page 53


 2958 01d6 08       		.uleb128 0x8
 2959 01d7 3A       		.uleb128 0x3a
 2960 01d8 0B       		.uleb128 0xb
 2961 01d9 3B       		.uleb128 0x3b
 2962 01da 0B       		.uleb128 0xb
 2963 01db 49       		.uleb128 0x49
 2964 01dc 13       		.uleb128 0x13
 2965 01dd 02       		.uleb128 0x2
 2966 01de 17       		.uleb128 0x17
 2967 01df 00       		.byte	0
 2968 01e0 00       		.byte	0
 2969 01e1 25       		.uleb128 0x25
 2970 01e2 898201   		.uleb128 0x4109
 2971 01e5 01       		.byte	0x1
 2972 01e6 11       		.uleb128 0x11
 2973 01e7 01       		.uleb128 0x1
 2974 01e8 31       		.uleb128 0x31
 2975 01e9 13       		.uleb128 0x13
 2976 01ea 01       		.uleb128 0x1
 2977 01eb 13       		.uleb128 0x13
 2978 01ec 00       		.byte	0
 2979 01ed 00       		.byte	0
 2980 01ee 26       		.uleb128 0x26
 2981 01ef 8A8201   		.uleb128 0x410a
 2982 01f2 00       		.byte	0
 2983 01f3 02       		.uleb128 0x2
 2984 01f4 18       		.uleb128 0x18
 2985 01f5 9142     		.uleb128 0x2111
 2986 01f7 18       		.uleb128 0x18
 2987 01f8 00       		.byte	0
 2988 01f9 00       		.byte	0
 2989 01fa 27       		.uleb128 0x27
 2990 01fb 898201   		.uleb128 0x4109
 2991 01fe 01       		.byte	0x1
 2992 01ff 11       		.uleb128 0x11
 2993 0200 01       		.uleb128 0x1
 2994 0201 31       		.uleb128 0x31
 2995 0202 13       		.uleb128 0x13
 2996 0203 00       		.byte	0
 2997 0204 00       		.byte	0
 2998 0205 28       		.uleb128 0x28
 2999 0206 2E       		.uleb128 0x2e
 3000 0207 01       		.byte	0x1
 3001 0208 3F       		.uleb128 0x3f
 3002 0209 19       		.uleb128 0x19
 3003 020a 03       		.uleb128 0x3
 3004 020b 0E       		.uleb128 0xe
 3005 020c 3A       		.uleb128 0x3a
 3006 020d 0B       		.uleb128 0xb
 3007 020e 3B       		.uleb128 0x3b
 3008 020f 0B       		.uleb128 0xb
 3009 0210 49       		.uleb128 0x49
 3010 0211 13       		.uleb128 0x13
 3011 0212 11       		.uleb128 0x11
 3012 0213 01       		.uleb128 0x1
 3013 0214 12       		.uleb128 0x12
 3014 0215 06       		.uleb128 0x6
ARM GAS  /tmp/cc1feWkh.s 			page 54


 3015 0216 40       		.uleb128 0x40
 3016 0217 18       		.uleb128 0x18
 3017 0218 9742     		.uleb128 0x2117
 3018 021a 19       		.uleb128 0x19
 3019 021b 01       		.uleb128 0x1
 3020 021c 13       		.uleb128 0x13
 3021 021d 00       		.byte	0
 3022 021e 00       		.byte	0
 3023 021f 29       		.uleb128 0x29
 3024 0220 898201   		.uleb128 0x4109
 3025 0223 00       		.byte	0
 3026 0224 11       		.uleb128 0x11
 3027 0225 01       		.uleb128 0x1
 3028 0226 31       		.uleb128 0x31
 3029 0227 13       		.uleb128 0x13
 3030 0228 00       		.byte	0
 3031 0229 00       		.byte	0
 3032 022a 2A       		.uleb128 0x2a
 3033 022b 34       		.uleb128 0x34
 3034 022c 00       		.byte	0
 3035 022d 03       		.uleb128 0x3
 3036 022e 0E       		.uleb128 0xe
 3037 022f 3A       		.uleb128 0x3a
 3038 0230 0B       		.uleb128 0xb
 3039 0231 3B       		.uleb128 0x3b
 3040 0232 05       		.uleb128 0x5
 3041 0233 49       		.uleb128 0x49
 3042 0234 13       		.uleb128 0x13
 3043 0235 3F       		.uleb128 0x3f
 3044 0236 19       		.uleb128 0x19
 3045 0237 3C       		.uleb128 0x3c
 3046 0238 19       		.uleb128 0x19
 3047 0239 00       		.byte	0
 3048 023a 00       		.byte	0
 3049 023b 2B       		.uleb128 0x2b
 3050 023c 34       		.uleb128 0x34
 3051 023d 00       		.byte	0
 3052 023e 03       		.uleb128 0x3
 3053 023f 08       		.uleb128 0x8
 3054 0240 3A       		.uleb128 0x3a
 3055 0241 0B       		.uleb128 0xb
 3056 0242 3B       		.uleb128 0x3b
 3057 0243 0B       		.uleb128 0xb
 3058 0244 49       		.uleb128 0x49
 3059 0245 13       		.uleb128 0x13
 3060 0246 3F       		.uleb128 0x3f
 3061 0247 19       		.uleb128 0x19
 3062 0248 3C       		.uleb128 0x3c
 3063 0249 19       		.uleb128 0x19
 3064 024a 00       		.byte	0
 3065 024b 00       		.byte	0
 3066 024c 2C       		.uleb128 0x2c
 3067 024d 34       		.uleb128 0x34
 3068 024e 00       		.byte	0
 3069 024f 03       		.uleb128 0x3
 3070 0250 08       		.uleb128 0x8
 3071 0251 3A       		.uleb128 0x3a
ARM GAS  /tmp/cc1feWkh.s 			page 55


 3072 0252 0B       		.uleb128 0xb
 3073 0253 3B       		.uleb128 0x3b
 3074 0254 0B       		.uleb128 0xb
 3075 0255 49       		.uleb128 0x49
 3076 0256 13       		.uleb128 0x13
 3077 0257 3F       		.uleb128 0x3f
 3078 0258 19       		.uleb128 0x19
 3079 0259 02       		.uleb128 0x2
 3080 025a 18       		.uleb128 0x18
 3081 025b 00       		.byte	0
 3082 025c 00       		.byte	0
 3083 025d 2D       		.uleb128 0x2d
 3084 025e 34       		.uleb128 0x34
 3085 025f 00       		.byte	0
 3086 0260 03       		.uleb128 0x3
 3087 0261 0E       		.uleb128 0xe
 3088 0262 3A       		.uleb128 0x3a
 3089 0263 0B       		.uleb128 0xb
 3090 0264 3B       		.uleb128 0x3b
 3091 0265 0B       		.uleb128 0xb
 3092 0266 49       		.uleb128 0x49
 3093 0267 13       		.uleb128 0x13
 3094 0268 02       		.uleb128 0x2
 3095 0269 18       		.uleb128 0x18
 3096 026a 00       		.byte	0
 3097 026b 00       		.byte	0
 3098 026c 2E       		.uleb128 0x2e
 3099 026d 2E       		.uleb128 0x2e
 3100 026e 01       		.byte	0x1
 3101 026f 3F       		.uleb128 0x3f
 3102 0270 19       		.uleb128 0x19
 3103 0271 03       		.uleb128 0x3
 3104 0272 0E       		.uleb128 0xe
 3105 0273 3A       		.uleb128 0x3a
 3106 0274 0B       		.uleb128 0xb
 3107 0275 3B       		.uleb128 0x3b
 3108 0276 05       		.uleb128 0x5
 3109 0277 3C       		.uleb128 0x3c
 3110 0278 19       		.uleb128 0x19
 3111 0279 01       		.uleb128 0x1
 3112 027a 13       		.uleb128 0x13
 3113 027b 00       		.byte	0
 3114 027c 00       		.byte	0
 3115 027d 2F       		.uleb128 0x2f
 3116 027e 2E       		.uleb128 0x2e
 3117 027f 00       		.byte	0
 3118 0280 3F       		.uleb128 0x3f
 3119 0281 19       		.uleb128 0x19
 3120 0282 03       		.uleb128 0x3
 3121 0283 0E       		.uleb128 0xe
 3122 0284 3A       		.uleb128 0x3a
 3123 0285 0B       		.uleb128 0xb
 3124 0286 3B       		.uleb128 0x3b
 3125 0287 0B       		.uleb128 0xb
 3126 0288 3C       		.uleb128 0x3c
 3127 0289 19       		.uleb128 0x19
 3128 028a 00       		.byte	0
ARM GAS  /tmp/cc1feWkh.s 			page 56


 3129 028b 00       		.byte	0
 3130 028c 30       		.uleb128 0x30
 3131 028d 2E       		.uleb128 0x2e
 3132 028e 01       		.byte	0x1
 3133 028f 3F       		.uleb128 0x3f
 3134 0290 19       		.uleb128 0x19
 3135 0291 03       		.uleb128 0x3
 3136 0292 0E       		.uleb128 0xe
 3137 0293 3A       		.uleb128 0x3a
 3138 0294 0B       		.uleb128 0xb
 3139 0295 3B       		.uleb128 0x3b
 3140 0296 05       		.uleb128 0x5
 3141 0297 49       		.uleb128 0x49
 3142 0298 13       		.uleb128 0x13
 3143 0299 3C       		.uleb128 0x3c
 3144 029a 19       		.uleb128 0x19
 3145 029b 01       		.uleb128 0x1
 3146 029c 13       		.uleb128 0x13
 3147 029d 00       		.byte	0
 3148 029e 00       		.byte	0
 3149 029f 31       		.uleb128 0x31
 3150 02a0 2E       		.uleb128 0x2e
 3151 02a1 01       		.byte	0x1
 3152 02a2 3F       		.uleb128 0x3f
 3153 02a3 19       		.uleb128 0x19
 3154 02a4 03       		.uleb128 0x3
 3155 02a5 0E       		.uleb128 0xe
 3156 02a6 3A       		.uleb128 0x3a
 3157 02a7 0B       		.uleb128 0xb
 3158 02a8 3B       		.uleb128 0x3b
 3159 02a9 0B       		.uleb128 0xb
 3160 02aa 3C       		.uleb128 0x3c
 3161 02ab 19       		.uleb128 0x19
 3162 02ac 01       		.uleb128 0x1
 3163 02ad 13       		.uleb128 0x13
 3164 02ae 00       		.byte	0
 3165 02af 00       		.byte	0
 3166 02b0 32       		.uleb128 0x32
 3167 02b1 18       		.uleb128 0x18
 3168 02b2 00       		.byte	0
 3169 02b3 00       		.byte	0
 3170 02b4 00       		.byte	0
 3171 02b5 00       		.byte	0
 3172              		.section	.debug_loc,"",%progbits
 3173              	.Ldebug_loc0:
 3174              	.LLST0:
 3175 0000 00000000 		.4byte	.LVL0
 3176 0004 0A000000 		.4byte	.LVL1
 3177 0008 0100     		.2byte	0x1
 3178 000a 50       		.byte	0x50
 3179 000b 0A000000 		.4byte	.LVL1
 3180 000f 20000000 		.4byte	.LFE36
 3181 0013 0400     		.2byte	0x4
 3182 0015 F3       		.byte	0xf3
 3183 0016 01       		.uleb128 0x1
 3184 0017 50       		.byte	0x50
 3185 0018 9F       		.byte	0x9f
ARM GAS  /tmp/cc1feWkh.s 			page 57


 3186 0019 00000000 		.4byte	0
 3187 001d 00000000 		.4byte	0
 3188              		.section	.debug_aranges,"",%progbits
 3189 0000 24000000 		.4byte	0x24
 3190 0004 0200     		.2byte	0x2
 3191 0006 00000000 		.4byte	.Ldebug_info0
 3192 000a 04       		.byte	0x4
 3193 000b 00       		.byte	0
 3194 000c 0000     		.2byte	0
 3195 000e 0000     		.2byte	0
 3196 0010 00000000 		.4byte	.LFB36
 3197 0014 20000000 		.4byte	.LFE36-.LFB36
 3198 0018 00000000 		.4byte	.LFB37
 3199 001c 64000000 		.4byte	.LFE37-.LFB37
 3200 0020 00000000 		.4byte	0
 3201 0024 00000000 		.4byte	0
 3202              		.section	.debug_ranges,"",%progbits
 3203              	.Ldebug_ranges0:
 3204 0000 00000000 		.4byte	.LFB36
 3205 0004 20000000 		.4byte	.LFE36
 3206 0008 00000000 		.4byte	.LFB37
 3207 000c 64000000 		.4byte	.LFE37
 3208 0010 00000000 		.4byte	0
 3209 0014 00000000 		.4byte	0
 3210              		.section	.debug_line,"",%progbits
 3211              	.Ldebug_line0:
 3212 0000 CC030000 		.section	.debug_str,"MS",%progbits,1
 3212      02006A03 
 3212      00000201 
 3212      FB0E0D00 
 3212      01010101 
 3213              	.LASF124:
 3214 0000 50494F5F 		.ascii	"PIO_IFSCSR\000"
 3214      49465343 
 3214      535200
 3215              	.LASF262:
 3216 000b 54687265 		.ascii	"Thread1\000"
 3216      61643100 
 3217              	.LASF2:
 3218 0013 73697A65 		.ascii	"size_t\000"
 3218      5F7400
 3219              	.LASF55:
 3220 001a 73697A65 		.ascii	"sizetype\000"
 3220      74797065 
 3220      00
 3221              	.LASF24:
 3222 0023 73797374 		.ascii	"systime_t\000"
 3222      696D655F 
 3222      7400
 3223              	.LASF33:
 3224 002d 705F6374 		.ascii	"p_ctx\000"
 3224      7800
 3225              	.LASF21:
 3226 0033 74707269 		.ascii	"tprio_t\000"
 3226      6F5F7400 
 3227              	.LASF42:
 3228 003b 705F6D73 		.ascii	"p_msgqueue\000"
ARM GAS  /tmp/cc1feWkh.s 			page 58


 3228      67717565 
 3228      756500
 3229              	.LASF14:
 3230 0046 696E7433 		.ascii	"int32_t\000"
 3230      325F7400 
 3231              	.LASF227:
 3232 004e 53657269 		.ascii	"SerialConfig\000"
 3232      616C436F 
 3232      6E666967 
 3232      00
 3233              	.LASF84:
 3234 005b 77726974 		.ascii	"writet\000"
 3234      657400
 3235              	.LASF136:
 3236 0062 50494F5F 		.ascii	"PIO_AIMMR\000"
 3236      41494D4D 
 3236      5200
 3237              	.LASF195:
 3238 006c 55415254 		.ascii	"UART_IDR\000"
 3238      5F494452 
 3238      00
 3239              	.LASF90:
 3240 0075 576F5265 		.ascii	"WoReg\000"
 3240      6700
 3241              	.LASF147:
 3242 007b 50494F5F 		.ascii	"PIO_WPMR\000"
 3242      57504D52 
 3242      00
 3243              	.LASF80:
 3244 0084 77726974 		.ascii	"write\000"
 3244      6500
 3245              	.LASF226:
 3246 008a 73635F6D 		.ascii	"sc_mr\000"
 3246      7200
 3247              	.LASF190:
 3248 0090 5457495F 		.ascii	"TWI_PTSR\000"
 3248      50545352 
 3248      00
 3249              	.LASF197:
 3250 0099 55415254 		.ascii	"UART_SR\000"
 3250      5F535200 
 3251              	.LASF156:
 3252 00a1 50494F5F 		.ascii	"PIO_PCISR\000"
 3252      50434953 
 3252      5200
 3253              	.LASF194:
 3254 00ab 55415254 		.ascii	"UART_IER\000"
 3254      5F494552 
 3254      00
 3255              	.LASF133:
 3256 00b4 52657365 		.ascii	"Reserved8\000"
 3256      72766564 
 3256      3800
 3257              	.LASF160:
 3258 00be 50494F5F 		.ascii	"PIO_TPR\000"
 3258      54505200 
 3259              	.LASF175:
ARM GAS  /tmp/cc1feWkh.s 			page 59


 3260 00c6 5457495F 		.ascii	"TWI_SR\000"
 3260      535200
 3261              	.LASF209:
 3262 00cd 55415254 		.ascii	"UART_PTCR\000"
 3262      5F505443 
 3262      5200
 3263              	.LASF58:
 3264 00d7 6D5F6F77 		.ascii	"m_owner\000"
 3264      6E657200 
 3265              	.LASF27:
 3266 00df 65786974 		.ascii	"exitcode\000"
 3266      636F6465 
 3266      00
 3267              	.LASF3:
 3268 00e8 5F5F7569 		.ascii	"__uint8_t\000"
 3268      6E74385F 
 3268      7400
 3269              	.LASF177:
 3270 00f2 5457495F 		.ascii	"TWI_IDR\000"
 3270      49445200 
 3271              	.LASF72:
 3272 00fa 715F746F 		.ascii	"q_top\000"
 3272      7000
 3273              	.LASF131:
 3274 0100 50494F5F 		.ascii	"PIO_OWDR\000"
 3274      4F574452 
 3274      00
 3275              	.LASF85:
 3276 0109 72656164 		.ascii	"readt\000"
 3276      7400
 3277              	.LASF71:
 3278 010f 715F6275 		.ascii	"q_buffer\000"
 3278      66666572 
 3278      00
 3279              	.LASF75:
 3280 0118 715F6E6F 		.ascii	"q_notify\000"
 3280      74696679 
 3280      00
 3281              	.LASF126:
 3282 0121 50494F5F 		.ascii	"PIO_PPDDR\000"
 3282      50504444 
 3282      5200
 3283              	.LASF34:
 3284 012b 705F6E65 		.ascii	"p_newer\000"
 3284      77657200 
 3285              	.LASF8:
 3286 0133 6C6F6E67 		.ascii	"long int\000"
 3286      20696E74 
 3286      00
 3287              	.LASF183:
 3288 013c 5457495F 		.ascii	"TWI_TPR\000"
 3288      54505200 
 3289              	.LASF30:
 3290 0144 705F6E65 		.ascii	"p_next\000"
 3290      787400
 3291              	.LASF261:
 3292 014b 63726561 		.ascii	"creator\000"
ARM GAS  /tmp/cc1feWkh.s 			page 60


 3292      746F7200 
 3293              	.LASF74:
 3294 0153 715F7264 		.ascii	"q_rdptr\000"
 3294      70747200 
 3295              	.LASF31:
 3296 015b 705F7072 		.ascii	"p_prev\000"
 3296      657600
 3297              	.LASF241:
 3298 0162 57726974 		.ascii	"WriteByte\000"
 3298      65427974 
 3298      6500
 3299              	.LASF130:
 3300 016c 50494F5F 		.ascii	"PIO_OWER\000"
 3300      4F574552 
 3300      00
 3301              	.LASF102:
 3302 0175 50494F5F 		.ascii	"PIO_IFSR\000"
 3302      49465352 
 3302      00
 3303              	.LASF120:
 3304 017e 50494F5F 		.ascii	"PIO_ABCDSR\000"
 3304      41424344 
 3304      535200
 3305              	.LASF19:
 3306 0189 74737461 		.ascii	"tstate_t\000"
 3306      74655F74 
 3306      00
 3307              	.LASF250:
 3308 0192 6D61696E 		.ascii	"main\000"
 3308      00
 3309              	.LASF45:
 3310 0197 705F6D74 		.ascii	"p_mtxlist\000"
 3310      786C6973 
 3310      7400
 3311              	.LASF222:
 3312 01a1 6F717565 		.ascii	"oqueue\000"
 3312      756500
 3313              	.LASF52:
 3314 01a8 72656761 		.ascii	"regarm_t\000"
 3314      726D5F74 
 3314      00
 3315              	.LASF127:
 3316 01b1 50494F5F 		.ascii	"PIO_PPDER\000"
 3316      50504445 
 3316      5200
 3317              	.LASF138:
 3318 01bb 50494F5F 		.ascii	"PIO_ESR\000"
 3318      45535200 
 3319              	.LASF98:
 3320 01c3 50494F5F 		.ascii	"PIO_OSR\000"
 3320      4F535200 
 3321              	.LASF258:
 3322 01cb 6D61696E 		.ascii	"main.cpp\000"
 3322      2E637070 
 3322      00
 3323              	.LASF1:
 3324 01d4 7369676E 		.ascii	"signed char\000"
ARM GAS  /tmp/cc1feWkh.s 			page 61


 3324      65642063 
 3324      68617200 
 3325              	.LASF29:
 3326 01e0 65776D61 		.ascii	"ewmask\000"
 3326      736B00
 3327              	.LASF13:
 3328 01e7 75696E74 		.ascii	"uint8_t\000"
 3328      385F7400 
 3329              	.LASF173:
 3330 01ef 5457495F 		.ascii	"TWI_IADR\000"
 3330      49414452 
 3330      00
 3331              	.LASF23:
 3332 01f8 6576656E 		.ascii	"eventmask_t\000"
 3332      746D6173 
 3332      6B5F7400 
 3333              	.LASF54:
 3334 0204 636F6E74 		.ascii	"context\000"
 3334      65787400 
 3335              	.LASF162:
 3336 020c 50494F5F 		.ascii	"PIO_RNPR\000"
 3336      524E5052 
 3336      00
 3337              	.LASF4:
 3338 0215 756E7369 		.ascii	"unsigned char\000"
 3338      676E6564 
 3338      20636861 
 3338      7200
 3339              	.LASF116:
 3340 0223 50494F5F 		.ascii	"PIO_PUDR\000"
 3340      50554452 
 3340      00
 3341              	.LASF204:
 3342 022c 55415254 		.ascii	"UART_TCR\000"
 3342      5F544352 
 3342      00
 3343              	.LASF164:
 3344 0235 50494F5F 		.ascii	"PIO_TNPR\000"
 3344      544E5052 
 3344      00
 3345              	.LASF213:
 3346 023e 53445F55 		.ascii	"SD_UNINIT\000"
 3346      4E494E49 
 3346      5400
 3347              	.LASF148:
 3348 0248 50494F5F 		.ascii	"PIO_WPSR\000"
 3348      57505352 
 3348      00
 3349              	.LASF201:
 3350 0251 55415254 		.ascii	"UART_RPR\000"
 3350      5F525052 
 3350      00
 3351              	.LASF49:
 3352 025a 31325468 		.ascii	"12ThreadsQueue\000"
 3352      72656164 
 3352      73517565 
 3352      756500
ARM GAS  /tmp/cc1feWkh.s 			page 62


 3353              	.LASF192:
 3354 0269 55415254 		.ascii	"UART_CR\000"
 3354      5F435200 
 3355              	.LASF117:
 3356 0271 50494F5F 		.ascii	"PIO_PUER\000"
 3356      50554552 
 3356      00
 3357              	.LASF66:
 3358 027a 63686172 		.ascii	"char\000"
 3358      00
 3359              	.LASF159:
 3360 027f 50494F5F 		.ascii	"PIO_RCR\000"
 3360      52435200 
 3361              	.LASF141:
 3362 0287 52657365 		.ascii	"Reserved10\000"
 3362      72766564 
 3362      313000
 3363              	.LASF145:
 3364 0292 52657365 		.ascii	"Reserved11\000"
 3364      72766564 
 3364      313100
 3365              	.LASF149:
 3366 029d 52657365 		.ascii	"Reserved12\000"
 3366      72766564 
 3366      313200
 3367              	.LASF151:
 3368 02a8 52657365 		.ascii	"Reserved13\000"
 3368      72766564 
 3368      313300
 3369              	.LASF32:
 3370 02b3 705F7072 		.ascii	"p_prio\000"
 3370      696F00
 3371              	.LASF68:
 3372 02ba 47656E65 		.ascii	"GenericQueue\000"
 3372      72696351 
 3372      75657565 
 3372      00
 3373              	.LASF113:
 3374 02c7 50494F5F 		.ascii	"PIO_MDDR\000"
 3374      4D444452 
 3374      00
 3375              	.LASF28:
 3376 02d0 77746F62 		.ascii	"wtobjp\000"
 3376      6A7000
 3377              	.LASF107:
 3378 02d7 50494F5F 		.ascii	"PIO_PDSR\000"
 3378      50445352 
 3378      00
 3379              	.LASF219:
 3380 02e0 666C6167 		.ascii	"flags\000"
 3380      7300
 3381              	.LASF146:
 3382 02e6 50494F5F 		.ascii	"PIO_LOCKSR\000"
 3382      4C4F434B 
 3382      535200
 3383              	.LASF78:
 3384 02f1 4F757470 		.ascii	"OutputQueue\000"
ARM GAS  /tmp/cc1feWkh.s 			page 63


 3384      75745175 
 3384      65756500 
 3385              	.LASF142:
 3386 02fd 50494F5F 		.ascii	"PIO_FELLSR\000"
 3386      46454C4C 
 3386      535200
 3387              	.LASF182:
 3388 0308 5457495F 		.ascii	"TWI_RCR\000"
 3388      52435200 
 3389              	.LASF112:
 3390 0310 50494F5F 		.ascii	"PIO_MDER\000"
 3390      4D444552 
 3390      00
 3391              	.LASF233:
 3392 0319 7053746F 		.ascii	"pStorage\000"
 3392      72616765 
 3392      00
 3393              	.LASF93:
 3394 0322 50494F5F 		.ascii	"PIO_PDR\000"
 3394      50445200 
 3395              	.LASF82:
 3396 032a 70757477 		.ascii	"putwouldblock\000"
 3396      6F756C64 
 3396      626C6F63 
 3396      6B00
 3397              	.LASF212:
 3398 0338 696F706F 		.ascii	"ioportmask_t\000"
 3398      72746D61 
 3398      736B5F74 
 3398      00
 3399              	.LASF205:
 3400 0345 55415254 		.ascii	"UART_RNPR\000"
 3400      5F524E50 
 3400      5200
 3401              	.LASF86:
 3402 034f 31314261 		.ascii	"11BaseChannel\000"
 3402      73654368 
 3402      616E6E65 
 3402      6C00
 3403              	.LASF196:
 3404 035d 55415254 		.ascii	"UART_IMR\000"
 3404      5F494D52 
 3404      00
 3405              	.LASF211:
 3406 0366 55617274 		.ascii	"Uart\000"
 3406      00
 3407              	.LASF186:
 3408 036b 5457495F 		.ascii	"TWI_RNCR\000"
 3408      524E4352 
 3408      00
 3409              	.LASF207:
 3410 0374 55415254 		.ascii	"UART_TNPR\000"
 3410      5F544E50 
 3410      5200
 3411              	.LASF256:
 3412 037e 63687072 		.ascii	"chprintf\000"
 3412      696E7466 
ARM GAS  /tmp/cc1feWkh.s 			page 64


 3412      00
 3413              	.LASF254:
 3414 0387 63685468 		.ascii	"chThdSleep\000"
 3414      64536C65 
 3414      657000
 3415              	.LASF140:
 3416 0392 50494F5F 		.ascii	"PIO_ELSR\000"
 3416      454C5352 
 3416      00
 3417              	.LASF188:
 3418 039b 5457495F 		.ascii	"TWI_TNCR\000"
 3418      544E4352 
 3418      00
 3419              	.LASF53:
 3420 03a4 696E7463 		.ascii	"intctx\000"
 3420      747800
 3421              	.LASF44:
 3422 03ab 705F6570 		.ascii	"p_epending\000"
 3422      656E6469 
 3422      6E6700
 3423              	.LASF224:
 3424 03b6 31325365 		.ascii	"12SerialConfig\000"
 3424      7269616C 
 3424      436F6E66 
 3424      696700
 3425              	.LASF94:
 3426 03c5 50494F5F 		.ascii	"PIO_PSR\000"
 3426      50535200 
 3427              	.LASF199:
 3428 03cd 55415254 		.ascii	"UART_THR\000"
 3428      5F544852 
 3428      00
 3429              	.LASF65:
 3430 03d6 65735F6E 		.ascii	"es_next\000"
 3430      65787400 
 3431              	.LASF70:
 3432 03de 715F636F 		.ascii	"q_counter\000"
 3432      756E7465 
 3432      7200
 3433              	.LASF257:
 3434 03e8 474E5520 		.ascii	"GNU C++ 4.9.3 20150529 (release) [ARM/embedded-4_9-"
 3434      432B2B20 
 3434      342E392E 
 3434      33203230 
 3434      31353035 
 3435 041b 6272616E 		.ascii	"branch revision 227977] -mcpu=cortex-m3 -mno-thumb-"
 3435      63682072 
 3435      65766973 
 3435      696F6E20 
 3435      32323739 
 3436 044e 696E7465 		.ascii	"interwork -mthumb -ggdb -O2 -fomit-frame-pointer -f"
 3436      72776F72 
 3436      6B202D6D 
 3436      7468756D 
 3436      62202D67 
 3437 0481 616C6967 		.ascii	"align-functions=16 -ffunction-sections -fdata-secti"
 3437      6E2D6675 
ARM GAS  /tmp/cc1feWkh.s 			page 65


 3437      6E637469 
 3437      6F6E733D 
 3437      3136202D 
 3438 04b4 6F6E7320 		.ascii	"ons -fno-common -fno-rtti\000"
 3438      2D666E6F 
 3438      2D636F6D 
 3438      6D6F6E20 
 3438      2D666E6F 
 3439              	.LASF64:
 3440 04ce 4576656E 		.ascii	"EventSource\000"
 3440      74536F75 
 3440      72636500 
 3441              	.LASF10:
 3442 04da 6C6F6E67 		.ascii	"long unsigned int\000"
 3442      20756E73 
 3442      69676E65 
 3442      6420696E 
 3442      7400
 3443              	.LASF231:
 3444 04ec 73746174 		.ascii	"status\000"
 3444      757300
 3445              	.LASF242:
 3446 04f3 5F5A4E37 		.ascii	"_ZN7creator3I2C4InitEv\000"
 3446      63726561 
 3446      746F7233 
 3446      49324334 
 3446      496E6974 
 3447              	.LASF61:
 3448 050a 656C5F6E 		.ascii	"el_next\000"
 3448      65787400 
 3449              	.LASF168:
 3450 0512 3350696F 		.ascii	"3Pio\000"
 3450      00
 3451              	.LASF73:
 3452 0517 715F7772 		.ascii	"q_wrptr\000"
 3452      70747200 
 3453              	.LASF228:
 3454 051f 53657269 		.ascii	"SerialDriverVMT\000"
 3454      616C4472 
 3454      69766572 
 3454      564D5400 
 3455              	.LASF255:
 3456 052f 73645374 		.ascii	"sdStart\000"
 3456      61727400 
 3457              	.LASF105:
 3458 0537 50494F5F 		.ascii	"PIO_CODR\000"
 3458      434F4452 
 3458      00
 3459              	.LASF264:
 3460 0540 63685468 		.ascii	"chThdCreateStatic\000"
 3460      64437265 
 3460      61746553 
 3460      74617469 
 3460      6300
 3461              	.LASF252:
 3462 0552 68616C49 		.ascii	"halInit\000"
 3462      6E697400 
ARM GAS  /tmp/cc1feWkh.s 			page 66


 3463              	.LASF237:
 3464 055a 70547261 		.ascii	"pTransfer\000"
 3464      6E736665 
 3464      7200
 3465              	.LASF259:
 3466 0564 2F686F6D 		.ascii	"/home/nixtropy/Documents/Embebidos/stamp_repo_2/fil"
 3466      652F6E69 
 3466      7874726F 
 3466      70792F44 
 3466      6F63756D 
 3467 0597 65732F63 		.ascii	"es/code/src/chibios_i2c\000"
 3467      6F64652F 
 3467      7372632F 
 3467      63686962 
 3467      696F735F 
 3468              	.LASF179:
 3469 05af 5457495F 		.ascii	"TWI_RHR\000"
 3469      52485200 
 3470              	.LASF9:
 3471 05b7 5F5F7569 		.ascii	"__uint32_t\000"
 3471      6E743332 
 3471      5F7400
 3472              	.LASF109:
 3473 05c2 50494F5F 		.ascii	"PIO_IDR\000"
 3473      49445200 
 3474              	.LASF56:
 3475 05ca 4D757465 		.ascii	"Mutex\000"
 3475      7800
 3476              	.LASF260:
 3477 05d0 39736473 		.ascii	"9sdstate_t\000"
 3477      74617465 
 3477      5F7400
 3478              	.LASF11:
 3479 05db 6C6F6E67 		.ascii	"long long int\000"
 3479      206C6F6E 
 3479      6720696E 
 3479      7400
 3480              	.LASF57:
 3481 05e9 6D5F7175 		.ascii	"m_queue\000"
 3481      65756500 
 3482              	.LASF125:
 3483 05f1 50494F5F 		.ascii	"PIO_SCDR\000"
 3483      53434452 
 3483      00
 3484              	.LASF246:
 3485 05fa 5F5A4E37 		.ascii	"_ZN7creator3I2C8ReadByteEhh\000"
 3485      63726561 
 3485      746F7233 
 3485      49324338 
 3485      52656164 
 3486              	.LASF122:
 3487 0616 50494F5F 		.ascii	"PIO_IFSCDR\000"
 3487      49465343 
 3487      445200
 3488              	.LASF239:
 3489 0621 74776964 		.ascii	"twid_\000"
 3489      5F00
ARM GAS  /tmp/cc1feWkh.s 			page 67


 3490              	.LASF236:
 3491 0627 70547769 		.ascii	"pTwi\000"
 3491      00
 3492              	.LASF167:
 3493 062c 50494F5F 		.ascii	"PIO_PTSR\000"
 3493      50545352 
 3493      00
 3494              	.LASF108:
 3495 0635 50494F5F 		.ascii	"PIO_IER\000"
 3495      49455200 
 3496              	.LASF157:
 3497 063d 50494F5F 		.ascii	"PIO_PCRHR\000"
 3497      50435248 
 3497      5200
 3498              	.LASF251:
 3499 0647 49544D5F 		.ascii	"ITM_RxBuffer\000"
 3499      52784275 
 3499      66666572 
 3499      00
 3500              	.LASF67:
 3501 0654 7466756E 		.ascii	"tfunc_t\000"
 3501      635F7400 
 3502              	.LASF104:
 3503 065c 50494F5F 		.ascii	"PIO_SODR\000"
 3503      534F4452 
 3503      00
 3504              	.LASF123:
 3505 0665 50494F5F 		.ascii	"PIO_IFSCER\000"
 3505      49465343 
 3505      455200
 3506              	.LASF189:
 3507 0670 5457495F 		.ascii	"TWI_PTCR\000"
 3507      50544352 
 3507      00
 3508              	.LASF76:
 3509 0679 716E6F74 		.ascii	"qnotify_t\000"
 3509      6966795F 
 3509      7400
 3510              	.LASF41:
 3511 0683 705F7761 		.ascii	"p_waiting\000"
 3511      6974696E 
 3511      6700
 3512              	.LASF218:
 3513 068d 6576656E 		.ascii	"event\000"
 3513      7400
 3514              	.LASF38:
 3515 0693 705F666C 		.ascii	"p_flags\000"
 3515      61677300 
 3516              	.LASF81:
 3517 069b 72656164 		.ascii	"read\000"
 3517      00
 3518              	.LASF0:
 3519 06a0 756E7369 		.ascii	"unsigned int\000"
 3519      676E6564 
 3519      20696E74 
 3519      00
 3520              	.LASF245:
ARM GAS  /tmp/cc1feWkh.s 			page 68


 3521 06ad 52656164 		.ascii	"ReadByte\000"
 3521      42797465 
 3521      00
 3522              	.LASF47:
 3523 06b6 705F6D70 		.ascii	"p_mpool\000"
 3523      6F6F6C00 
 3524              	.LASF176:
 3525 06be 5457495F 		.ascii	"TWI_IER\000"
 3525      49455200 
 3526              	.LASF39:
 3527 06c6 705F7265 		.ascii	"p_refs\000"
 3527      667300
 3528              	.LASF170:
 3529 06cd 5457495F 		.ascii	"TWI_CR\000"
 3529      435200
 3530              	.LASF154:
 3531 06d4 50494F5F 		.ascii	"PIO_PCIDR\000"
 3531      50434944 
 3531      5200
 3532              	.LASF139:
 3533 06de 50494F5F 		.ascii	"PIO_LSR\000"
 3533      4C535200 
 3534              	.LASF225:
 3535 06e6 73635F73 		.ascii	"sc_speed\000"
 3535      70656564 
 3535      00
 3536              	.LASF51:
 3537 06ef 54687265 		.ascii	"ThreadsList\000"
 3537      6164734C 
 3537      69737400 
 3538              	.LASF88:
 3539 06fb 696F666C 		.ascii	"ioflags_t\000"
 3539      6167735F 
 3539      7400
 3540              	.LASF240:
 3541 0705 496E6974 		.ascii	"Init\000"
 3541      00
 3542              	.LASF40:
 3543 070a 705F7469 		.ascii	"p_time\000"
 3543      6D6500
 3544              	.LASF132:
 3545 0711 50494F5F 		.ascii	"PIO_OWSR\000"
 3545      4F575352 
 3545      00
 3546              	.LASF244:
 3547 071a 5F5A4E37 		.ascii	"_ZN7creator3I2C9WriteByteEhh\000"
 3547      63726561 
 3547      746F7233 
 3547      49324339 
 3547      57726974 
 3548              	.LASF210:
 3549 0737 55415254 		.ascii	"UART_PTSR\000"
 3549      5F505453 
 3549      5200
 3550              	.LASF234:
 3551 0741 4173796E 		.ascii	"Async\000"
 3551      6300
ARM GAS  /tmp/cc1feWkh.s 			page 69


 3552              	.LASF128:
 3553 0747 50494F5F 		.ascii	"PIO_PPDSR\000"
 3553      50504453 
 3553      5200
 3554              	.LASF171:
 3555 0751 5457495F 		.ascii	"TWI_MMR\000"
 3555      4D4D5200 
 3556              	.LASF46:
 3557 0759 705F7265 		.ascii	"p_realprio\000"
 3557      616C7072 
 3557      696F00
 3558              	.LASF249:
 3559 0764 5F5A4E37 		.ascii	"_ZN7creator3I2C9ReadBytesEhhPhh\000"
 3559      63726561 
 3559      746F7233 
 3559      49324339 
 3559      52656164 
 3560              	.LASF83:
 3561 0784 67657477 		.ascii	"getwouldblock\000"
 3561      6F756C64 
 3561      626C6F63 
 3561      6B00
 3562              	.LASF203:
 3563 0792 55415254 		.ascii	"UART_TPR\000"
 3563      5F545052 
 3563      00
 3564              	.LASF101:
 3565 079b 50494F5F 		.ascii	"PIO_IFDR\000"
 3565      49464452 
 3565      00
 3566              	.LASF221:
 3567 07a4 69717565 		.ascii	"iqueue\000"
 3567      756500
 3568              	.LASF161:
 3569 07ab 50494F5F 		.ascii	"PIO_TCR\000"
 3569      54435200 
 3570              	.LASF12:
 3571 07b3 6C6F6E67 		.ascii	"long long unsigned int\000"
 3571      206C6F6E 
 3571      6720756E 
 3571      7369676E 
 3571      65642069 
 3572              	.LASF35:
 3573 07ca 705F6F6C 		.ascii	"p_older\000"
 3573      64657200 
 3574              	.LASF158:
 3575 07d2 50494F5F 		.ascii	"PIO_RPR\000"
 3575      52505200 
 3576              	.LASF97:
 3577 07da 50494F5F 		.ascii	"PIO_ODR\000"
 3577      4F445200 
 3578              	.LASF22:
 3579 07e2 6D73675F 		.ascii	"msg_t\000"
 3579      7400
 3580              	.LASF100:
 3581 07e8 50494F5F 		.ascii	"PIO_IFER\000"
 3581      49464552 
ARM GAS  /tmp/cc1feWkh.s 			page 70


 3581      00
 3582              	.LASF169:
 3583 07f1 33547769 		.ascii	"3Twi\000"
 3583      00
 3584              	.LASF174:
 3585 07f6 5457495F 		.ascii	"TWI_CWGR\000"
 3585      43574752 
 3585      00
 3586              	.LASF184:
 3587 07ff 5457495F 		.ascii	"TWI_TCR\000"
 3587      54435200 
 3588              	.LASF118:
 3589 0807 50494F5F 		.ascii	"PIO_PUSR\000"
 3589      50555352 
 3589      00
 3590              	.LASF96:
 3591 0810 50494F5F 		.ascii	"PIO_OER\000"
 3591      4F455200 
 3592              	.LASF243:
 3593 0818 5F5A4E37 		.ascii	"_ZN7creator3I2C9WriteByteEhhh\000"
 3593      63726561 
 3593      746F7233 
 3593      49324339 
 3593      57726974 
 3594              	.LASF181:
 3595 0836 5457495F 		.ascii	"TWI_RPR\000"
 3595      52505200 
 3596              	.LASF135:
 3597 083e 50494F5F 		.ascii	"PIO_AIMDR\000"
 3597      41494D44 
 3597      5200
 3598              	.LASF191:
 3599 0848 34556172 		.ascii	"4Uart\000"
 3599      7400
 3600              	.LASF235:
 3601 084e 5F547769 		.ascii	"_Twid\000"
 3601      6400
 3602              	.LASF217:
 3603 0854 53657269 		.ascii	"SerialDriver\000"
 3603      616C4472 
 3603      69766572 
 3603      00
 3604              	.LASF185:
 3605 0861 5457495F 		.ascii	"TWI_RNPR\000"
 3605      524E5052 
 3605      00
 3606              	.LASF144:
 3607 086a 50494F5F 		.ascii	"PIO_FRLHSR\000"
 3607      46524C48 
 3607      535200
 3608              	.LASF200:
 3609 0875 55415254 		.ascii	"UART_BRGR\000"
 3609      5F425247 
 3609      5200
 3610              	.LASF172:
 3611 087f 5457495F 		.ascii	"TWI_SMR\000"
 3611      534D5200 
ARM GAS  /tmp/cc1feWkh.s 			page 71


 3612              	.LASF69:
 3613 0887 715F7761 		.ascii	"q_waiting\000"
 3613      6974696E 
 3613      6700
 3614              	.LASF95:
 3615 0891 52657365 		.ascii	"Reserved1\000"
 3615      72766564 
 3615      3100
 3616              	.LASF99:
 3617 089b 52657365 		.ascii	"Reserved2\000"
 3617      72766564 
 3617      3200
 3618              	.LASF103:
 3619 08a5 52657365 		.ascii	"Reserved3\000"
 3619      72766564 
 3619      3300
 3620              	.LASF115:
 3621 08af 52657365 		.ascii	"Reserved4\000"
 3621      72766564 
 3621      3400
 3622              	.LASF119:
 3623 08b9 52657365 		.ascii	"Reserved5\000"
 3623      72766564 
 3623      3500
 3624              	.LASF121:
 3625 08c3 52657365 		.ascii	"Reserved6\000"
 3625      72766564 
 3625      3600
 3626              	.LASF129:
 3627 08cd 52657365 		.ascii	"Reserved7\000"
 3627      72766564 
 3627      3700
 3628              	.LASF18:
 3629 08d7 746D6F64 		.ascii	"tmode_t\000"
 3629      655F7400 
 3630              	.LASF137:
 3631 08df 52657365 		.ascii	"Reserved9\000"
 3631      72766564 
 3631      3900
 3632              	.LASF134:
 3633 08e9 50494F5F 		.ascii	"PIO_AIMER\000"
 3633      41494D45 
 3633      5200
 3634              	.LASF216:
 3635 08f3 73647374 		.ascii	"sdstate_t\000"
 3635      6174655F 
 3635      7400
 3636              	.LASF114:
 3637 08fd 50494F5F 		.ascii	"PIO_MDSR\000"
 3637      4D445352 
 3637      00
 3638              	.LASF187:
 3639 0906 5457495F 		.ascii	"TWI_TNPR\000"
 3639      544E5052 
 3639      00
 3640              	.LASF110:
 3641 090f 50494F5F 		.ascii	"PIO_IMR\000"
ARM GAS  /tmp/cc1feWkh.s 			page 72


 3641      494D5200 
 3642              	.LASF215:
 3643 0917 53445F52 		.ascii	"SD_READY\000"
 3643      45414459 
 3643      00
 3644              	.LASF106:
 3645 0920 50494F5F 		.ascii	"PIO_ODSR\000"
 3645      4F445352 
 3645      00
 3646              	.LASF163:
 3647 0929 50494F5F 		.ascii	"PIO_RNCR\000"
 3647      524E4352 
 3647      00
 3648              	.LASF232:
 3649 0932 63616C6C 		.ascii	"callback\000"
 3649      6261636B 
 3649      00
 3650              	.LASF165:
 3651 093b 50494F5F 		.ascii	"PIO_TNCR\000"
 3651      544E4352 
 3651      00
 3652              	.LASF247:
 3653 0944 5F5A4E37 		.ascii	"_ZN7creator3I2C8ReadByteEh\000"
 3653      63726561 
 3653      746F7233 
 3653      49324338 
 3653      52656164 
 3654              	.LASF150:
 3655 095f 50494F5F 		.ascii	"PIO_SCHMITT\000"
 3655      5343484D 
 3655      49545400 
 3656              	.LASF5:
 3657 096b 73686F72 		.ascii	"short int\000"
 3657      7420696E 
 3657      7400
 3658              	.LASF89:
 3659 0975 526F5265 		.ascii	"RoReg\000"
 3659      6700
 3660              	.LASF202:
 3661 097b 55415254 		.ascii	"UART_RCR\000"
 3661      5F524352 
 3661      00
 3662              	.LASF223:
 3663 0984 75617274 		.ascii	"uart\000"
 3663      00
 3664              	.LASF220:
 3665 0989 73746174 		.ascii	"state\000"
 3665      6500
 3666              	.LASF178:
 3667 098f 5457495F 		.ascii	"TWI_IMR\000"
 3667      494D5200 
 3668              	.LASF17:
 3669 0997 626F6F6C 		.ascii	"bool_t\000"
 3669      5F7400
 3670              	.LASF25:
 3671 099e 54687265 		.ascii	"Thread\000"
 3671      616400
ARM GAS  /tmp/cc1feWkh.s 			page 73


 3672              	.LASF91:
 3673 09a5 52775265 		.ascii	"RwReg\000"
 3673      6700
 3674              	.LASF229:
 3675 09ab 67657466 		.ascii	"getflags\000"
 3675      6C616773 
 3675      00
 3676              	.LASF193:
 3677 09b4 55415254 		.ascii	"UART_MR\000"
 3677      5F4D5200 
 3678              	.LASF155:
 3679 09bc 50494F5F 		.ascii	"PIO_PCIMR\000"
 3679      5043494D 
 3679      5200
 3680              	.LASF20:
 3681 09c6 74726566 		.ascii	"trefs_t\000"
 3681      735F7400 
 3682              	.LASF180:
 3683 09ce 5457495F 		.ascii	"TWI_THR\000"
 3683      54485200 
 3684              	.LASF60:
 3685 09d6 4576656E 		.ascii	"EventListener\000"
 3685      744C6973 
 3685      74656E65 
 3685      7200
 3686              	.LASF152:
 3687 09e4 50494F5F 		.ascii	"PIO_PCMR\000"
 3687      50434D52 
 3687      00
 3688              	.LASF253:
 3689 09ed 63685379 		.ascii	"chSysInit\000"
 3689      73496E69 
 3689      7400
 3690              	.LASF15:
 3691 09f7 75696E74 		.ascii	"uint32_t\000"
 3691      33325F74 
 3691      00
 3692              	.LASF206:
 3693 0a00 55415254 		.ascii	"UART_RNCR\000"
 3693      5F524E43 
 3693      5200
 3694              	.LASF48:
 3695 0a0a 54687265 		.ascii	"ThreadsQueue\000"
 3695      61647351 
 3695      75657565 
 3695      00
 3696              	.LASF16:
 3697 0a17 75696E74 		.ascii	"uint_fast16_t\000"
 3697      5F666173 
 3697      7431365F 
 3697      7400
 3698              	.LASF208:
 3699 0a25 55415254 		.ascii	"UART_TNCR\000"
 3699      5F544E43 
 3699      5200
 3700              	.LASF143:
 3701 0a2f 50494F5F 		.ascii	"PIO_REHLSR\000"
ARM GAS  /tmp/cc1feWkh.s 			page 74


 3701      5245484C 
 3701      535200
 3702              	.LASF26:
 3703 0a3a 7264796D 		.ascii	"rdymsg\000"
 3703      736700
 3704              	.LASF6:
 3705 0a41 73686F72 		.ascii	"short unsigned int\000"
 3705      7420756E 
 3705      7369676E 
 3705      65642069 
 3705      6E7400
 3706              	.LASF230:
 3707 0a54 5F417379 		.ascii	"_Async\000"
 3707      6E6300
 3708              	.LASF92:
 3709 0a5b 50494F5F 		.ascii	"PIO_PER\000"
 3709      50455200 
 3710              	.LASF77:
 3711 0a63 496E7075 		.ascii	"InputQueue\000"
 3711      74517565 
 3711      756500
 3712              	.LASF7:
 3713 0a6e 5F5F696E 		.ascii	"__int32_t\000"
 3713      7433325F 
 3713      7400
 3714              	.LASF214:
 3715 0a78 53445F53 		.ascii	"SD_STOP\000"
 3715      544F5000 
 3716              	.LASF50:
 3717 0a80 31315468 		.ascii	"11ThreadsList\000"
 3717      72656164 
 3717      734C6973 
 3717      7400
 3718              	.LASF79:
 3719 0a8e 42617365 		.ascii	"BaseChannelVMT\000"
 3719      4368616E 
 3719      6E656C56 
 3719      4D5400
 3720              	.LASF63:
 3721 0a9d 656C5F6D 		.ascii	"el_mask\000"
 3721      61736B00 
 3722              	.LASF238:
 3723 0aa5 54776964 		.ascii	"Twid\000"
 3723      00
 3724              	.LASF36:
 3725 0aaa 705F6E61 		.ascii	"p_name\000"
 3725      6D6500
 3726              	.LASF248:
 3727 0ab1 52656164 		.ascii	"ReadBytes\000"
 3727      42797465 
 3727      7300
 3728              	.LASF59:
 3729 0abb 6D5F6E65 		.ascii	"m_next\000"
 3729      787400
 3730              	.LASF87:
 3731 0ac2 42617365 		.ascii	"BaseChannel\000"
 3731      4368616E 
ARM GAS  /tmp/cc1feWkh.s 			page 75


 3731      6E656C00 
 3732              	.LASF111:
 3733 0ace 50494F5F 		.ascii	"PIO_ISR\000"
 3733      49535200 
 3734              	.LASF198:
 3735 0ad6 55415254 		.ascii	"UART_RHR\000"
 3735      5F524852 
 3735      00
 3736              	.LASF263:
 3737 0adf 77615468 		.ascii	"waThread1\000"
 3737      72656164 
 3737      3100
 3738              	.LASF43:
 3739 0ae9 705F6D73 		.ascii	"p_msg\000"
 3739      6700
 3740              	.LASF62:
 3741 0aef 656C5F6C 		.ascii	"el_listener\000"
 3741      69737465 
 3741      6E657200 
 3742              	.LASF166:
 3743 0afb 50494F5F 		.ascii	"PIO_PTCR\000"
 3743      50544352 
 3743      00
 3744              	.LASF153:
 3745 0b04 50494F5F 		.ascii	"PIO_PCIER\000"
 3745      50434945 
 3745      5200
 3746              	.LASF37:
 3747 0b0e 705F7374 		.ascii	"p_state\000"
 3747      61746500 
 3748              		.ident	"GCC: (GNU Tools for ARM Embedded Processors) 4.9.3 20150529 (release) [ARM/embedded-4_9-br
ARM GAS  /tmp/cc1feWkh.s 			page 76


DEFINED SYMBOLS
                            *ABS*:00000000 main.cpp
     /tmp/cc1feWkh.s:19     .text._ZL7Thread1Pv:00000000 $t
     /tmp/cc1feWkh.s:24     .text._ZL7Thread1Pv:00000000 _ZL7Thread1Pv
     /tmp/cc1feWkh.s:63     .text._ZL7Thread1Pv:0000001c $d
    .ARM.exidx.text._ZL7Thread1Pv:00000000 $d
     /tmp/cc1feWkh.s:69     .text.startup.main:00000000 $t
     /tmp/cc1feWkh.s:75     .text.startup.main:00000000 main
     /tmp/cc1feWkh.s:138    .text.startup.main:00000050 $d
     .ARM.exidx.text.startup.main:00000000 $d
     /tmp/cc1feWkh.s:160    .bss.i2c:00000000 i2c
     /tmp/cc1feWkh.s:149    .bss._ZL9waThread1:00000000 $d
     /tmp/cc1feWkh.s:153    .bss._ZL9waThread1:00000000 _ZL9waThread1
     /tmp/cc1feWkh.s:156    .bss.i2c:00000000 $d
     /tmp/cc1feWkh.s:163    .rodata.str1.4:00000000 $d
                     .debug_frame:00000010 $d

UNDEFINED SYMBOLS
chThdSleep
__aeabi_unwind_cpp_pr0
halInit
chSysInit
_ZN7creator3I2C4InitEv
sdStart
chThdCreateStatic
chprintf
_ZN7creator3I2C9WriteByteEhh
SD2
