ARM GAS  /tmp/cc1feWkh.s 			page 1


   1              		.syntax unified
   2              		.cpu cortex-m3
   3              		.fpu softvfp
   4              		.eabi_attribute 20, 1
   5              		.eabi_attribute 21, 1
   6              		.eabi_attribute 23, 3
   7              		.eabi_attribute 24, 1
   8              		.eabi_attribute 25, 1
   9              		.eabi_attribute 26, 1
  10              		.eabi_attribute 30, 2
  11              		.eabi_attribute 34, 1
  12              		.eabi_attribute 18, 4
  13              		.thumb
  14              		.file	"main.cpp"
  15              		.text
  16              	.Ltext0:
  17              		.cfi_sections	.debug_frame
  18              		.section	.text._ZL7Thread1Pv,"ax",%progbits
  19              		.align	2
  20              		.p2align 4,,15
  21              		.thumb
  22              		.thumb_func
  23              		.type	_ZL7Thread1Pv, %function
  24              	_ZL7Thread1Pv:
  25              		.fnstart
  26              	.LFB36:
  27              		.file 1 "main.cpp"
  28              		.loc 1 21 0
  29              		.cfi_startproc
  30              		@ args = 0, pretend = 0, frame = 0
  31              		@ frame_needed = 0, uses_anonymous_args = 0
  32              	.LVL0:
  33 0000 70B5     		push	{r4, r5, r6, lr}
  34              		.save {r4, r5, r6, lr}
  35              		.cfi_def_cfa_offset 16
  36              		.cfi_offset 4, -16
  37              		.cfi_offset 5, -12
  38              		.cfi_offset 6, -8
  39              		.cfi_offset 14, -4
  40              		.loc 1 24 0
  41 0002 4FF40035 		mov	r5, #131072
  42 0006 2E46     		mov	r6, r5
  43 0008 044C     		ldr	r4, .L5
  44              	.LVL1:
  45              	.L2:
  46              		.loc 1 24 0 is_stmt 0 discriminator 1
  47 000a 6663     		str	r6, [r4, #52]
  48              		.loc 1 25 0 is_stmt 1 discriminator 1
  49 000c 3220     		movs	r0, #50
  50 000e FFF7FEFF 		bl	chThdSleep
  51              	.LVL2:
  52              		.loc 1 26 0 discriminator 1
  53 0012 2563     		str	r5, [r4, #48]
  54              		.loc 1 27 0 discriminator 1
  55 0014 3220     		movs	r0, #50
  56 0016 FFF7FEFF 		bl	chThdSleep
  57              	.LVL3:
ARM GAS  /tmp/cc1feWkh.s 			page 2


  58              		.loc 1 21 0 discriminator 1
  59 001a F6E7     		b	.L2
  60              	.L6:
  61              		.align	2
  62              	.L5:
  63 001c 00120E40 		.word	1074663936
  64              		.cfi_endproc
  65              	.LFE36:
  66              		.fnend
  67              		.size	_ZL7Thread1Pv, .-_ZL7Thread1Pv
  68              		.section	.text.startup.main,"ax",%progbits
  69              		.align	2
  70              		.p2align 4,,15
  71              		.global	main
  72              		.thumb
  73              		.thumb_func
  74              		.type	main, %function
  75              	main:
  76              		.fnstart
  77              	.LFB37:
  78              		.loc 1 36 0
  79              		.cfi_startproc
  80              		@ args = 0, pretend = 0, frame = 0
  81              		@ frame_needed = 0, uses_anonymous_args = 0
  82 0000 00B5     		push	{lr}
  83              		.save {lr}
  84              		.cfi_def_cfa_offset 4
  85              		.cfi_offset 14, -4
  86              		.pad #12
  87 0002 83B0     		sub	sp, sp, #12
  88              		.cfi_def_cfa_offset 16
  89              		.loc 1 38 0
  90 0004 FFF7FEFF 		bl	halInit
  91              	.LVL4:
  92              		.loc 1 39 0
  93 0008 FFF7FEFF 		bl	chSysInit
  94              	.LVL5:
  95              		.loc 1 40 0
  96 000c 1048     		ldr	r0, .L10
  97 000e FFF7FEFF 		bl	_ZN7creator3I2C4InitEv
  98              	.LVL6:
  99              		.loc 1 43 0
 100 0012 1048     		ldr	r0, .L10+4
 101 0014 0021     		movs	r1, #0
 102 0016 FFF7FEFF 		bl	sdStart
 103              	.LVL7:
 104              		.loc 1 46 0
 105 001a 0023     		movs	r3, #0
 106 001c 0093     		str	r3, [sp]
 107 001e 0E48     		ldr	r0, .L10+8
 108 0020 4FF49871 		mov	r1, #304
 109 0024 4022     		movs	r2, #64
 110 0026 0D4B     		ldr	r3, .L10+12
 111 0028 FFF7FEFF 		bl	chThdCreateStatic
 112              	.LVL8:
 113              	.L8:
 114              		.loc 1 49 0 discriminator 1
ARM GAS  /tmp/cc1feWkh.s 			page 3


 115 002c 0C49     		ldr	r1, .L10+16
 116 002e 0948     		ldr	r0, .L10+4
 117 0030 FFF7FEFF 		bl	chprintf
 118              	.LVL9:
 119              		.loc 1 50 0 discriminator 1
 120 0034 4FF47A70 		mov	r0, #1000
 121 0038 FFF7FEFF 		bl	chThdSleep
 122              	.LVL10:
 123              		.loc 1 51 0 discriminator 1
 124 003c 0448     		ldr	r0, .L10
 125 003e 0121     		movs	r1, #1
 126 0040 5022     		movs	r2, #80
 127 0042 FFF7FEFF 		bl	_ZN7creator3I2C9WriteByteEhh
 128              	.LVL11:
 129              		.loc 1 52 0 discriminator 1
 130 0046 4FF47A70 		mov	r0, #1000
 131 004a FFF7FEFF 		bl	chThdSleep
 132              	.LVL12:
 133              		.loc 1 36 0 discriminator 1
 134 004e EDE7     		b	.L8
 135              	.L11:
 136              		.align	2
 137              	.L10:
 138 0050 00000000 		.word	.LANCHOR0
 139 0054 00000000 		.word	SD2
 140 0058 00000000 		.word	.LANCHOR1
 141 005c 00000000 		.word	_ZL7Thread1Pv
 142 0060 00000000 		.word	.LC0
 143              		.cfi_endproc
 144              	.LFE37:
 145              		.fnend
 146              		.size	main, .-main
 147              		.global	i2c
 148              		.section	.bss._ZL9waThread1,"aw",%nobits
 149              		.align	3
 150              		.set	.LANCHOR1,. + 0
 151              		.type	_ZL9waThread1, %object
 152              		.size	_ZL9waThread1, 304
 153              	_ZL9waThread1:
 154 0000 00000000 		.space	304
 154      00000000 
 154      00000000 
 154      00000000 
 154      00000000 
 155              		.section	.bss.i2c,"aw",%nobits
 156              		.align	2
 157              		.set	.LANCHOR0,. + 0
 158              		.type	i2c, %object
 159              		.size	i2c, 8
 160              	i2c:
 161 0000 00000000 		.space	8
 161      00000000 
 162              		.section	.rodata.str1.4,"aMS",%progbits,1
 163              		.align	2
 164              	.LC0:
 165 0000 6B696C6C 		.ascii	"kill me\015\012\000"
 165      206D650D 
ARM GAS  /tmp/cc1feWkh.s 			page 4


 165      0A00
 166              		.text
 167              	.Letext0:
 168              		.file 2 "/home/nixtropy/opt/gcc-arm-none-eabi-4_9-2015q3/lib/gcc/arm-none-eabi/4.9.3/include/stdde
 169              		.file 3 "/home/nixtropy/opt/gcc-arm-none-eabi-4_9-2015q3/arm-none-eabi/include/machine/_default_ty
 170              		.file 4 "/home/nixtropy/opt/gcc-arm-none-eabi-4_9-2015q3/arm-none-eabi/include/sys/_stdint.h"
 171              		.file 5 "/home/nixtropy/opt/gcc-arm-none-eabi-4_9-2015q3/arm-none-eabi/include/stdint.h"
 172              		.file 6 "../../ext/ChibiOS/os/ports/GCC/ARMCMx/chtypes.h"
 173              		.file 7 "../../ext/ChibiOS/os/kernel/include/chlists.h"
 174              		.file 8 "../../ext/ChibiOS/os/kernel/include/chthreads.h"
 175              		.file 9 "../../ext/ChibiOS/os/ports/GCC/ARMCMx/chcore_v7m.h"
 176              		.file 10 "../../ext/ChibiOS/os/kernel/include/chmtx.h"
 177              		.file 11 "../../ext/ChibiOS/os/kernel/include/chevents.h"
 178              		.file 12 "../../ext/ChibiOS/os/kernel/include/chqueues.h"
 179              		.file 13 "../../ext/ChibiOS/os/kernel/include/chioch.h"
 180              		.file 14 "../../ext/ChibiOS/os/hal/platforms/AT91SAM3S/at91lib/SAM3S.h"
 181              		.file 15 "../../ext/ChibiOS/os/hal/platforms/AT91SAM3S/pal_lld.h"
 182              		.file 16 "../../ext/ChibiOS/os/hal/include/serial.h"
 183              		.file 17 "../../ext/ChibiOS/os/hal/platforms/AT91SAM3S/serial_lld.h"
 184              		.file 18 "../../ext/ChibiOS/os/hal/platforms/AT91SAM3S/async.h"
 185              		.file 19 "../../ext/ChibiOS/os/hal/platforms/AT91SAM3S/atmel_twid.h"
 186              		.file 20 "./i2c.h"
 187              		.file 21 "../../ext/ChibiOS/os/hal/include/hal.h"
 188              		.file 22 "../../ext/ChibiOS/os/kernel/include/chsys.h"
 189              		.file 23 "../../ext/ChibiOS/os/various/chprintf.h"
 190              		.file 24 "../../ext/ChibiOS/os/hal/platforms/AT91SAM3S/core_cm3.h"